
ETHCAT_SSC_XMC48.elf:     file format elf32-littlearm

Sections:
Idx Name          Size      VMA       LMA       File off  Algn
  0 .reset        0000029c  08000000  0c000000  00008000  2**2
                  CONTENTS, ALLOC, LOAD, READONLY, DATA
  1 .text         000064b4  08020000  0c020000  00010000  2**2
                  CONTENTS, ALLOC, LOAD, READONLY, CODE
  2 Stack         00000800  1ffe8000  1ffe8000  00020000  2**0
                  ALLOC
  3 .data         00000ca0  1ffe8800  0c0264b4  00018800  2**2
                  CONTENTS, ALLOC, LOAD, DATA
  4 .bss          00001320  1ffe94a0  0c027154  000194a0  2**3
                  ALLOC
  5 .no_init      00000014  2003ffc0  2003ffc0  0001ffc0  2**2
                  ALLOC
  6 .debug_frame  000001ec  00000000  00000000  000194a0  2**2
                  CONTENTS, READONLY, DEBUGGING
  7 .build_attributes 00000ccd  00000000  00000000  0001968c  2**0
                  CONTENTS, READONLY

Disassembly of section .text:

08020000 <SystemCoreClockUpdate>:
 8020000:	4b1d      	ldr	r3, [pc, #116]	; (8020078 <SystemCoreClockUpdate+0x78>)
 8020002:	68db      	ldr	r3, [r3, #12]
 8020004:	03d9      	lsls	r1, r3, #15
 8020006:	b510      	push	{r4, lr}
 8020008:	d525      	bpl.n	8020056 <SystemCoreClockUpdate+0x56>
 802000a:	4b1c      	ldr	r3, [pc, #112]	; (802007c <SystemCoreClockUpdate+0x7c>)
 802000c:	68da      	ldr	r2, [r3, #12]
 802000e:	f012 0f01 	tst.w	r2, #1
 8020012:	461c      	mov	r4, r3
 8020014:	d102      	bne.n	802001c <SystemCoreClockUpdate+0x1c>
 8020016:	f005 fc5f 	bl	80258d8 <OSCHP_GetFrequency>
 802001a:	e000      	b.n	802001e <SystemCoreClockUpdate+0x1e>
 802001c:	4818      	ldr	r0, [pc, #96]	; (8020080 <SystemCoreClockUpdate+0x80>)
 802001e:	6822      	ldr	r2, [r4, #0]
 8020020:	4b16      	ldr	r3, [pc, #88]	; (802007c <SystemCoreClockUpdate+0x7c>)
 8020022:	0752      	lsls	r2, r2, #29
 8020024:	d510      	bpl.n	8020048 <SystemCoreClockUpdate+0x48>
 8020026:	689a      	ldr	r2, [r3, #8]
 8020028:	6899      	ldr	r1, [r3, #8]
 802002a:	689b      	ldr	r3, [r3, #8]
 802002c:	f3c2 6203 	ubfx	r2, r2, #24, #4
 8020030:	f3c3 4406 	ubfx	r4, r3, #16, #7
 8020034:	1c53      	adds	r3, r2, #1
 8020036:	fb04 3303 	mla	r3, r4, r3, r3
 802003a:	fbb0 f0f3 	udiv	r0, r0, r3
 802003e:	f3c1 2306 	ubfx	r3, r1, #8, #7
 8020042:	fb03 0000 	mla	r0, r3, r0, r0
 8020046:	e007      	b.n	8020058 <SystemCoreClockUpdate+0x58>
 8020048:	689b      	ldr	r3, [r3, #8]
 802004a:	f003 037f 	and.w	r3, r3, #127	; 0x7f
 802004e:	3301      	adds	r3, #1
 8020050:	fbb0 f0f3 	udiv	r0, r0, r3
 8020054:	e000      	b.n	8020058 <SystemCoreClockUpdate+0x58>
 8020056:	480a      	ldr	r0, [pc, #40]	; (8020080 <SystemCoreClockUpdate+0x80>)
 8020058:	4a07      	ldr	r2, [pc, #28]	; (8020078 <SystemCoreClockUpdate+0x78>)
 802005a:	68d3      	ldr	r3, [r2, #12]
 802005c:	b2db      	uxtb	r3, r3
 802005e:	3301      	adds	r3, #1
 8020060:	fbb0 f0f3 	udiv	r0, r0, r3
 8020064:	6913      	ldr	r3, [r2, #16]
 8020066:	f003 0301 	and.w	r3, r3, #1
 802006a:	3301      	adds	r3, #1
 802006c:	fbb0 f0f3 	udiv	r0, r0, r3
 8020070:	4b04      	ldr	r3, [pc, #16]	; (8020084 <SystemCoreClockUpdate+0x84>)
 8020072:	6018      	str	r0, [r3, #0]
 8020074:	bd10      	pop	{r4, pc}
 8020076:	bf00      	nop
 8020078:	50004600 	.word	0x50004600
 802007c:	50004710 	.word	0x50004710
 8020080:	016e3600 	.word	0x016e3600
 8020084:	2003ffc0 	.word	0x2003ffc0

08020088 <SystemInit>:
 8020088:	b538      	push	{r3, r4, r5, lr}
 802008a:	4a09      	ldr	r2, [pc, #36]	; (80200b0 <SystemInit+0x28>)
 802008c:	4d09      	ldr	r5, [pc, #36]	; (80200b4 <SystemInit+0x2c>)
 802008e:	f04f 5400 	mov.w	r4, #536870912	; 0x20000000
 8020092:	4623      	mov	r3, r4
 8020094:	cb03      	ldmia	r3!, {r0, r1}
 8020096:	42ab      	cmp	r3, r5
 8020098:	6010      	str	r0, [r2, #0]
 802009a:	6051      	str	r1, [r2, #4]
 802009c:	461c      	mov	r4, r3
 802009e:	f102 0208 	add.w	r2, r2, #8
 80200a2:	d1f6      	bne.n	8020092 <SystemInit+0xa>
 80200a4:	f005 fbd8 	bl	8025858 <SystemCoreSetup>
 80200a8:	f005 fc1a 	bl	80258e0 <SystemCoreClockSetup>
 80200ac:	bd38      	pop	{r3, r4, r5, pc}
 80200ae:	bf00      	nop
 80200b0:	2003ffc4 	.word	0x2003ffc4
 80200b4:	20000010 	.word	0x20000010

080200b8 <APPL_AckErrorInd>:
 80200b8:	4770      	bx	lr

080200ba <APPL_StartMailboxHandler>:
 80200ba:	2000      	movs	r0, #0
 80200bc:	4770      	bx	lr

080200be <APPL_StopMailboxHandler>:
 80200be:	2000      	movs	r0, #0
 80200c0:	4770      	bx	lr

080200c2 <APPL_StartInputHandler>:
 80200c2:	2000      	movs	r0, #0
 80200c4:	4770      	bx	lr

080200c6 <APPL_StopInputHandler>:
 80200c6:	2000      	movs	r0, #0
 80200c8:	4770      	bx	lr

080200ca <APPL_StartOutputHandler>:
 80200ca:	2000      	movs	r0, #0
 80200cc:	4770      	bx	lr

080200ce <APPL_StopOutputHandler>:
 80200ce:	2000      	movs	r0, #0
 80200d0:	4770      	bx	lr
	...

080200d4 <APPL_GenerateMapping>:
 80200d4:	e92d 4ff7 	stmdb	sp!, {r0, r1, r2, r4, r5, r6, r7, r8, r9, sl, fp, lr}
 80200d8:	f04f 0900 	mov.w	r9, #0
 80200dc:	4680      	mov	r8, r0
 80200de:	460f      	mov	r7, r1
 80200e0:	464d      	mov	r5, r9
 80200e2:	4b35      	ldr	r3, [pc, #212]	; (80201b8 <APPL_GenerateMapping+0xe4>)
 80200e4:	8819      	ldrh	r1, [r3, #0]
 80200e6:	fa1f f289 	uxth.w	r2, r9
 80200ea:	4291      	cmp	r1, r2
 80200ec:	d91f      	bls.n	802012e <APPL_GenerateMapping+0x5a>
 80200ee:	eb03 0342 	add.w	r3, r3, r2, lsl #1
 80200f2:	8858      	ldrh	r0, [r3, #2]
 80200f4:	f002 fb32 	bl	802275c <OBJ_GetObjectHandle>
 80200f8:	4606      	mov	r6, r0
 80200fa:	b1d0      	cbz	r0, 8020132 <APPL_GenerateMapping+0x5e>
 80200fc:	6983      	ldr	r3, [r0, #24]
 80200fe:	f8b3 a000 	ldrh.w	sl, [r3]
 8020102:	2300      	movs	r3, #0
 8020104:	b29a      	uxth	r2, r3
 8020106:	4552      	cmp	r2, sl
 8020108:	d20e      	bcs.n	8020128 <APPL_GenerateMapping+0x54>
 802010a:	1c5c      	adds	r4, r3, #1
 802010c:	b2e0      	uxtb	r0, r4
 802010e:	4631      	mov	r1, r6
 8020110:	f8d6 b018 	ldr.w	fp, [r6, #24]
 8020114:	f002 fc84 	bl	8022a20 <OBJ_GetEntryOffset>
 8020118:	f3c0 100f 	ubfx	r0, r0, #4, #16
 802011c:	f81b 3010 	ldrb.w	r3, [fp, r0, lsl #1]
 8020120:	441d      	add	r5, r3
 8020122:	b2ad      	uxth	r5, r5
 8020124:	4623      	mov	r3, r4
 8020126:	e7ed      	b.n	8020104 <APPL_GenerateMapping+0x30>
 8020128:	f109 0901 	add.w	r9, r9, #1
 802012c:	e7d9      	b.n	80200e2 <APPL_GenerateMapping+0xe>
 802012e:	2600      	movs	r6, #0
 8020130:	e001      	b.n	8020136 <APPL_GenerateMapping+0x62>
 8020132:	4605      	mov	r5, r0
 8020134:	2625      	movs	r6, #37	; 0x25
 8020136:	3507      	adds	r5, #7
 8020138:	f3c5 05cf 	ubfx	r5, r5, #3, #16
 802013c:	b10e      	cbz	r6, 8020142 <APPL_GenerateMapping+0x6e>
 802013e:	2400      	movs	r4, #0
 8020140:	e031      	b.n	80201a6 <APPL_GenerateMapping+0xd2>
 8020142:	46b3      	mov	fp, r6
 8020144:	4634      	mov	r4, r6
 8020146:	4b1d      	ldr	r3, [pc, #116]	; (80201bc <APPL_GenerateMapping+0xe8>)
 8020148:	8819      	ldrh	r1, [r3, #0]
 802014a:	fa1f f28b 	uxth.w	r2, fp
 802014e:	4291      	cmp	r1, r2
 8020150:	d929      	bls.n	80201a6 <APPL_GenerateMapping+0xd2>
 8020152:	eb03 0342 	add.w	r3, r3, r2, lsl #1
 8020156:	8858      	ldrh	r0, [r3, #2]
 8020158:	f002 fb00 	bl	802275c <OBJ_GetObjectHandle>
 802015c:	4682      	mov	sl, r0
 802015e:	b300      	cbz	r0, 80201a2 <APPL_GenerateMapping+0xce>
 8020160:	6983      	ldr	r3, [r0, #24]
 8020162:	f8b3 c000 	ldrh.w	ip, [r3]
 8020166:	2300      	movs	r3, #0
 8020168:	b29a      	uxth	r2, r3
 802016a:	4562      	cmp	r2, ip
 802016c:	d216      	bcs.n	802019c <APPL_GenerateMapping+0xc8>
 802016e:	f103 0901 	add.w	r9, r3, #1
 8020172:	f8da 2018 	ldr.w	r2, [sl, #24]
 8020176:	f8cd c004 	str.w	ip, [sp, #4]
 802017a:	fa5f f089 	uxtb.w	r0, r9
 802017e:	4651      	mov	r1, sl
 8020180:	9200      	str	r2, [sp, #0]
 8020182:	f002 fc4d 	bl	8022a20 <OBJ_GetEntryOffset>
 8020186:	9a00      	ldr	r2, [sp, #0]
 8020188:	f8dd c004 	ldr.w	ip, [sp, #4]
 802018c:	f3c0 100f 	ubfx	r0, r0, #4, #16
 8020190:	f812 3010 	ldrb.w	r3, [r2, r0, lsl #1]
 8020194:	441c      	add	r4, r3
 8020196:	b2a4      	uxth	r4, r4
 8020198:	464b      	mov	r3, r9
 802019a:	e7e5      	b.n	8020168 <APPL_GenerateMapping+0x94>
 802019c:	f10b 0b01 	add.w	fp, fp, #1
 80201a0:	e7d1      	b.n	8020146 <APPL_GenerateMapping+0x72>
 80201a2:	4604      	mov	r4, r0
 80201a4:	2624      	movs	r6, #36	; 0x24
 80201a6:	3407      	adds	r4, #7
 80201a8:	10e4      	asrs	r4, r4, #3
 80201aa:	4630      	mov	r0, r6
 80201ac:	f8a8 4000 	strh.w	r4, [r8]
 80201b0:	803d      	strh	r5, [r7, #0]
 80201b2:	b003      	add	sp, #12
 80201b4:	e8bd 8ff0 	ldmia.w	sp!, {r4, r5, r6, r7, r8, r9, sl, fp, pc}
 80201b8:	1ffe8804 	.word	0x1ffe8804
 80201bc:	1ffe8808 	.word	0x1ffe8808

080201c0 <APPL_InputMapping>:
 80201c0:	b510      	push	{r4, lr}
 80201c2:	2200      	movs	r2, #0
 80201c4:	4b08      	ldr	r3, [pc, #32]	; (80201e8 <APPL_InputMapping+0x28>)
 80201c6:	881c      	ldrh	r4, [r3, #0]
 80201c8:	b2d1      	uxtb	r1, r2
 80201ca:	42a1      	cmp	r1, r4
 80201cc:	d20b      	bcs.n	80201e6 <APPL_InputMapping+0x26>
 80201ce:	eb03 0341 	add.w	r3, r3, r1, lsl #1
 80201d2:	3201      	adds	r2, #1
 80201d4:	885b      	ldrh	r3, [r3, #2]
 80201d6:	f5b3 5fd0 	cmp.w	r3, #6656	; 0x1a00
 80201da:	bf02      	ittt	eq
 80201dc:	4b03      	ldreq	r3, [pc, #12]	; (80201ec <APPL_InputMapping+0x2c>)
 80201de:	881b      	ldrheq	r3, [r3, #0]
 80201e0:	f820 3b02 	strheq.w	r3, [r0], #2
 80201e4:	e7ee      	b.n	80201c4 <APPL_InputMapping+0x4>
 80201e6:	bd10      	pop	{r4, pc}
 80201e8:	1ffe8808 	.word	0x1ffe8808
 80201ec:	1ffe8802 	.word	0x1ffe8802

080201f0 <APPL_OutputMapping>:
 80201f0:	b510      	push	{r4, lr}
 80201f2:	2200      	movs	r2, #0
 80201f4:	4b08      	ldr	r3, [pc, #32]	; (8020218 <APPL_OutputMapping+0x28>)
 80201f6:	881c      	ldrh	r4, [r3, #0]
 80201f8:	b2d1      	uxtb	r1, r2
 80201fa:	42a1      	cmp	r1, r4
 80201fc:	d20b      	bcs.n	8020216 <APPL_OutputMapping+0x26>
 80201fe:	eb03 0341 	add.w	r3, r3, r1, lsl #1
 8020202:	3201      	adds	r2, #1
 8020204:	885b      	ldrh	r3, [r3, #2]
 8020206:	f5b3 5fb0 	cmp.w	r3, #5632	; 0x1600
 802020a:	bf02      	ittt	eq
 802020c:	4b03      	ldreq	r3, [pc, #12]	; (802021c <APPL_OutputMapping+0x2c>)
 802020e:	f830 1b02 	ldrheq.w	r1, [r0], #2
 8020212:	8019      	strheq	r1, [r3, #0]
 8020214:	e7ee      	b.n	80201f4 <APPL_OutputMapping+0x4>
 8020216:	bd10      	pop	{r4, pc}
 8020218:	1ffe8804 	.word	0x1ffe8804
 802021c:	1ffe881e 	.word	0x1ffe881e

08020220 <APPL_Application>:
 8020220:	4b02      	ldr	r3, [pc, #8]	; (802022c <APPL_Application+0xc>)
 8020222:	885a      	ldrh	r2, [r3, #2]
 8020224:	4b02      	ldr	r3, [pc, #8]	; (8020230 <APPL_Application+0x10>)
 8020226:	805a      	strh	r2, [r3, #2]
 8020228:	4770      	bx	lr
 802022a:	bf00      	nop
 802022c:	1ffe881c 	.word	0x1ffe881c
 8020230:	1ffe8800 	.word	0x1ffe8800

08020234 <COE_SyncTimeStamp>:
 8020234:	4b0f      	ldr	r3, [pc, #60]	; (8020274 <COE_SyncTimeStamp+0x40>)
 8020236:	4910      	ldr	r1, [pc, #64]	; (8020278 <COE_SyncTimeStamp+0x44>)
 8020238:	781a      	ldrb	r2, [r3, #0]
 802023a:	4b10      	ldr	r3, [pc, #64]	; (802027c <COE_SyncTimeStamp+0x48>)
 802023c:	b530      	push	{r4, r5, lr}
 802023e:	b18a      	cbz	r2, 8020264 <COE_SyncTimeStamp+0x30>
 8020240:	480f      	ldr	r0, [pc, #60]	; (8020280 <COE_SyncTimeStamp+0x4c>)
 8020242:	681c      	ldr	r4, [r3, #0]
 8020244:	6805      	ldr	r5, [r0, #0]
 8020246:	e9d1 2300 	ldrd	r2, r3, [r1]
 802024a:	2200      	movs	r2, #0
 802024c:	4322      	orrs	r2, r4
 802024e:	42ac      	cmp	r4, r5
 8020250:	e9c1 2300 	strd	r2, r3, [r1]
 8020254:	d204      	bcs.n	8020260 <COE_SyncTimeStamp+0x2c>
 8020256:	3200      	adds	r2, #0
 8020258:	f143 0301 	adc.w	r3, r3, #1
 802025c:	e9c1 2300 	strd	r2, r3, [r1]
 8020260:	6004      	str	r4, [r0, #0]
 8020262:	e003      	b.n	802026c <COE_SyncTimeStamp+0x38>
 8020264:	e9d3 2300 	ldrd	r2, r3, [r3]
 8020268:	e9c1 2300 	strd	r2, r3, [r1]
 802026c:	4b05      	ldr	r3, [pc, #20]	; (8020284 <COE_SyncTimeStamp+0x50>)
 802026e:	2200      	movs	r2, #0
 8020270:	601a      	str	r2, [r3, #0]
 8020272:	bd30      	pop	{r4, r5, pc}
 8020274:	1ffea5e5 	.word	0x1ffea5e5
 8020278:	1ffe94a0 	.word	0x1ffe94a0
 802027c:	54010910 	.word	0x54010910
 8020280:	1ffea4dc 	.word	0x1ffea4dc
 8020284:	1ffea4e0 	.word	0x1ffea4e0

08020288 <Read0x10F8>:
 8020288:	b570      	push	{r4, r5, r6, lr}
 802028a:	461e      	mov	r6, r3
 802028c:	f241 03f8 	movw	r3, #4344	; 0x10f8
 8020290:	4298      	cmp	r0, r3
 8020292:	460c      	mov	r4, r1
 8020294:	4615      	mov	r5, r2
 8020296:	d10e      	bne.n	80202b6 <Read0x10F8+0x2e>
 8020298:	f89d 3010 	ldrb.w	r3, [sp, #16]
 802029c:	b96b      	cbnz	r3, 80202ba <Read0x10F8+0x32>
 802029e:	b971      	cbnz	r1, 80202be <Read0x10F8+0x36>
 80202a0:	2a08      	cmp	r2, #8
 80202a2:	d80e      	bhi.n	80202c2 <Read0x10F8+0x3a>
 80202a4:	f7ff ffc6 	bl	8020234 <COE_SyncTimeStamp>
 80202a8:	4630      	mov	r0, r6
 80202aa:	4907      	ldr	r1, [pc, #28]	; (80202c8 <Read0x10F8+0x40>)
 80202ac:	462a      	mov	r2, r5
 80202ae:	f005 fc8d 	bl	8025bcc <memcpy>
 80202b2:	4620      	mov	r0, r4
 80202b4:	bd70      	pop	{r4, r5, r6, pc}
 80202b6:	200b      	movs	r0, #11
 80202b8:	bd70      	pop	{r4, r5, r6, pc}
 80202ba:	2005      	movs	r0, #5
 80202bc:	bd70      	pop	{r4, r5, r6, pc}
 80202be:	2011      	movs	r0, #17
 80202c0:	bd70      	pop	{r4, r5, r6, pc}
 80202c2:	200f      	movs	r0, #15
 80202c4:	bd70      	pop	{r4, r5, r6, pc}
 80202c6:	bf00      	nop
 80202c8:	1ffe94a0 	.word	0x1ffe94a0

080202cc <COE_GetObjectDictionary>:
 80202cc:	4b01      	ldr	r3, [pc, #4]	; (80202d4 <COE_GetObjectDictionary+0x8>)
 80202ce:	6818      	ldr	r0, [r3, #0]
 80202d0:	4770      	bx	lr
 80202d2:	bf00      	nop
 80202d4:	1ffe94a8 	.word	0x1ffe94a8

080202d8 <COE_UpdateSyncErrorStatus>:
 80202d8:	4b0f      	ldr	r3, [pc, #60]	; (8020318 <COE_UpdateSyncErrorStatus+0x40>)
 80202da:	8d5a      	ldrh	r2, [r3, #42]	; 0x2a
 80202dc:	b510      	push	{r4, lr}
 80202de:	4619      	mov	r1, r3
 80202e0:	b922      	cbnz	r2, 80202ec <COE_UpdateSyncErrorStatus+0x14>
 80202e2:	480e      	ldr	r0, [pc, #56]	; (802031c <COE_UpdateSyncErrorStatus+0x44>)
 80202e4:	8d1c      	ldrh	r4, [r3, #40]	; 0x28
 80202e6:	8900      	ldrh	r0, [r0, #8]
 80202e8:	4284      	cmp	r4, r0
 80202ea:	d903      	bls.n	80202f4 <COE_UpdateSyncErrorStatus+0x1c>
 80202ec:	2301      	movs	r3, #1
 80202ee:	f881 3040 	strb.w	r3, [r1, #64]	; 0x40
 80202f2:	e001      	b.n	80202f8 <COE_UpdateSyncErrorStatus+0x20>
 80202f4:	f883 2040 	strb.w	r2, [r3, #64]	; 0x40
 80202f8:	4b09      	ldr	r3, [pc, #36]	; (8020320 <COE_UpdateSyncErrorStatus+0x48>)
 80202fa:	8d5a      	ldrh	r2, [r3, #42]	; 0x2a
 80202fc:	4619      	mov	r1, r3
 80202fe:	b922      	cbnz	r2, 802030a <COE_UpdateSyncErrorStatus+0x32>
 8020300:	4806      	ldr	r0, [pc, #24]	; (802031c <COE_UpdateSyncErrorStatus+0x44>)
 8020302:	8d1c      	ldrh	r4, [r3, #40]	; 0x28
 8020304:	8900      	ldrh	r0, [r0, #8]
 8020306:	4284      	cmp	r4, r0
 8020308:	d903      	bls.n	8020312 <COE_UpdateSyncErrorStatus+0x3a>
 802030a:	2301      	movs	r3, #1
 802030c:	f881 3040 	strb.w	r3, [r1, #64]	; 0x40
 8020310:	bd10      	pop	{r4, pc}
 8020312:	f883 2040 	strb.w	r2, [r3, #64]	; 0x40
 8020316:	bd10      	pop	{r4, pc}
 8020318:	1ffea6dc 	.word	0x1ffea6dc
 802031c:	1ffe934c 	.word	0x1ffe934c
 8020320:	1ffea698 	.word	0x1ffea698

08020324 <COE_AddObjectToDic>:
 8020324:	b510      	push	{r4, lr}
 8020326:	b328      	cbz	r0, 8020374 <COE_AddObjectToDic+0x50>
 8020328:	4913      	ldr	r1, [pc, #76]	; (8020378 <COE_AddObjectToDic+0x54>)
 802032a:	680b      	ldr	r3, [r1, #0]
 802032c:	b91b      	cbnz	r3, 8020336 <COE_AddObjectToDic+0x12>
 802032e:	6008      	str	r0, [r1, #0]
 8020330:	6043      	str	r3, [r0, #4]
 8020332:	6003      	str	r3, [r0, #0]
 8020334:	e015      	b.n	8020362 <COE_AddObjectToDic+0x3e>
 8020336:	8904      	ldrh	r4, [r0, #8]
 8020338:	891a      	ldrh	r2, [r3, #8]
 802033a:	42a2      	cmp	r2, r4
 802033c:	d906      	bls.n	802034c <COE_AddObjectToDic+0x28>
 802033e:	2200      	movs	r2, #0
 8020340:	e880 000c 	stmia.w	r0, {r2, r3}
 8020344:	6018      	str	r0, [r3, #0]
 8020346:	6008      	str	r0, [r1, #0]
 8020348:	e00b      	b.n	8020362 <COE_AddObjectToDic+0x3e>
 802034a:	4613      	mov	r3, r2
 802034c:	891a      	ldrh	r2, [r3, #8]
 802034e:	42a2      	cmp	r2, r4
 8020350:	d010      	beq.n	8020374 <COE_AddObjectToDic+0x50>
 8020352:	d908      	bls.n	8020366 <COE_AddObjectToDic+0x42>
 8020354:	681a      	ldr	r2, [r3, #0]
 8020356:	e880 000c 	stmia.w	r0, {r2, r3}
 802035a:	681a      	ldr	r2, [r3, #0]
 802035c:	b102      	cbz	r2, 8020360 <COE_AddObjectToDic+0x3c>
 802035e:	6050      	str	r0, [r2, #4]
 8020360:	6018      	str	r0, [r3, #0]
 8020362:	2000      	movs	r0, #0
 8020364:	bd10      	pop	{r4, pc}
 8020366:	685a      	ldr	r2, [r3, #4]
 8020368:	2a00      	cmp	r2, #0
 802036a:	d1ee      	bne.n	802034a <COE_AddObjectToDic+0x26>
 802036c:	6058      	str	r0, [r3, #4]
 802036e:	6003      	str	r3, [r0, #0]
 8020370:	6042      	str	r2, [r0, #4]
 8020372:	e7f6      	b.n	8020362 <COE_AddObjectToDic+0x3e>
 8020374:	2001      	movs	r0, #1
 8020376:	bd10      	pop	{r4, pc}
 8020378:	1ffe94a8 	.word	0x1ffe94a8

0802037c <COE_RemoveDicEntry>:
 802037c:	4a0c      	ldr	r2, [pc, #48]	; (80203b0 <COE_RemoveDicEntry+0x34>)
 802037e:	b530      	push	{r4, r5, lr}
 8020380:	6815      	ldr	r5, [r2, #0]
 8020382:	462b      	mov	r3, r5
 8020384:	b193      	cbz	r3, 80203ac <COE_RemoveDicEntry+0x30>
 8020386:	8919      	ldrh	r1, [r3, #8]
 8020388:	4281      	cmp	r1, r0
 802038a:	d10d      	bne.n	80203a8 <COE_RemoveDicEntry+0x2c>
 802038c:	681c      	ldr	r4, [r3, #0]
 802038e:	6859      	ldr	r1, [r3, #4]
 8020390:	b104      	cbz	r4, 8020394 <COE_RemoveDicEntry+0x18>
 8020392:	6061      	str	r1, [r4, #4]
 8020394:	b101      	cbz	r1, 8020398 <COE_RemoveDicEntry+0x1c>
 8020396:	600c      	str	r4, [r1, #0]
 8020398:	2400      	movs	r4, #0
 802039a:	601c      	str	r4, [r3, #0]
 802039c:	605c      	str	r4, [r3, #4]
 802039e:	892b      	ldrh	r3, [r5, #8]
 80203a0:	4283      	cmp	r3, r0
 80203a2:	d103      	bne.n	80203ac <COE_RemoveDicEntry+0x30>
 80203a4:	6011      	str	r1, [r2, #0]
 80203a6:	bd30      	pop	{r4, r5, pc}
 80203a8:	685b      	ldr	r3, [r3, #4]
 80203aa:	e7eb      	b.n	8020384 <COE_RemoveDicEntry+0x8>
 80203ac:	bd30      	pop	{r4, r5, pc}
 80203ae:	bf00      	nop
 80203b0:	1ffe94a8 	.word	0x1ffe94a8

080203b4 <COE_ClearObjDictionary>:
 80203b4:	b538      	push	{r3, r4, r5, lr}
 80203b6:	4b05      	ldr	r3, [pc, #20]	; (80203cc <COE_ClearObjDictionary+0x18>)
 80203b8:	681c      	ldr	r4, [r3, #0]
 80203ba:	461d      	mov	r5, r3
 80203bc:	b124      	cbz	r4, 80203c8 <COE_ClearObjDictionary+0x14>
 80203be:	8920      	ldrh	r0, [r4, #8]
 80203c0:	6864      	ldr	r4, [r4, #4]
 80203c2:	f7ff ffdb 	bl	802037c <COE_RemoveDicEntry>
 80203c6:	e7f9      	b.n	80203bc <COE_ClearObjDictionary+0x8>
 80203c8:	602c      	str	r4, [r5, #0]
 80203ca:	bd38      	pop	{r3, r4, r5, pc}
 80203cc:	1ffe94a8 	.word	0x1ffe94a8

080203d0 <AddObjectsToObjDictionary>:
 80203d0:	b510      	push	{r4, lr}
 80203d2:	4604      	mov	r4, r0
 80203d4:	8922      	ldrh	r2, [r4, #8]
 80203d6:	f64f 73ff 	movw	r3, #65535	; 0xffff
 80203da:	429a      	cmp	r2, r3
 80203dc:	d005      	beq.n	80203ea <AddObjectsToObjDictionary+0x1a>
 80203de:	4620      	mov	r0, r4
 80203e0:	f7ff ffa0 	bl	8020324 <COE_AddObjectToDic>
 80203e4:	b910      	cbnz	r0, 80203ec <AddObjectsToObjDictionary+0x1c>
 80203e6:	3428      	adds	r4, #40	; 0x28
 80203e8:	e7f4      	b.n	80203d4 <AddObjectsToObjDictionary+0x4>
 80203ea:	2000      	movs	r0, #0
 80203ec:	bd10      	pop	{r4, pc}
	...

080203f0 <COE_ObjDictionaryInit>:
 80203f0:	b508      	push	{r3, lr}
 80203f2:	4b06      	ldr	r3, [pc, #24]	; (802040c <COE_ObjDictionaryInit+0x1c>)
 80203f4:	4806      	ldr	r0, [pc, #24]	; (8020410 <COE_ObjDictionaryInit+0x20>)
 80203f6:	2200      	movs	r2, #0
 80203f8:	601a      	str	r2, [r3, #0]
 80203fa:	f7ff ffe9 	bl	80203d0 <AddObjectsToObjDictionary>
 80203fe:	b920      	cbnz	r0, 802040a <COE_ObjDictionaryInit+0x1a>
 8020400:	4804      	ldr	r0, [pc, #16]	; (8020414 <COE_ObjDictionaryInit+0x24>)
 8020402:	e8bd 4008 	ldmia.w	sp!, {r3, lr}
 8020406:	f7ff bfe3 	b.w	80203d0 <AddObjectsToObjDictionary>
 802040a:	bd08      	pop	{r3, pc}
 802040c:	1ffe94a8 	.word	0x1ffe94a8
 8020410:	1ffe8848 	.word	0x1ffe8848
 8020414:	1ffe8a34 	.word	0x1ffe8a34

08020418 <COE_ObjInit>:
 8020418:	4b25      	ldr	r3, [pc, #148]	; (80204b0 <COE_ObjInit+0x98>)
 802041a:	4a26      	ldr	r2, [pc, #152]	; (80204b4 <COE_ObjInit+0x9c>)
 802041c:	b510      	push	{r4, lr}
 802041e:	2020      	movs	r0, #32
 8020420:	2400      	movs	r4, #0
 8020422:	f244 011f 	movw	r1, #16415	; 0x401f
 8020426:	8018      	strh	r0, [r3, #0]
 8020428:	805c      	strh	r4, [r3, #2]
 802042a:	605c      	str	r4, [r3, #4]
 802042c:	8199      	strh	r1, [r3, #12]
 802042e:	611a      	str	r2, [r3, #16]
 8020430:	615c      	str	r4, [r3, #20]
 8020432:	839c      	strh	r4, [r3, #28]
 8020434:	621c      	str	r4, [r3, #32]
 8020436:	851c      	strh	r4, [r3, #40]	; 0x28
 8020438:	855c      	strh	r4, [r3, #42]	; 0x2a
 802043a:	f883 4040 	strb.w	r4, [r3, #64]	; 0x40
 802043e:	4b1e      	ldr	r3, [pc, #120]	; (80204b8 <COE_ObjInit+0xa0>)
 8020440:	8018      	strh	r0, [r3, #0]
 8020442:	805c      	strh	r4, [r3, #2]
 8020444:	605c      	str	r4, [r3, #4]
 8020446:	8199      	strh	r1, [r3, #12]
 8020448:	611a      	str	r2, [r3, #16]
 802044a:	615c      	str	r4, [r3, #20]
 802044c:	839c      	strh	r4, [r3, #28]
 802044e:	621c      	str	r4, [r3, #32]
 8020450:	851c      	strh	r4, [r3, #40]	; 0x28
 8020452:	855c      	strh	r4, [r3, #42]	; 0x2a
 8020454:	f883 4040 	strb.w	r4, [r3, #64]	; 0x40
 8020458:	4b18      	ldr	r3, [pc, #96]	; (80204bc <COE_ObjInit+0xa4>)
 802045a:	701c      	strb	r4, [r3, #0]
 802045c:	f7ff ffc8 	bl	80203f0 <COE_ObjDictionaryInit>
 8020460:	b108      	cbz	r0, 8020466 <COE_ObjInit+0x4e>
 8020462:	f7ff ffa7 	bl	80203b4 <COE_ClearObjDictionary>
 8020466:	4b16      	ldr	r3, [pc, #88]	; (80204c0 <COE_ObjInit+0xa8>)
 8020468:	701c      	strb	r4, [r3, #0]
 802046a:	4b16      	ldr	r3, [pc, #88]	; (80204c4 <COE_ObjInit+0xac>)
 802046c:	701c      	strb	r4, [r3, #0]
 802046e:	4b16      	ldr	r3, [pc, #88]	; (80204c8 <COE_ObjInit+0xb0>)
 8020470:	801c      	strh	r4, [r3, #0]
 8020472:	4b16      	ldr	r3, [pc, #88]	; (80204cc <COE_ObjInit+0xb4>)
 8020474:	701c      	strb	r4, [r3, #0]
 8020476:	4b16      	ldr	r3, [pc, #88]	; (80204d0 <COE_ObjInit+0xb8>)
 8020478:	601c      	str	r4, [r3, #0]
 802047a:	4b16      	ldr	r3, [pc, #88]	; (80204d4 <COE_ObjInit+0xbc>)
 802047c:	601c      	str	r4, [r3, #0]
 802047e:	4b16      	ldr	r3, [pc, #88]	; (80204d8 <COE_ObjInit+0xc0>)
 8020480:	601c      	str	r4, [r3, #0]
 8020482:	4b16      	ldr	r3, [pc, #88]	; (80204dc <COE_ObjInit+0xc4>)
 8020484:	601c      	str	r4, [r3, #0]
 8020486:	4b16      	ldr	r3, [pc, #88]	; (80204e0 <COE_ObjInit+0xc8>)
 8020488:	681b      	ldr	r3, [r3, #0]
 802048a:	f013 0f08 	tst.w	r3, #8
 802048e:	4b15      	ldr	r3, [pc, #84]	; (80204e4 <COE_ObjInit+0xcc>)
 8020490:	bf01      	itttt	eq
 8020492:	2201      	moveq	r2, #1
 8020494:	701a      	strbeq	r2, [r3, #0]
 8020496:	4b14      	ldreq	r3, [pc, #80]	; (80204e8 <COE_ObjInit+0xd0>)
 8020498:	681a      	ldreq	r2, [r3, #0]
 802049a:	bf0d      	iteet	eq
 802049c:	4b13      	ldreq	r3, [pc, #76]	; (80204ec <COE_ObjInit+0xd4>)
 802049e:	2200      	movne	r2, #0
 80204a0:	701a      	strbne	r2, [r3, #0]
 80204a2:	601a      	streq	r2, [r3, #0]
 80204a4:	4b12      	ldr	r3, [pc, #72]	; (80204f0 <COE_ObjInit+0xd8>)
 80204a6:	f44f 627a 	mov.w	r2, #4000	; 0xfa0
 80204aa:	601a      	str	r2, [r3, #0]
 80204ac:	bd10      	pop	{r4, pc}
 80204ae:	bf00      	nop
 80204b0:	1ffea6dc 	.word	0x1ffea6dc
 80204b4:	0001e848 	.word	0x0001e848
 80204b8:	1ffea698 	.word	0x1ffea698
 80204bc:	1ffea720 	.word	0x1ffea720
 80204c0:	1ffea73c 	.word	0x1ffea73c
 80204c4:	1ffea73d 	.word	0x1ffea73d
 80204c8:	1ffea76e 	.word	0x1ffea76e
 80204cc:	1ffea770 	.word	0x1ffea770
 80204d0:	1ffea74c 	.word	0x1ffea74c
 80204d4:	1ffea728 	.word	0x1ffea728
 80204d8:	1ffea738 	.word	0x1ffea738
 80204dc:	1ffea750 	.word	0x1ffea750
 80204e0:	54010008 	.word	0x54010008
 80204e4:	1ffea5e5 	.word	0x1ffea5e5
 80204e8:	54010910 	.word	0x54010910
 80204ec:	1ffea4dc 	.word	0x1ffea4dc
 80204f0:	1ffea4e0 	.word	0x1ffea4e0

080204f4 <COE_Main>:
 80204f4:	e92d 4ff0 	stmdb	sp!, {r4, r5, r6, r7, r8, r9, sl, fp, lr}
 80204f8:	4e21      	ldr	r6, [pc, #132]	; (8020580 <COE_Main+0x8c>)
 80204fa:	f8d6 c000 	ldr.w	ip, [r6]
 80204fe:	b085      	sub	sp, #20
 8020500:	f1bc 0f00 	cmp.w	ip, #0
 8020504:	d038      	beq.n	8020578 <COE_Main+0x84>
 8020506:	4f1f      	ldr	r7, [pc, #124]	; (8020584 <COE_Main+0x90>)
 8020508:	f8df 908c 	ldr.w	r9, [pc, #140]	; 8020598 <COE_Main+0xa4>
 802050c:	f8df 808c 	ldr.w	r8, [pc, #140]	; 802059c <COE_Main+0xa8>
 8020510:	4d1d      	ldr	r5, [pc, #116]	; (8020588 <COE_Main+0x94>)
 8020512:	4c1e      	ldr	r4, [pc, #120]	; (802058c <COE_Main+0x98>)
 8020514:	783b      	ldrb	r3, [r7, #0]
 8020516:	9300      	str	r3, [sp, #0]
 8020518:	f8b9 0000 	ldrh.w	r0, [r9]
 802051c:	f898 1000 	ldrb.w	r1, [r8]
 8020520:	682a      	ldr	r2, [r5, #0]
 8020522:	6823      	ldr	r3, [r4, #0]
 8020524:	47e0      	blx	ip
 8020526:	28ff      	cmp	r0, #255	; 0xff
 8020528:	4683      	mov	fp, r0
 802052a:	d025      	beq.n	8020578 <COE_Main+0x84>
 802052c:	4a18      	ldr	r2, [pc, #96]	; (8020590 <COE_Main+0x9c>)
 802052e:	7813      	ldrb	r3, [r2, #0]
 8020530:	3b01      	subs	r3, #1
 8020532:	4692      	mov	sl, r2
 8020534:	2b03      	cmp	r3, #3
 8020536:	d814      	bhi.n	8020562 <COE_Main+0x6e>
 8020538:	e8df f003 	tbb	[pc, r3]
 802053c:	0f0f020b 	.word	0x0f0f020b
 8020540:	4b14      	ldr	r3, [pc, #80]	; (8020594 <COE_Main+0xa0>)
 8020542:	9303      	str	r3, [sp, #12]
 8020544:	6818      	ldr	r0, [r3, #0]
 8020546:	b120      	cbz	r0, 8020552 <COE_Main+0x5e>
 8020548:	f005 fb28 	bl	8025b9c <free>
 802054c:	9b03      	ldr	r3, [sp, #12]
 802054e:	2200      	movs	r2, #0
 8020550:	601a      	str	r2, [r3, #0]
 8020552:	2100      	movs	r1, #0
 8020554:	4658      	mov	r0, fp
 8020556:	460a      	mov	r2, r1
 8020558:	e001      	b.n	802055e <COE_Main+0x6a>
 802055a:	6829      	ldr	r1, [r5, #0]
 802055c:	6822      	ldr	r2, [r4, #0]
 802055e:	f003 fa6d 	bl	8023a3c <SDOS_SdoRes>
 8020562:	2300      	movs	r3, #0
 8020564:	f88a 3000 	strb.w	r3, [sl]
 8020568:	f8a9 3000 	strh.w	r3, [r9]
 802056c:	f888 3000 	strb.w	r3, [r8]
 8020570:	602b      	str	r3, [r5, #0]
 8020572:	6023      	str	r3, [r4, #0]
 8020574:	703b      	strb	r3, [r7, #0]
 8020576:	6033      	str	r3, [r6, #0]
 8020578:	b005      	add	sp, #20
 802057a:	e8bd 8ff0 	ldmia.w	sp!, {r4, r5, r6, r7, r8, r9, sl, fp, pc}
 802057e:	bf00      	nop
 8020580:	1ffea738 	.word	0x1ffea738
 8020584:	1ffea73d 	.word	0x1ffea73d
 8020588:	1ffea74c 	.word	0x1ffea74c
 802058c:	1ffea728 	.word	0x1ffea728
 8020590:	1ffea73c 	.word	0x1ffea73c
 8020594:	1ffea750 	.word	0x1ffea750
 8020598:	1ffea76e 	.word	0x1ffea76e
 802059c:	1ffea770 	.word	0x1ffea770

080205a0 <ECAT_CheckTimer>:
 80205a0:	b538      	push	{r3, r4, r5, lr}
 80205a2:	4b1e      	ldr	r3, [pc, #120]	; (802061c <ECAT_CheckTimer+0x7c>)
 80205a4:	781b      	ldrb	r3, [r3, #0]
 80205a6:	b13b      	cbz	r3, 80205b8 <ECAT_CheckTimer+0x18>
 80205a8:	4a1d      	ldr	r2, [pc, #116]	; (8020620 <ECAT_CheckTimer+0x80>)
 80205aa:	8813      	ldrh	r3, [r2, #0]
 80205ac:	b219      	sxth	r1, r3
 80205ae:	2900      	cmp	r1, #0
 80205b0:	bfc4      	itt	gt
 80205b2:	f103 33ff 	addgt.w	r3, r3, #4294967295
 80205b6:	8013      	strhgt	r3, [r2, #0]
 80205b8:	f001 fbea 	bl	8021d90 <DC_CheckWatchdog>
 80205bc:	4919      	ldr	r1, [pc, #100]	; (8020624 <ECAT_CheckTimer+0x84>)
 80205be:	8808      	ldrh	r0, [r1, #0]
 80205c0:	b168      	cbz	r0, 80205de <ECAT_CheckTimer+0x3e>
 80205c2:	4a19      	ldr	r2, [pc, #100]	; (8020628 <ECAT_CheckTimer+0x88>)
 80205c4:	8813      	ldrh	r3, [r2, #0]
 80205c6:	3301      	adds	r3, #1
 80205c8:	b29b      	uxth	r3, r3
 80205ca:	4298      	cmp	r0, r3
 80205cc:	8013      	strh	r3, [r2, #0]
 80205ce:	d806      	bhi.n	80205de <ECAT_CheckTimer+0x3e>
 80205d0:	2300      	movs	r3, #0
 80205d2:	800b      	strh	r3, [r1, #0]
 80205d4:	8013      	strh	r3, [r2, #0]
 80205d6:	4b15      	ldr	r3, [pc, #84]	; (802062c <ECAT_CheckTimer+0x8c>)
 80205d8:	681b      	ldr	r3, [r3, #0]
 80205da:	b103      	cbz	r3, 80205de <ECAT_CheckTimer+0x3e>
 80205dc:	4798      	blx	r3
 80205de:	4b14      	ldr	r3, [pc, #80]	; (8020630 <ECAT_CheckTimer+0x90>)
 80205e0:	4a14      	ldr	r2, [pc, #80]	; (8020634 <ECAT_CheckTimer+0x94>)
 80205e2:	7819      	ldrb	r1, [r3, #0]
 80205e4:	4b14      	ldr	r3, [pc, #80]	; (8020638 <ECAT_CheckTimer+0x98>)
 80205e6:	b141      	cbz	r1, 80205fa <ECAT_CheckTimer+0x5a>
 80205e8:	e9d2 0100 	ldrd	r0, r1, [r2]
 80205ec:	4c13      	ldr	r4, [pc, #76]	; (802063c <ECAT_CheckTimer+0x9c>)
 80205ee:	2100      	movs	r1, #0
 80205f0:	2500      	movs	r5, #0
 80205f2:	428d      	cmp	r5, r1
 80205f4:	bf08      	it	eq
 80205f6:	4284      	cmpeq	r4, r0
 80205f8:	d308      	bcc.n	802060c <ECAT_CheckTimer+0x6c>
 80205fa:	e9d2 0100 	ldrd	r0, r1, [r2]
 80205fe:	4c10      	ldr	r4, [pc, #64]	; (8020640 <ECAT_CheckTimer+0xa0>)
 8020600:	2500      	movs	r5, #0
 8020602:	1900      	adds	r0, r0, r4
 8020604:	4169      	adcs	r1, r5
 8020606:	e9c2 0100 	strd	r0, r1, [r2]
 802060a:	e002      	b.n	8020612 <ECAT_CheckTimer+0x72>
 802060c:	f44f 627a 	mov.w	r2, #4000	; 0xfa0
 8020610:	601a      	str	r2, [r3, #0]
 8020612:	681a      	ldr	r2, [r3, #0]
 8020614:	3201      	adds	r2, #1
 8020616:	601a      	str	r2, [r3, #0]
 8020618:	bd38      	pop	{r3, r4, r5, pc}
 802061a:	bf00      	nop
 802061c:	1ffea5e8 	.word	0x1ffea5e8
 8020620:	1ffea5f2 	.word	0x1ffea5f2
 8020624:	1ffea5b4 	.word	0x1ffea5b4
 8020628:	1ffea550 	.word	0x1ffea550
 802062c:	1ffea4e4 	.word	0x1ffea4e4
 8020630:	1ffea5e5 	.word	0x1ffea5e5
 8020634:	1ffe94a0 	.word	0x1ffe94a0
 8020638:	1ffea4e0 	.word	0x1ffea4e0
 802063c:	ffe1fb40 	.word	0xffe1fb40
 8020640:	000f4240 	.word	0x000f4240

08020644 <GetSystemTimeDelay>:
 8020644:	4b0a      	ldr	r3, [pc, #40]	; (8020670 <GetSystemTimeDelay+0x2c>)
 8020646:	681b      	ldr	r3, [r3, #0]
 8020648:	4602      	mov	r2, r0
 802064a:	b16b      	cbz	r3, 8020668 <GetSystemTimeDelay+0x24>
 802064c:	4298      	cmp	r0, r3
 802064e:	eba3 0300 	sub.w	r3, r3, r0
 8020652:	bf94      	ite	ls
 8020654:	4618      	movls	r0, r3
 8020656:	f103 30ff 	addhi.w	r0, r3, #4294967295
 802065a:	b142      	cbz	r2, 802066e <GetSystemTimeDelay+0x2a>
 802065c:	4b05      	ldr	r3, [pc, #20]	; (8020674 <GetSystemTimeDelay+0x30>)
 802065e:	681b      	ldr	r3, [r3, #0]
 8020660:	4283      	cmp	r3, r0
 8020662:	d203      	bcs.n	802066c <GetSystemTimeDelay+0x28>
 8020664:	1ac0      	subs	r0, r0, r3
 8020666:	4770      	bx	lr
 8020668:	4618      	mov	r0, r3
 802066a:	4770      	bx	lr
 802066c:	2000      	movs	r0, #0
 802066e:	4770      	bx	lr
 8020670:	54010910 	.word	0x54010910
 8020674:	1ffea500 	.word	0x1ffea500

08020678 <PDO_InputMapping>:
 8020678:	4b17      	ldr	r3, [pc, #92]	; (80206d8 <PDO_InputMapping+0x60>)
 802067a:	f8d3 3220 	ldr.w	r3, [r3, #544]	; 0x220
 802067e:	4b17      	ldr	r3, [pc, #92]	; (80206dc <PDO_InputMapping+0x64>)
 8020680:	8b9a      	ldrh	r2, [r3, #28]
 8020682:	f012 0f01 	tst.w	r2, #1
 8020686:	b570      	push	{r4, r5, r6, lr}
 8020688:	461d      	mov	r5, r3
 802068a:	4e15      	ldr	r6, [pc, #84]	; (80206e0 <PDO_InputMapping+0x68>)
 802068c:	d103      	bne.n	8020696 <PDO_InputMapping+0x1e>
 802068e:	8bb4      	ldrh	r4, [r6, #28]
 8020690:	f014 0401 	ands.w	r4, r4, #1
 8020694:	d003      	beq.n	802069e <PDO_InputMapping+0x26>
 8020696:	2000      	movs	r0, #0
 8020698:	f7ff ffd4 	bl	8020644 <GetSystemTimeDelay>
 802069c:	4604      	mov	r4, r0
 802069e:	4811      	ldr	r0, [pc, #68]	; (80206e4 <PDO_InputMapping+0x6c>)
 80206a0:	f7ff fd8e 	bl	80201c0 <APPL_InputMapping>
 80206a4:	4b10      	ldr	r3, [pc, #64]	; (80206e8 <PDO_InputMapping+0x70>)
 80206a6:	490f      	ldr	r1, [pc, #60]	; (80206e4 <PDO_InputMapping+0x6c>)
 80206a8:	8818      	ldrh	r0, [r3, #0]
 80206aa:	4b10      	ldr	r3, [pc, #64]	; (80206ec <PDO_InputMapping+0x74>)
 80206ac:	f100 40a8 	add.w	r0, r0, #1409286144	; 0x54000000
 80206b0:	881a      	ldrh	r2, [r3, #0]
 80206b2:	f500 3080 	add.w	r0, r0, #65536	; 0x10000
 80206b6:	f005 fa89 	bl	8025bcc <memcpy>
 80206ba:	8bab      	ldrh	r3, [r5, #28]
 80206bc:	07da      	lsls	r2, r3, #31
 80206be:	d402      	bmi.n	80206c6 <PDO_InputMapping+0x4e>
 80206c0:	8bb3      	ldrh	r3, [r6, #28]
 80206c2:	07db      	lsls	r3, r3, #31
 80206c4:	d507      	bpl.n	80206d6 <PDO_InputMapping+0x5e>
 80206c6:	4620      	mov	r0, r4
 80206c8:	f7ff ffbc 	bl	8020644 <GetSystemTimeDelay>
 80206cc:	6973      	ldr	r3, [r6, #20]
 80206ce:	4283      	cmp	r3, r0
 80206d0:	bf3c      	itt	cc
 80206d2:	4b03      	ldrcc	r3, [pc, #12]	; (80206e0 <PDO_InputMapping+0x68>)
 80206d4:	6158      	strcc	r0, [r3, #20]
 80206d6:	bd70      	pop	{r4, r5, r6, pc}
 80206d8:	54010000 	.word	0x54010000
 80206dc:	1ffea6dc 	.word	0x1ffea6dc
 80206e0:	1ffea698 	.word	0x1ffea698
 80206e4:	1ffea564 	.word	0x1ffea564
 80206e8:	1ffea602 	.word	0x1ffea602
 80206ec:	1ffea5ea 	.word	0x1ffea5ea

080206f0 <HandleCycleTimeMeasurement>:
 80206f0:	4b0d      	ldr	r3, [pc, #52]	; (8020728 <HandleCycleTimeMeasurement+0x38>)
 80206f2:	781b      	ldrb	r3, [r3, #0]
 80206f4:	b510      	push	{r4, lr}
 80206f6:	b9ab      	cbnz	r3, 8020724 <HandleCycleTimeMeasurement+0x34>
 80206f8:	4c0c      	ldr	r4, [pc, #48]	; (802072c <HandleCycleTimeMeasurement+0x3c>)
 80206fa:	6820      	ldr	r0, [r4, #0]
 80206fc:	b170      	cbz	r0, 802071c <HandleCycleTimeMeasurement+0x2c>
 80206fe:	f7ff ffa1 	bl	8020644 <GetSystemTimeDelay>
 8020702:	4b0b      	ldr	r3, [pc, #44]	; (8020730 <HandleCycleTimeMeasurement+0x40>)
 8020704:	6020      	str	r0, [r4, #0]
 8020706:	685a      	ldr	r2, [r3, #4]
 8020708:	b10a      	cbz	r2, 802070e <HandleCycleTimeMeasurement+0x1e>
 802070a:	4282      	cmp	r2, r0
 802070c:	d900      	bls.n	8020710 <HandleCycleTimeMeasurement+0x20>
 802070e:	6058      	str	r0, [r3, #4]
 8020710:	4b08      	ldr	r3, [pc, #32]	; (8020734 <HandleCycleTimeMeasurement+0x44>)
 8020712:	685a      	ldr	r2, [r3, #4]
 8020714:	b10a      	cbz	r2, 802071a <HandleCycleTimeMeasurement+0x2a>
 8020716:	4282      	cmp	r2, r0
 8020718:	d900      	bls.n	802071c <HandleCycleTimeMeasurement+0x2c>
 802071a:	6058      	str	r0, [r3, #4]
 802071c:	2000      	movs	r0, #0
 802071e:	f7ff ff91 	bl	8020644 <GetSystemTimeDelay>
 8020722:	6020      	str	r0, [r4, #0]
 8020724:	bd10      	pop	{r4, pc}
 8020726:	bf00      	nop
 8020728:	1ffea5f4 	.word	0x1ffea5f4
 802072c:	1ffea4f0 	.word	0x1ffea4f0
 8020730:	1ffea6dc 	.word	0x1ffea6dc
 8020734:	1ffea698 	.word	0x1ffea698

08020738 <PDO_OutputMapping>:
 8020738:	b538      	push	{r3, r4, r5, lr}
 802073a:	4d1a      	ldr	r5, [pc, #104]	; (80207a4 <PDO_OutputMapping+0x6c>)
 802073c:	8bab      	ldrh	r3, [r5, #28]
 802073e:	07d9      	lsls	r1, r3, #31
 8020740:	d404      	bmi.n	802074c <PDO_OutputMapping+0x14>
 8020742:	4b19      	ldr	r3, [pc, #100]	; (80207a8 <PDO_OutputMapping+0x70>)
 8020744:	8b9c      	ldrh	r4, [r3, #28]
 8020746:	f014 0401 	ands.w	r4, r4, #1
 802074a:	d00d      	beq.n	8020768 <PDO_OutputMapping+0x30>
 802074c:	2000      	movs	r0, #0
 802074e:	f7ff ff79 	bl	8020644 <GetSystemTimeDelay>
 8020752:	4b16      	ldr	r3, [pc, #88]	; (80207ac <PDO_OutputMapping+0x74>)
 8020754:	6018      	str	r0, [r3, #0]
 8020756:	4b16      	ldr	r3, [pc, #88]	; (80207b0 <PDO_OutputMapping+0x78>)
 8020758:	2201      	movs	r2, #1
 802075a:	701a      	strb	r2, [r3, #0]
 802075c:	4b15      	ldr	r3, [pc, #84]	; (80207b4 <PDO_OutputMapping+0x7c>)
 802075e:	2200      	movs	r2, #0
 8020760:	4604      	mov	r4, r0
 8020762:	601a      	str	r2, [r3, #0]
 8020764:	f7ff ffc4 	bl	80206f0 <HandleCycleTimeMeasurement>
 8020768:	4b13      	ldr	r3, [pc, #76]	; (80207b8 <PDO_OutputMapping+0x80>)
 802076a:	4814      	ldr	r0, [pc, #80]	; (80207bc <PDO_OutputMapping+0x84>)
 802076c:	8819      	ldrh	r1, [r3, #0]
 802076e:	4b14      	ldr	r3, [pc, #80]	; (80207c0 <PDO_OutputMapping+0x88>)
 8020770:	f101 41a8 	add.w	r1, r1, #1409286144	; 0x54000000
 8020774:	881a      	ldrh	r2, [r3, #0]
 8020776:	f501 3180 	add.w	r1, r1, #65536	; 0x10000
 802077a:	f005 fa27 	bl	8025bcc <memcpy>
 802077e:	480f      	ldr	r0, [pc, #60]	; (80207bc <PDO_OutputMapping+0x84>)
 8020780:	f7ff fd36 	bl	80201f0 <APPL_OutputMapping>
 8020784:	8bab      	ldrh	r3, [r5, #28]
 8020786:	07da      	lsls	r2, r3, #31
 8020788:	d403      	bmi.n	8020792 <PDO_OutputMapping+0x5a>
 802078a:	4b07      	ldr	r3, [pc, #28]	; (80207a8 <PDO_OutputMapping+0x70>)
 802078c:	8b9b      	ldrh	r3, [r3, #28]
 802078e:	07db      	lsls	r3, r3, #31
 8020790:	d507      	bpl.n	80207a2 <PDO_OutputMapping+0x6a>
 8020792:	4620      	mov	r0, r4
 8020794:	f7ff ff56 	bl	8020644 <GetSystemTimeDelay>
 8020798:	696b      	ldr	r3, [r5, #20]
 802079a:	4283      	cmp	r3, r0
 802079c:	bf3c      	itt	cc
 802079e:	4b01      	ldrcc	r3, [pc, #4]	; (80207a4 <PDO_OutputMapping+0x6c>)
 80207a0:	6158      	strcc	r0, [r3, #20]
 80207a2:	bd38      	pop	{r3, r4, r5, pc}
 80207a4:	1ffea6dc 	.word	0x1ffea6dc
 80207a8:	1ffea698 	.word	0x1ffea698
 80207ac:	1ffea560 	.word	0x1ffea560
 80207b0:	1ffea4ec 	.word	0x1ffea4ec
 80207b4:	1ffea508 	.word	0x1ffea508
 80207b8:	1ffea5ce 	.word	0x1ffea5ce
 80207bc:	1ffea50c 	.word	0x1ffea50c
 80207c0:	1ffea5c2 	.word	0x1ffea5c2

080207c4 <Sync1_Isr>:
 80207c4:	b508      	push	{r3, lr}
 80207c6:	4b0b      	ldr	r3, [pc, #44]	; (80207f4 <Sync1_Isr+0x30>)
 80207c8:	2200      	movs	r2, #0
 80207ca:	801a      	strh	r2, [r3, #0]
 80207cc:	4b0a      	ldr	r3, [pc, #40]	; (80207f8 <Sync1_Isr+0x34>)
 80207ce:	781b      	ldrb	r3, [r3, #0]
 80207d0:	b15b      	cbz	r3, 80207ea <Sync1_Isr+0x26>
 80207d2:	4b0a      	ldr	r3, [pc, #40]	; (80207fc <Sync1_Isr+0x38>)
 80207d4:	881b      	ldrh	r3, [r3, #0]
 80207d6:	b143      	cbz	r3, 80207ea <Sync1_Isr+0x26>
 80207d8:	4b09      	ldr	r3, [pc, #36]	; (8020800 <Sync1_Isr+0x3c>)
 80207da:	885b      	ldrh	r3, [r3, #2]
 80207dc:	2b03      	cmp	r3, #3
 80207de:	d104      	bne.n	80207ea <Sync1_Isr+0x26>
 80207e0:	4b08      	ldr	r3, [pc, #32]	; (8020804 <Sync1_Isr+0x40>)
 80207e2:	881b      	ldrh	r3, [r3, #0]
 80207e4:	b90b      	cbnz	r3, 80207ea <Sync1_Isr+0x26>
 80207e6:	f7ff ff47 	bl	8020678 <PDO_InputMapping>
 80207ea:	4b07      	ldr	r3, [pc, #28]	; (8020808 <Sync1_Isr+0x44>)
 80207ec:	2200      	movs	r2, #0
 80207ee:	801a      	strh	r2, [r3, #0]
 80207f0:	bd08      	pop	{r3, pc}
 80207f2:	bf00      	nop
 80207f4:	1ffea5f6 	.word	0x1ffea5f6
 80207f8:	1ffea5fa 	.word	0x1ffea5fa
 80207fc:	1ffea5ea 	.word	0x1ffea5ea
 8020800:	1ffea698 	.word	0x1ffea698
 8020804:	1ffea5e6 	.word	0x1ffea5e6
 8020808:	1ffea5ca 	.word	0x1ffea5ca

0802080c <MainInit>:
 802080c:	4b20      	ldr	r3, [pc, #128]	; (8020890 <MainInit+0x84>)
 802080e:	4a21      	ldr	r2, [pc, #132]	; (8020894 <MainInit+0x88>)
 8020810:	b510      	push	{r4, lr}
 8020812:	601a      	str	r2, [r3, #0]
 8020814:	4b20      	ldr	r3, [pc, #128]	; (8020898 <MainInit+0x8c>)
 8020816:	2400      	movs	r4, #0
 8020818:	601c      	str	r4, [r3, #0]
 802081a:	4b20      	ldr	r3, [pc, #128]	; (802089c <MainInit+0x90>)
 802081c:	601c      	str	r4, [r3, #0]
 802081e:	4b20      	ldr	r3, [pc, #128]	; (80208a0 <MainInit+0x94>)
 8020820:	601c      	str	r4, [r3, #0]
 8020822:	4b20      	ldr	r3, [pc, #128]	; (80208a4 <MainInit+0x98>)
 8020824:	601c      	str	r4, [r3, #0]
 8020826:	4b20      	ldr	r3, [pc, #128]	; (80208a8 <MainInit+0x9c>)
 8020828:	601c      	str	r4, [r3, #0]
 802082a:	4b20      	ldr	r3, [pc, #128]	; (80208ac <MainInit+0xa0>)
 802082c:	601c      	str	r4, [r3, #0]
 802082e:	4b20      	ldr	r3, [pc, #128]	; (80208b0 <MainInit+0xa4>)
 8020830:	601c      	str	r4, [r3, #0]
 8020832:	f001 fb4b 	bl	8021ecc <ECAT_Init>
 8020836:	f7ff fdef 	bl	8020418 <COE_ObjInit>
 802083a:	4b1e      	ldr	r3, [pc, #120]	; (80208b4 <MainInit+0xa8>)
 802083c:	2201      	movs	r2, #1
 802083e:	701a      	strb	r2, [r3, #0]
 8020840:	4b1d      	ldr	r3, [pc, #116]	; (80208b8 <MainInit+0xac>)
 8020842:	701c      	strb	r4, [r3, #0]
 8020844:	4b1d      	ldr	r3, [pc, #116]	; (80208bc <MainInit+0xb0>)
 8020846:	601c      	str	r4, [r3, #0]
 8020848:	4b1d      	ldr	r3, [pc, #116]	; (80208c0 <MainInit+0xb4>)
 802084a:	601c      	str	r4, [r3, #0]
 802084c:	4b1d      	ldr	r3, [pc, #116]	; (80208c4 <MainInit+0xb8>)
 802084e:	f44f 717a 	mov.w	r1, #1000	; 0x3e8
 8020852:	601c      	str	r4, [r3, #0]
 8020854:	461a      	mov	r2, r3
 8020856:	4b1c      	ldr	r3, [pc, #112]	; (80208c8 <MainInit+0xbc>)
 8020858:	6814      	ldr	r4, [r2, #0]
 802085a:	6818      	ldr	r0, [r3, #0]
 802085c:	681b      	ldr	r3, [r3, #0]
 802085e:	4298      	cmp	r0, r3
 8020860:	eba3 0300 	sub.w	r3, r3, r0
 8020864:	bf88      	it	hi
 8020866:	f103 33ff 	addhi.w	r3, r3, #4294967295
 802086a:	4816      	ldr	r0, [pc, #88]	; (80208c4 <MainInit+0xb8>)
 802086c:	b10c      	cbz	r4, 8020872 <MainInit+0x66>
 802086e:	429c      	cmp	r4, r3
 8020870:	d900      	bls.n	8020874 <MainInit+0x68>
 8020872:	6003      	str	r3, [r0, #0]
 8020874:	3901      	subs	r1, #1
 8020876:	d1ee      	bne.n	8020856 <MainInit+0x4a>
 8020878:	4b14      	ldr	r3, [pc, #80]	; (80208cc <MainInit+0xc0>)
 802087a:	881b      	ldrh	r3, [r3, #0]
 802087c:	f013 0f40 	tst.w	r3, #64	; 0x40
 8020880:	4b13      	ldr	r3, [pc, #76]	; (80208d0 <MainInit+0xc4>)
 8020882:	bf14      	ite	ne
 8020884:	2208      	movne	r2, #8
 8020886:	2204      	moveq	r2, #4
 8020888:	801a      	strh	r2, [r3, #0]
 802088a:	2000      	movs	r0, #0
 802088c:	bd10      	pop	{r4, pc}
 802088e:	bf00      	nop
 8020890:	1ffea5a8 	.word	0x1ffea5a8
 8020894:	1ffe8b4c 	.word	0x1ffe8b4c
 8020898:	1ffea4f4 	.word	0x1ffea4f4
 802089c:	1ffea4f8 	.word	0x1ffea4f8
 80208a0:	1ffea5b0 	.word	0x1ffea5b0
 80208a4:	1ffea4e4 	.word	0x1ffea4e4
 80208a8:	1ffea4e8 	.word	0x1ffea4e8
 80208ac:	1ffea554 	.word	0x1ffea554
 80208b0:	1ffea558 	.word	0x1ffea558
 80208b4:	1ffe94ae 	.word	0x1ffe94ae
 80208b8:	1ffea4ec 	.word	0x1ffea4ec
 80208bc:	1ffea4f0 	.word	0x1ffea4f0
 80208c0:	1ffea560 	.word	0x1ffea560
 80208c4:	1ffea500 	.word	0x1ffea500
 80208c8:	54010910 	.word	0x54010910
 80208cc:	54010502 	.word	0x54010502
 80208d0:	1ffea552 	.word	0x1ffea552

080208d4 <ECAT_Application>:
 80208d4:	b508      	push	{r3, lr}
 80208d6:	4b08      	ldr	r3, [pc, #32]	; (80208f8 <ECAT_Application+0x24>)
 80208d8:	8b9b      	ldrh	r3, [r3, #28]
 80208da:	07da      	lsls	r2, r3, #31
 80208dc:	d403      	bmi.n	80208e6 <ECAT_Application+0x12>
 80208de:	4b07      	ldr	r3, [pc, #28]	; (80208fc <ECAT_Application+0x28>)
 80208e0:	8b9b      	ldrh	r3, [r3, #28]
 80208e2:	07db      	lsls	r3, r3, #31
 80208e4:	d504      	bpl.n	80208f0 <ECAT_Application+0x1c>
 80208e6:	4b06      	ldr	r3, [pc, #24]	; (8020900 <ECAT_Application+0x2c>)
 80208e8:	881b      	ldrh	r3, [r3, #0]
 80208ea:	b90b      	cbnz	r3, 80208f0 <ECAT_Application+0x1c>
 80208ec:	f7ff ff00 	bl	80206f0 <HandleCycleTimeMeasurement>
 80208f0:	e8bd 4008 	ldmia.w	sp!, {r3, lr}
 80208f4:	f7ff bc94 	b.w	8020220 <APPL_Application>
 80208f8:	1ffea6dc 	.word	0x1ffea6dc
 80208fc:	1ffea698 	.word	0x1ffea698
 8020900:	1ffea5c2 	.word	0x1ffea5c2

08020904 <Sync0_Isr>:
 8020904:	b5f8      	push	{r3, r4, r5, r6, r7, lr}
 8020906:	4b30      	ldr	r3, [pc, #192]	; (80209c8 <Sync0_Isr+0xc4>)
 8020908:	2200      	movs	r2, #0
 802090a:	801a      	strh	r2, [r3, #0]
 802090c:	4b2f      	ldr	r3, [pc, #188]	; (80209cc <Sync0_Isr+0xc8>)
 802090e:	781b      	ldrb	r3, [r3, #0]
 8020910:	2b00      	cmp	r3, #0
 8020912:	d054      	beq.n	80209be <Sync0_Isr+0xba>
 8020914:	4b2e      	ldr	r3, [pc, #184]	; (80209d0 <Sync0_Isr+0xcc>)
 8020916:	781c      	ldrb	r4, [r3, #0]
 8020918:	b18c      	cbz	r4, 802093e <Sync0_Isr+0x3a>
 802091a:	4b2e      	ldr	r3, [pc, #184]	; (80209d4 <Sync0_Isr+0xd0>)
 802091c:	881a      	ldrh	r2, [r3, #0]
 802091e:	b16a      	cbz	r2, 802093c <Sync0_Isr+0x38>
 8020920:	4b2d      	ldr	r3, [pc, #180]	; (80209d8 <Sync0_Isr+0xd4>)
 8020922:	881c      	ldrh	r4, [r3, #0]
 8020924:	b15c      	cbz	r4, 802093e <Sync0_Isr+0x3a>
 8020926:	4b2d      	ldr	r3, [pc, #180]	; (80209dc <Sync0_Isr+0xd8>)
 8020928:	8819      	ldrh	r1, [r3, #0]
 802092a:	428a      	cmp	r2, r1
 802092c:	bf84      	itt	hi
 802092e:	3101      	addhi	r1, #1
 8020930:	8019      	strhhi	r1, [r3, #0]
 8020932:	881c      	ldrh	r4, [r3, #0]
 8020934:	1aa0      	subs	r0, r4, r2
 8020936:	4244      	negs	r4, r0
 8020938:	4144      	adcs	r4, r0
 802093a:	e000      	b.n	802093e <Sync0_Isr+0x3a>
 802093c:	4614      	mov	r4, r2
 802093e:	4b28      	ldr	r3, [pc, #160]	; (80209e0 <Sync0_Isr+0xdc>)
 8020940:	881f      	ldrh	r7, [r3, #0]
 8020942:	2f00      	cmp	r7, #0
 8020944:	d02f      	beq.n	80209a6 <Sync0_Isr+0xa2>
 8020946:	4a27      	ldr	r2, [pc, #156]	; (80209e4 <Sync0_Isr+0xe0>)
 8020948:	4927      	ldr	r1, [pc, #156]	; (80209e8 <Sync0_Isr+0xe4>)
 802094a:	8813      	ldrh	r3, [r2, #0]
 802094c:	42bb      	cmp	r3, r7
 802094e:	4616      	mov	r6, r2
 8020950:	d917      	bls.n	8020982 <Sync0_Isr+0x7e>
 8020952:	8808      	ldrh	r0, [r1, #0]
 8020954:	b148      	cbz	r0, 802096a <Sync0_Isr+0x66>
 8020956:	4d25      	ldr	r5, [pc, #148]	; (80209ec <Sync0_Isr+0xe8>)
 8020958:	f8df e098 	ldr.w	lr, [pc, #152]	; 80209f4 <Sync0_Isr+0xf0>
 802095c:	8d2a      	ldrh	r2, [r5, #40]	; 0x28
 802095e:	f8be e008 	ldrh.w	lr, [lr, #8]
 8020962:	4596      	cmp	lr, r2
 8020964:	bf24      	itt	cs
 8020966:	3203      	addcs	r2, #3
 8020968:	852a      	strhcs	r2, [r5, #40]	; 0x28
 802096a:	4a1b      	ldr	r2, [pc, #108]	; (80209d8 <Sync0_Isr+0xd4>)
 802096c:	8812      	ldrh	r2, [r2, #0]
 802096e:	b142      	cbz	r2, 8020982 <Sync0_Isr+0x7e>
 8020970:	b938      	cbnz	r0, 8020982 <Sync0_Isr+0x7e>
 8020972:	481f      	ldr	r0, [pc, #124]	; (80209f0 <Sync0_Isr+0xec>)
 8020974:	4d1f      	ldr	r5, [pc, #124]	; (80209f4 <Sync0_Isr+0xf0>)
 8020976:	8d02      	ldrh	r2, [r0, #40]	; 0x28
 8020978:	892d      	ldrh	r5, [r5, #8]
 802097a:	4295      	cmp	r5, r2
 802097c:	bf24      	itt	cs
 802097e:	3203      	addcs	r2, #3
 8020980:	8502      	strhcs	r2, [r0, #40]	; 0x28
 8020982:	880a      	ldrh	r2, [r1, #0]
 8020984:	b95a      	cbnz	r2, 802099e <Sync0_Isr+0x9a>
 8020986:	4914      	ldr	r1, [pc, #80]	; (80209d8 <Sync0_Isr+0xd4>)
 8020988:	8809      	ldrh	r1, [r1, #0]
 802098a:	b141      	cbz	r1, 802099e <Sync0_Isr+0x9a>
 802098c:	491a      	ldr	r1, [pc, #104]	; (80209f8 <Sync0_Isr+0xf4>)
 802098e:	f8d1 1220 	ldr.w	r1, [r1, #544]	; 0x220
 8020992:	0509      	lsls	r1, r1, #20
 8020994:	d503      	bpl.n	802099e <Sync0_Isr+0x9a>
 8020996:	4b16      	ldr	r3, [pc, #88]	; (80209f0 <Sync0_Isr+0xec>)
 8020998:	8032      	strh	r2, [r6, #0]
 802099a:	851a      	strh	r2, [r3, #40]	; 0x28
 802099c:	e003      	b.n	80209a6 <Sync0_Isr+0xa2>
 802099e:	42bb      	cmp	r3, r7
 80209a0:	bf9c      	itt	ls
 80209a2:	3301      	addls	r3, #1
 80209a4:	8033      	strhls	r3, [r6, #0]
 80209a6:	f7ff ff95 	bl	80208d4 <ECAT_Application>
 80209aa:	b144      	cbz	r4, 80209be <Sync0_Isr+0xba>
 80209ac:	f7ff fe64 	bl	8020678 <PDO_InputMapping>
 80209b0:	4b08      	ldr	r3, [pc, #32]	; (80209d4 <Sync0_Isr+0xd0>)
 80209b2:	881b      	ldrh	r3, [r3, #0]
 80209b4:	2b01      	cmp	r3, #1
 80209b6:	bf02      	ittt	eq
 80209b8:	4b08      	ldreq	r3, [pc, #32]	; (80209dc <Sync0_Isr+0xd8>)
 80209ba:	2200      	moveq	r2, #0
 80209bc:	801a      	strheq	r2, [r3, #0]
 80209be:	e8bd 40f8 	ldmia.w	sp!, {r3, r4, r5, r6, r7, lr}
 80209c2:	f7ff bc89 	b.w	80202d8 <COE_UpdateSyncErrorStatus>
 80209c6:	bf00      	nop
 80209c8:	1ffea5c8 	.word	0x1ffea5c8
 80209cc:	1ffea5f4 	.word	0x1ffea5f4
 80209d0:	1ffea5fa 	.word	0x1ffea5fa
 80209d4:	1ffea5e6 	.word	0x1ffea5e6
 80209d8:	1ffea5ea 	.word	0x1ffea5ea
 80209dc:	1ffea5ca 	.word	0x1ffea5ca
 80209e0:	1ffea5ec 	.word	0x1ffea5ec
 80209e4:	1ffea5fe 	.word	0x1ffea5fe
 80209e8:	1ffea5c2 	.word	0x1ffea5c2
 80209ec:	1ffea6dc 	.word	0x1ffea6dc
 80209f0:	1ffea698 	.word	0x1ffea698
 80209f4:	1ffe934c 	.word	0x1ffe934c
 80209f8:	54010000 	.word	0x54010000

080209fc <PDI_Isr>:
 80209fc:	4b3e      	ldr	r3, [pc, #248]	; (8020af8 <PDI_Isr+0xfc>)
 80209fe:	b573      	push	{r0, r1, r4, r5, r6, lr}
 8020a00:	f8d3 4220 	ldr.w	r4, [r3, #544]	; 0x220
 8020a04:	b2a4      	uxth	r4, r4
 8020a06:	f004 0508 	and.w	r5, r4, #8
 8020a0a:	b2ad      	uxth	r5, r5
 8020a0c:	b115      	cbz	r5, 8020a14 <PDI_Isr+0x18>
 8020a0e:	f7ff fed9 	bl	80207c4 <Sync1_Isr>
 8020a12:	2501      	movs	r5, #1
 8020a14:	4b39      	ldr	r3, [pc, #228]	; (8020afc <PDI_Isr+0x100>)
 8020a16:	781b      	ldrb	r3, [r3, #0]
 8020a18:	2b00      	cmp	r3, #0
 8020a1a:	d05e      	beq.n	8020ada <PDI_Isr+0xde>
 8020a1c:	f414 6f80 	tst.w	r4, #1024	; 0x400
 8020a20:	4e37      	ldr	r6, [pc, #220]	; (8020b00 <PDI_Isr+0x104>)
 8020a22:	d02a      	beq.n	8020a7a <PDI_Isr+0x7e>
 8020a24:	4b37      	ldr	r3, [pc, #220]	; (8020b04 <PDI_Isr+0x108>)
 8020a26:	781b      	ldrb	r3, [r3, #0]
 8020a28:	b12b      	cbz	r3, 8020a36 <PDI_Isr+0x3a>
 8020a2a:	4b37      	ldr	r3, [pc, #220]	; (8020b08 <PDI_Isr+0x10c>)
 8020a2c:	781b      	ldrb	r3, [r3, #0]
 8020a2e:	b113      	cbz	r3, 8020a36 <PDI_Isr+0x3a>
 8020a30:	4b36      	ldr	r3, [pc, #216]	; (8020b0c <PDI_Isr+0x110>)
 8020a32:	2200      	movs	r2, #0
 8020a34:	801a      	strh	r2, [r3, #0]
 8020a36:	8d33      	ldrh	r3, [r6, #40]	; 0x28
 8020a38:	b113      	cbz	r3, 8020a40 <PDI_Isr+0x44>
 8020a3a:	4a31      	ldr	r2, [pc, #196]	; (8020b00 <PDI_Isr+0x104>)
 8020a3c:	3b01      	subs	r3, #1
 8020a3e:	8513      	strh	r3, [r2, #40]	; 0x28
 8020a40:	4b33      	ldr	r3, [pc, #204]	; (8020b10 <PDI_Isr+0x114>)
 8020a42:	8d32      	ldrh	r2, [r6, #40]	; 0x28
 8020a44:	851a      	strh	r2, [r3, #40]	; 0x28
 8020a46:	4b33      	ldr	r3, [pc, #204]	; (8020b14 <PDI_Isr+0x118>)
 8020a48:	2201      	movs	r2, #1
 8020a4a:	701a      	strb	r2, [r3, #0]
 8020a4c:	4b32      	ldr	r3, [pc, #200]	; (8020b18 <PDI_Isr+0x11c>)
 8020a4e:	781b      	ldrb	r3, [r3, #0]
 8020a50:	b113      	cbz	r3, 8020a58 <PDI_Isr+0x5c>
 8020a52:	f7ff fe71 	bl	8020738 <PDO_OutputMapping>
 8020a56:	e010      	b.n	8020a7a <PDI_Isr+0x7e>
 8020a58:	4b30      	ldr	r3, [pc, #192]	; (8020b1c <PDI_Isr+0x120>)
 8020a5a:	4931      	ldr	r1, [pc, #196]	; (8020b20 <PDI_Isr+0x124>)
 8020a5c:	8818      	ldrh	r0, [r3, #0]
 8020a5e:	4b31      	ldr	r3, [pc, #196]	; (8020b24 <PDI_Isr+0x128>)
 8020a60:	f100 42a8 	add.w	r2, r0, #1409286144	; 0x54000000
 8020a64:	f502 3280 	add.w	r2, r2, #65536	; 0x10000
 8020a68:	881b      	ldrh	r3, [r3, #0]
 8020a6a:	7812      	ldrb	r2, [r2, #0]
 8020a6c:	b2d2      	uxtb	r2, r2
 8020a6e:	700a      	strb	r2, [r1, #0]
 8020a70:	4403      	add	r3, r0
 8020a72:	4a2d      	ldr	r2, [pc, #180]	; (8020b28 <PDI_Isr+0x12c>)
 8020a74:	5cd3      	ldrb	r3, [r2, r3]
 8020a76:	b2db      	uxtb	r3, r3
 8020a78:	700b      	strb	r3, [r1, #0]
 8020a7a:	8873      	ldrh	r3, [r6, #2]
 8020a7c:	2b01      	cmp	r3, #1
 8020a7e:	d101      	bne.n	8020a84 <PDI_Isr+0x88>
 8020a80:	f7ff ff28 	bl	80208d4 <ECAT_Application>
 8020a84:	4b29      	ldr	r3, [pc, #164]	; (8020b2c <PDI_Isr+0x130>)
 8020a86:	781b      	ldrb	r3, [r3, #0]
 8020a88:	b153      	cbz	r3, 8020aa0 <PDI_Isr+0xa4>
 8020a8a:	4b29      	ldr	r3, [pc, #164]	; (8020b30 <PDI_Isr+0x134>)
 8020a8c:	881b      	ldrh	r3, [r3, #0]
 8020a8e:	b13b      	cbz	r3, 8020aa0 <PDI_Isr+0xa4>
 8020a90:	4b1f      	ldr	r3, [pc, #124]	; (8020b10 <PDI_Isr+0x114>)
 8020a92:	885b      	ldrh	r3, [r3, #2]
 8020a94:	2b01      	cmp	r3, #1
 8020a96:	d001      	beq.n	8020a9c <PDI_Isr+0xa0>
 8020a98:	2b22      	cmp	r3, #34	; 0x22
 8020a9a:	d101      	bne.n	8020aa0 <PDI_Isr+0xa4>
 8020a9c:	f7ff fdec 	bl	8020678 <PDO_InputMapping>
 8020aa0:	4b15      	ldr	r3, [pc, #84]	; (8020af8 <PDI_Isr+0xfc>)
 8020aa2:	f8d3 4220 	ldr.w	r4, [r3, #544]	; 0x220
 8020aa6:	b2a4      	uxth	r4, r4
 8020aa8:	0562      	lsls	r2, r4, #21
 8020aaa:	d516      	bpl.n	8020ada <PDI_Isr+0xde>
 8020aac:	8d73      	ldrh	r3, [r6, #42]	; 0x2a
 8020aae:	4a18      	ldr	r2, [pc, #96]	; (8020b10 <PDI_Isr+0x114>)
 8020ab0:	491b      	ldr	r1, [pc, #108]	; (8020b20 <PDI_Isr+0x124>)
 8020ab2:	3301      	adds	r3, #1
 8020ab4:	b29b      	uxth	r3, r3
 8020ab6:	8573      	strh	r3, [r6, #42]	; 0x2a
 8020ab8:	8553      	strh	r3, [r2, #42]	; 0x2a
 8020aba:	4b18      	ldr	r3, [pc, #96]	; (8020b1c <PDI_Isr+0x120>)
 8020abc:	8818      	ldrh	r0, [r3, #0]
 8020abe:	4b19      	ldr	r3, [pc, #100]	; (8020b24 <PDI_Isr+0x128>)
 8020ac0:	f100 42a8 	add.w	r2, r0, #1409286144	; 0x54000000
 8020ac4:	f502 3280 	add.w	r2, r2, #65536	; 0x10000
 8020ac8:	881b      	ldrh	r3, [r3, #0]
 8020aca:	7812      	ldrb	r2, [r2, #0]
 8020acc:	b2d2      	uxtb	r2, r2
 8020ace:	700a      	strb	r2, [r1, #0]
 8020ad0:	4403      	add	r3, r0
 8020ad2:	4a15      	ldr	r2, [pc, #84]	; (8020b28 <PDI_Isr+0x12c>)
 8020ad4:	5cd3      	ldrb	r3, [r2, r3]
 8020ad6:	b2db      	uxtb	r3, r3
 8020ad8:	700b      	strb	r3, [r1, #0]
 8020ada:	0763      	lsls	r3, r4, #29
 8020adc:	d502      	bpl.n	8020ae4 <PDI_Isr+0xe8>
 8020ade:	f7ff ff11 	bl	8020904 <Sync0_Isr>
 8020ae2:	e000      	b.n	8020ae6 <PDI_Isr+0xea>
 8020ae4:	b125      	cbz	r5, 8020af0 <PDI_Isr+0xf4>
 8020ae6:	2300      	movs	r3, #0
 8020ae8:	9301      	str	r3, [sp, #4]
 8020aea:	4b12      	ldr	r3, [pc, #72]	; (8020b34 <PDI_Isr+0x138>)
 8020aec:	681b      	ldr	r3, [r3, #0]
 8020aee:	9301      	str	r3, [sp, #4]
 8020af0:	f7ff fbf2 	bl	80202d8 <COE_UpdateSyncErrorStatus>
 8020af4:	b002      	add	sp, #8
 8020af6:	bd70      	pop	{r4, r5, r6, pc}
 8020af8:	54010000 	.word	0x54010000
 8020afc:	1ffea5fb 	.word	0x1ffea5fb
 8020b00:	1ffea6dc 	.word	0x1ffea6dc
 8020b04:	1ffea5dc 	.word	0x1ffea5dc
 8020b08:	1ffea5f4 	.word	0x1ffea5f4
 8020b0c:	1ffea5fe 	.word	0x1ffea5fe
 8020b10:	1ffea698 	.word	0x1ffea698
 8020b14:	1ffea5f0 	.word	0x1ffea5f0
 8020b18:	1ffea5f5 	.word	0x1ffea5f5
 8020b1c:	1ffea5ce 	.word	0x1ffea5ce
 8020b20:	1ffea5d8 	.word	0x1ffea5d8
 8020b24:	1ffea5c2 	.word	0x1ffea5c2
 8020b28:	5400ffff 	.word	0x5400ffff
 8020b2c:	1ffea5fa 	.word	0x1ffea5fa
 8020b30:	1ffea5ea 	.word	0x1ffea5ea
 8020b34:	5401098c 	.word	0x5401098c

08020b38 <MainLoop>:
 8020b38:	4b23      	ldr	r3, [pc, #140]	; (8020bc8 <MainLoop+0x90>)
 8020b3a:	781b      	ldrb	r3, [r3, #0]
 8020b3c:	b510      	push	{r4, lr}
 8020b3e:	2b00      	cmp	r3, #0
 8020b40:	d041      	beq.n	8020bc6 <MainLoop+0x8e>
 8020b42:	4b22      	ldr	r3, [pc, #136]	; (8020bcc <MainLoop+0x94>)
 8020b44:	781b      	ldrb	r3, [r3, #0]
 8020b46:	b113      	cbz	r3, 8020b4e <MainLoop+0x16>
 8020b48:	4a21      	ldr	r2, [pc, #132]	; (8020bd0 <MainLoop+0x98>)
 8020b4a:	7812      	ldrb	r2, [r2, #0]
 8020b4c:	bb42      	cbnz	r2, 8020ba0 <MainLoop+0x68>
 8020b4e:	4a21      	ldr	r2, [pc, #132]	; (8020bd4 <MainLoop+0x9c>)
 8020b50:	7812      	ldrb	r2, [r2, #0]
 8020b52:	bb2a      	cbnz	r2, 8020ba0 <MainLoop+0x68>
 8020b54:	b9b3      	cbnz	r3, 8020b84 <MainLoop+0x4c>
 8020b56:	4b20      	ldr	r3, [pc, #128]	; (8020bd8 <MainLoop+0xa0>)
 8020b58:	f8d3 3220 	ldr.w	r3, [r3, #544]	; 0x220
 8020b5c:	b29b      	uxth	r3, r3
 8020b5e:	055a      	lsls	r2, r3, #21
 8020b60:	d508      	bpl.n	8020b74 <MainLoop+0x3c>
 8020b62:	4b1b      	ldr	r3, [pc, #108]	; (8020bd0 <MainLoop+0x98>)
 8020b64:	2201      	movs	r2, #1
 8020b66:	701a      	strb	r2, [r3, #0]
 8020b68:	4b1c      	ldr	r3, [pc, #112]	; (8020bdc <MainLoop+0xa4>)
 8020b6a:	781b      	ldrb	r3, [r3, #0]
 8020b6c:	b153      	cbz	r3, 8020b84 <MainLoop+0x4c>
 8020b6e:	f7ff fde3 	bl	8020738 <PDO_OutputMapping>
 8020b72:	e007      	b.n	8020b84 <MainLoop+0x4c>
 8020b74:	4a1a      	ldr	r2, [pc, #104]	; (8020be0 <MainLoop+0xa8>)
 8020b76:	8812      	ldrh	r2, [r2, #0]
 8020b78:	b922      	cbnz	r2, 8020b84 <MainLoop+0x4c>
 8020b7a:	051b      	lsls	r3, r3, #20
 8020b7c:	bf42      	ittt	mi
 8020b7e:	4b14      	ldrmi	r3, [pc, #80]	; (8020bd0 <MainLoop+0x98>)
 8020b80:	2201      	movmi	r2, #1
 8020b82:	701a      	strbmi	r2, [r3, #0]
 8020b84:	f004 fe32 	bl	80257ec <DISABLE_ESC_INT>
 8020b88:	f7ff fea4 	bl	80208d4 <ECAT_Application>
 8020b8c:	4b15      	ldr	r3, [pc, #84]	; (8020be4 <MainLoop+0xac>)
 8020b8e:	781b      	ldrb	r3, [r3, #0]
 8020b90:	b123      	cbz	r3, 8020b9c <MainLoop+0x64>
 8020b92:	4b15      	ldr	r3, [pc, #84]	; (8020be8 <MainLoop+0xb0>)
 8020b94:	881b      	ldrh	r3, [r3, #0]
 8020b96:	b10b      	cbz	r3, 8020b9c <MainLoop+0x64>
 8020b98:	f7ff fd6e 	bl	8020678 <PDO_InputMapping>
 8020b9c:	f004 fc6a 	bl	8025474 <ENABLE_ESC_INT>
 8020ba0:	4b12      	ldr	r3, [pc, #72]	; (8020bec <MainLoop+0xb4>)
 8020ba2:	681b      	ldr	r3, [r3, #0]
 8020ba4:	f5b3 6f7a 	cmp.w	r3, #4000	; 0xfa0
 8020ba8:	d301      	bcc.n	8020bae <MainLoop+0x76>
 8020baa:	f7ff fb43 	bl	8020234 <COE_SyncTimeStamp>
 8020bae:	f001 fa11 	bl	8021fd4 <ECAT_Main>
 8020bb2:	f7ff fc9f 	bl	80204f4 <COE_Main>
 8020bb6:	f001 f953 	bl	8021e60 <CheckIfEcatError>
 8020bba:	4b0d      	ldr	r3, [pc, #52]	; (8020bf0 <MainLoop+0xb8>)
 8020bbc:	681b      	ldr	r3, [r3, #0]
 8020bbe:	b113      	cbz	r3, 8020bc6 <MainLoop+0x8e>
 8020bc0:	e8bd 4010 	ldmia.w	sp!, {r4, lr}
 8020bc4:	4718      	bx	r3
 8020bc6:	bd10      	pop	{r4, pc}
 8020bc8:	1ffe94ae 	.word	0x1ffe94ae
 8020bcc:	1ffea5fb 	.word	0x1ffea5fb
 8020bd0:	1ffea5f0 	.word	0x1ffea5f0
 8020bd4:	1ffea5f4 	.word	0x1ffea5f4
 8020bd8:	54010000 	.word	0x54010000
 8020bdc:	1ffea5f5 	.word	0x1ffea5f5
 8020be0:	1ffea5c2 	.word	0x1ffea5c2
 8020be4:	1ffea5fa 	.word	0x1ffea5fa
 8020be8:	1ffea5ea 	.word	0x1ffea5ea
 8020bec:	1ffea4e0 	.word	0x1ffea4e0
 8020bf0:	1ffea558 	.word	0x1ffea558

08020bf4 <EEPROM_CommandHandler>:
 8020bf4:	e92d 41f0 	stmdb	sp!, {r4, r5, r6, r7, r8, lr}
 8020bf8:	4e47      	ldr	r6, [pc, #284]	; (8020d18 <EEPROM_CommandHandler+0x124>)
 8020bfa:	8835      	ldrh	r5, [r6, #0]
 8020bfc:	b2ad      	uxth	r5, r5
 8020bfe:	042b      	lsls	r3, r5, #16
 8020c00:	f140 8087 	bpl.w	8020d12 <EEPROM_CommandHandler+0x11e>
 8020c04:	4f45      	ldr	r7, [pc, #276]	; (8020d1c <EEPROM_CommandHandler+0x128>)
 8020c06:	f405 62e0 	and.w	r2, r5, #1792	; 0x700
 8020c0a:	f425 44e0 	bic.w	r4, r5, #28672	; 0x7000
 8020c0e:	f5b2 7f80 	cmp.w	r2, #256	; 0x100
 8020c12:	683b      	ldr	r3, [r7, #0]
 8020c14:	b2a4      	uxth	r4, r4
 8020c16:	d00a      	beq.n	8020c2e <EEPROM_CommandHandler+0x3a>
 8020c18:	d802      	bhi.n	8020c20 <EEPROM_CommandHandler+0x2c>
 8020c1a:	2a00      	cmp	r2, #0
 8020c1c:	d075      	beq.n	8020d0a <EEPROM_CommandHandler+0x116>
 8020c1e:	e072      	b.n	8020d06 <EEPROM_CommandHandler+0x112>
 8020c20:	f5b2 7f00 	cmp.w	r2, #512	; 0x200
 8020c24:	d01a      	beq.n	8020c5c <EEPROM_CommandHandler+0x68>
 8020c26:	f5b2 6f80 	cmp.w	r2, #1024	; 0x400
 8020c2a:	d030      	beq.n	8020c8e <EEPROM_CommandHandler+0x9a>
 8020c2c:	e06b      	b.n	8020d06 <EEPROM_CommandHandler+0x112>
 8020c2e:	4a3c      	ldr	r2, [pc, #240]	; (8020d20 <EEPROM_CommandHandler+0x12c>)
 8020c30:	6812      	ldr	r2, [r2, #0]
 8020c32:	b122      	cbz	r2, 8020c3e <EEPROM_CommandHandler+0x4a>
 8020c34:	4618      	mov	r0, r3
 8020c36:	4790      	blx	r2
 8020c38:	2800      	cmp	r0, #0
 8020c3a:	d066      	beq.n	8020d0a <EEPROM_CommandHandler+0x116>
 8020c3c:	e063      	b.n	8020d06 <EEPROM_CommandHandler+0x112>
 8020c3e:	f5b3 6f00 	cmp.w	r3, #2048	; 0x800
 8020c42:	d860      	bhi.n	8020d06 <EEPROM_CommandHandler+0x112>
 8020c44:	4a37      	ldr	r2, [pc, #220]	; (8020d24 <EEPROM_CommandHandler+0x130>)
 8020c46:	6811      	ldr	r1, [r2, #0]
 8020c48:	2900      	cmp	r1, #0
 8020c4a:	d05c      	beq.n	8020d06 <EEPROM_CommandHandler+0x112>
 8020c4c:	eb01 0143 	add.w	r1, r1, r3, lsl #1
 8020c50:	4b35      	ldr	r3, [pc, #212]	; (8020d28 <EEPROM_CommandHandler+0x134>)
 8020c52:	4836      	ldr	r0, [pc, #216]	; (8020d2c <EEPROM_CommandHandler+0x138>)
 8020c54:	881a      	ldrh	r2, [r3, #0]
 8020c56:	f004 ffb9 	bl	8025bcc <memcpy>
 8020c5a:	e056      	b.n	8020d0a <EEPROM_CommandHandler+0x116>
 8020c5c:	4a34      	ldr	r2, [pc, #208]	; (8020d30 <EEPROM_CommandHandler+0x13c>)
 8020c5e:	6812      	ldr	r2, [r2, #0]
 8020c60:	b11a      	cbz	r2, 8020c6a <EEPROM_CommandHandler+0x76>
 8020c62:	4618      	mov	r0, r3
 8020c64:	4790      	blx	r2
 8020c66:	b168      	cbz	r0, 8020c84 <EEPROM_CommandHandler+0x90>
 8020c68:	e00a      	b.n	8020c80 <EEPROM_CommandHandler+0x8c>
 8020c6a:	f5b3 6f00 	cmp.w	r3, #2048	; 0x800
 8020c6e:	d807      	bhi.n	8020c80 <EEPROM_CommandHandler+0x8c>
 8020c70:	4a2c      	ldr	r2, [pc, #176]	; (8020d24 <EEPROM_CommandHandler+0x130>)
 8020c72:	6812      	ldr	r2, [r2, #0]
 8020c74:	b122      	cbz	r2, 8020c80 <EEPROM_CommandHandler+0x8c>
 8020c76:	492d      	ldr	r1, [pc, #180]	; (8020d2c <EEPROM_CommandHandler+0x138>)
 8020c78:	8809      	ldrh	r1, [r1, #0]
 8020c7a:	f822 1013 	strh.w	r1, [r2, r3, lsl #1]
 8020c7e:	e001      	b.n	8020c84 <EEPROM_CommandHandler+0x90>
 8020c80:	f444 5400 	orr.w	r4, r4, #8192	; 0x2000
 8020c84:	4b2b      	ldr	r3, [pc, #172]	; (8020d34 <EEPROM_CommandHandler+0x140>)
 8020c86:	f44f 727a 	mov.w	r2, #1000	; 0x3e8
 8020c8a:	801a      	strh	r2, [r3, #0]
 8020c8c:	e03d      	b.n	8020d0a <EEPROM_CommandHandler+0x116>
 8020c8e:	4a26      	ldr	r2, [pc, #152]	; (8020d28 <EEPROM_CommandHandler+0x134>)
 8020c90:	8811      	ldrh	r1, [r2, #0]
 8020c92:	2908      	cmp	r1, #8
 8020c94:	4690      	mov	r8, r2
 8020c96:	d120      	bne.n	8020cda <EEPROM_CommandHandler+0xe6>
 8020c98:	f5b3 6f00 	cmp.w	r3, #2048	; 0x800
 8020c9c:	d833      	bhi.n	8020d06 <EEPROM_CommandHandler+0x112>
 8020c9e:	4a20      	ldr	r2, [pc, #128]	; (8020d20 <EEPROM_CommandHandler+0x12c>)
 8020ca0:	6812      	ldr	r2, [r2, #0]
 8020ca2:	b11a      	cbz	r2, 8020cac <EEPROM_CommandHandler+0xb8>
 8020ca4:	4618      	mov	r0, r3
 8020ca6:	4790      	blx	r2
 8020ca8:	b150      	cbz	r0, 8020cc0 <EEPROM_CommandHandler+0xcc>
 8020caa:	e02c      	b.n	8020d06 <EEPROM_CommandHandler+0x112>
 8020cac:	4a1d      	ldr	r2, [pc, #116]	; (8020d24 <EEPROM_CommandHandler+0x130>)
 8020cae:	6811      	ldr	r1, [r2, #0]
 8020cb0:	b349      	cbz	r1, 8020d06 <EEPROM_CommandHandler+0x112>
 8020cb2:	481e      	ldr	r0, [pc, #120]	; (8020d2c <EEPROM_CommandHandler+0x138>)
 8020cb4:	f8b8 2000 	ldrh.w	r2, [r8]
 8020cb8:	eb01 0143 	add.w	r1, r1, r3, lsl #1
 8020cbc:	f004 ff86 	bl	8025bcc <memcpy>
 8020cc0:	f424 44f0 	bic.w	r4, r4, #30720	; 0x7800
 8020cc4:	b2a4      	uxth	r4, r4
 8020cc6:	8034      	strh	r4, [r6, #0]
 8020cc8:	8834      	ldrh	r4, [r6, #0]
 8020cca:	683b      	ldr	r3, [r7, #0]
 8020ccc:	b2a4      	uxth	r4, r4
 8020cce:	f404 62e0 	and.w	r2, r4, #1792	; 0x700
 8020cd2:	f5b2 6f80 	cmp.w	r2, #1024	; 0x400
 8020cd6:	d0df      	beq.n	8020c98 <EEPROM_CommandHandler+0xa4>
 8020cd8:	e017      	b.n	8020d0a <EEPROM_CommandHandler+0x116>
 8020cda:	4b17      	ldr	r3, [pc, #92]	; (8020d38 <EEPROM_CommandHandler+0x144>)
 8020cdc:	681b      	ldr	r3, [r3, #0]
 8020cde:	b113      	cbz	r3, 8020ce6 <EEPROM_CommandHandler+0xf2>
 8020ce0:	4798      	blx	r3
 8020ce2:	b160      	cbz	r0, 8020cfe <EEPROM_CommandHandler+0x10a>
 8020ce4:	e00f      	b.n	8020d06 <EEPROM_CommandHandler+0x112>
 8020ce6:	f004 fb93 	bl	8025410 <HW_EepromReload>
 8020cea:	b910      	cbnz	r0, 8020cf2 <EEPROM_CommandHandler+0xfe>
 8020cec:	4b0d      	ldr	r3, [pc, #52]	; (8020d24 <EEPROM_CommandHandler+0x130>)
 8020cee:	681b      	ldr	r3, [r3, #0]
 8020cf0:	b913      	cbnz	r3, 8020cf8 <EEPROM_CommandHandler+0x104>
 8020cf2:	f444 6400 	orr.w	r4, r4, #2048	; 0x800
 8020cf6:	e008      	b.n	8020d0a <EEPROM_CommandHandler+0x116>
 8020cf8:	891a      	ldrh	r2, [r3, #8]
 8020cfa:	4b0c      	ldr	r3, [pc, #48]	; (8020d2c <EEPROM_CommandHandler+0x138>)
 8020cfc:	801a      	strh	r2, [r3, #0]
 8020cfe:	f425 44f0 	bic.w	r4, r5, #30720	; 0x7800
 8020d02:	b2a4      	uxth	r4, r4
 8020d04:	e001      	b.n	8020d0a <EEPROM_CommandHandler+0x116>
 8020d06:	f444 5400 	orr.w	r4, r4, #8192	; 0x2000
 8020d0a:	4b0c      	ldr	r3, [pc, #48]	; (8020d3c <EEPROM_CommandHandler+0x148>)
 8020d0c:	2200      	movs	r2, #0
 8020d0e:	801a      	strh	r2, [r3, #0]
 8020d10:	8034      	strh	r4, [r6, #0]
 8020d12:	e8bd 81f0 	ldmia.w	sp!, {r4, r5, r6, r7, r8, pc}
 8020d16:	bf00      	nop
 8020d18:	54010502 	.word	0x54010502
 8020d1c:	54010504 	.word	0x54010504
 8020d20:	1ffea4f4 	.word	0x1ffea4f4
 8020d24:	1ffea5a8 	.word	0x1ffea5a8
 8020d28:	1ffea552 	.word	0x1ffea552
 8020d2c:	54010508 	.word	0x54010508
 8020d30:	1ffea4f8 	.word	0x1ffea4f8
 8020d34:	1ffea5b4 	.word	0x1ffea5b4
 8020d38:	1ffea5b0 	.word	0x1ffea5b0
 8020d3c:	1ffea550 	.word	0x1ffea550

08020d40 <COE_Init>:
 8020d40:	4a02      	ldr	r2, [pc, #8]	; (8020d4c <COE_Init+0xc>)
 8020d42:	2300      	movs	r3, #0
 8020d44:	6013      	str	r3, [r2, #0]
 8020d46:	4a02      	ldr	r2, [pc, #8]	; (8020d50 <COE_Init+0x10>)
 8020d48:	8013      	strh	r3, [r2, #0]
 8020d4a:	4770      	bx	lr
 8020d4c:	1ffea5b8 	.word	0x1ffea5b8
 8020d50:	1ffea744 	.word	0x1ffea744

08020d54 <COE_ServiceInd>:
 8020d54:	88c3      	ldrh	r3, [r0, #6]
 8020d56:	0b1b      	lsrs	r3, r3, #12
 8020d58:	3b01      	subs	r3, #1
 8020d5a:	2b07      	cmp	r3, #7
 8020d5c:	d805      	bhi.n	8020d6a <COE_ServiceInd+0x16>
 8020d5e:	e8df f003 	tbb	[pc, r3]
 8020d62:	060a      	.short	0x060a
 8020d64:	0a0a0a0a 	.word	0x0a0a0a0a
 8020d68:	080a      	.short	0x080a
 8020d6a:	2005      	movs	r0, #5
 8020d6c:	4770      	bx	lr
 8020d6e:	f002 bb57 	b.w	8023420 <SDOS_SdoInd>
 8020d72:	f002 bf13 	b.w	8023b9c <SDOS_SdoInfoInd>
 8020d76:	2004      	movs	r0, #4
 8020d78:	4770      	bx	lr
	...

08020d7c <COE_ContinueInd>:
 8020d7c:	b570      	push	{r4, r5, r6, lr}
 8020d7e:	4d0e      	ldr	r5, [pc, #56]	; (8020db8 <COE_ContinueInd+0x3c>)
 8020d80:	682c      	ldr	r4, [r5, #0]
 8020d82:	b134      	cbz	r4, 8020d92 <COE_ContinueInd+0x16>
 8020d84:	4620      	mov	r0, r4
 8020d86:	2102      	movs	r1, #2
 8020d88:	f001 fbda 	bl	8022540 <MBX_MailboxSendReq>
 8020d8c:	b980      	cbnz	r0, 8020db0 <COE_ContinueInd+0x34>
 8020d8e:	6028      	str	r0, [r5, #0]
 8020d90:	bd70      	pop	{r4, r5, r6, pc}
 8020d92:	2080      	movs	r0, #128	; 0x80
 8020d94:	f004 fefa 	bl	8025b8c <malloc>
 8020d98:	4606      	mov	r6, r0
 8020d9a:	b158      	cbz	r0, 8020db4 <COE_ContinueInd+0x38>
 8020d9c:	4b07      	ldr	r3, [pc, #28]	; (8020dbc <COE_ContinueInd+0x40>)
 8020d9e:	4605      	mov	r5, r0
 8020da0:	cb0f      	ldmia	r3, {r0, r1, r2, r3}
 8020da2:	c507      	stmia	r5!, {r0, r1, r2}
 8020da4:	4630      	mov	r0, r6
 8020da6:	802b      	strh	r3, [r5, #0]
 8020da8:	f002 fef8 	bl	8023b9c <SDOS_SdoInfoInd>
 8020dac:	4620      	mov	r0, r4
 8020dae:	bd70      	pop	{r4, r5, r6, pc}
 8020db0:	2000      	movs	r0, #0
 8020db2:	bd70      	pop	{r4, r5, r6, pc}
 8020db4:	2007      	movs	r0, #7
 8020db6:	bd70      	pop	{r4, r5, r6, pc}
 8020db8:	1ffea5b8 	.word	0x1ffea5b8
 8020dbc:	1ffea758 	.word	0x1ffea758

08020dc0 <ResetALEventMask>:
 8020dc0:	b538      	push	{r3, r4, r5, lr}
 8020dc2:	4d05      	ldr	r5, [pc, #20]	; (8020dd8 <ResetALEventMask+0x18>)
 8020dc4:	882c      	ldrh	r4, [r5, #0]
 8020dc6:	4004      	ands	r4, r0
 8020dc8:	f004 fd10 	bl	80257ec <DISABLE_ESC_INT>
 8020dcc:	802c      	strh	r4, [r5, #0]
 8020dce:	e8bd 4038 	ldmia.w	sp!, {r3, r4, r5, lr}
 8020dd2:	f004 bb4f 	b.w	8025474 <ENABLE_ESC_INT>
 8020dd6:	bf00      	nop
 8020dd8:	54010204 	.word	0x54010204

08020ddc <SetALEventMask>:
 8020ddc:	b538      	push	{r3, r4, r5, lr}
 8020dde:	4d05      	ldr	r5, [pc, #20]	; (8020df4 <SetALEventMask+0x18>)
 8020de0:	882c      	ldrh	r4, [r5, #0]
 8020de2:	b2a4      	uxth	r4, r4
 8020de4:	4304      	orrs	r4, r0
 8020de6:	f004 fd01 	bl	80257ec <DISABLE_ESC_INT>
 8020dea:	802c      	strh	r4, [r5, #0]
 8020dec:	e8bd 4038 	ldmia.w	sp!, {r3, r4, r5, lr}
 8020df0:	f004 bb40 	b.w	8025474 <ENABLE_ESC_INT>
 8020df4:	54010204 	.word	0x54010204

08020df8 <UpdateEEPROMLoadedState>:
 8020df8:	4b06      	ldr	r3, [pc, #24]	; (8020e14 <UpdateEEPROMLoadedState+0x1c>)
 8020dfa:	4a07      	ldr	r2, [pc, #28]	; (8020e18 <UpdateEEPROMLoadedState+0x20>)
 8020dfc:	881b      	ldrh	r3, [r3, #0]
 8020dfe:	b29b      	uxth	r3, r3
 8020e00:	f413 6f00 	tst.w	r3, #2048	; 0x800
 8020e04:	d101      	bne.n	8020e0a <UpdateEEPROMLoadedState+0x12>
 8020e06:	04db      	lsls	r3, r3, #19
 8020e08:	d501      	bpl.n	8020e0e <UpdateEEPROMLoadedState+0x16>
 8020e0a:	2300      	movs	r3, #0
 8020e0c:	e000      	b.n	8020e10 <UpdateEEPROMLoadedState+0x18>
 8020e0e:	2301      	movs	r3, #1
 8020e10:	7013      	strb	r3, [r2, #0]
 8020e12:	4770      	bx	lr
 8020e14:	54010502 	.word	0x54010502
 8020e18:	1ffe94af 	.word	0x1ffe94af

08020e1c <GetSyncMan>:
 8020e1c:	00c0      	lsls	r0, r0, #3
 8020e1e:	f100 43a8 	add.w	r3, r0, #1409286144	; 0x54000000
 8020e22:	f503 3384 	add.w	r3, r3, #67584	; 0x10800
 8020e26:	cb03      	ldmia	r3!, {r0, r1}
 8020e28:	4a02      	ldr	r2, [pc, #8]	; (8020e34 <GetSyncMan+0x18>)
 8020e2a:	6010      	str	r0, [r2, #0]
 8020e2c:	6051      	str	r1, [r2, #4]
 8020e2e:	4610      	mov	r0, r2
 8020e30:	4770      	bx	lr
 8020e32:	bf00      	nop
 8020e34:	1ffea5dd 	.word	0x1ffea5dd

08020e38 <DisableSyncManChannel>:
 8020e38:	b082      	sub	sp, #8
 8020e3a:	2301      	movs	r3, #1
 8020e3c:	f88d 3007 	strb.w	r3, [sp, #7]
 8020e40:	4b08      	ldr	r3, [pc, #32]	; (8020e64 <DisableSyncManChannel+0x2c>)
 8020e42:	f89d 2007 	ldrb.w	r2, [sp, #7]
 8020e46:	00c0      	lsls	r0, r0, #3
 8020e48:	4403      	add	r3, r0
 8020e4a:	b2d2      	uxtb	r2, r2
 8020e4c:	701a      	strb	r2, [r3, #0]
 8020e4e:	781a      	ldrb	r2, [r3, #0]
 8020e50:	b2d2      	uxtb	r2, r2
 8020e52:	f88d 2007 	strb.w	r2, [sp, #7]
 8020e56:	f89d 2007 	ldrb.w	r2, [sp, #7]
 8020e5a:	07d2      	lsls	r2, r2, #31
 8020e5c:	d5f7      	bpl.n	8020e4e <DisableSyncManChannel+0x16>
 8020e5e:	b002      	add	sp, #8
 8020e60:	4770      	bx	lr
 8020e62:	bf00      	nop
 8020e64:	54010807 	.word	0x54010807

08020e68 <EnableSyncManChannel>:
 8020e68:	b082      	sub	sp, #8
 8020e6a:	2300      	movs	r3, #0
 8020e6c:	f88d 3007 	strb.w	r3, [sp, #7]
 8020e70:	4b08      	ldr	r3, [pc, #32]	; (8020e94 <EnableSyncManChannel+0x2c>)
 8020e72:	f89d 2007 	ldrb.w	r2, [sp, #7]
 8020e76:	00c0      	lsls	r0, r0, #3
 8020e78:	4403      	add	r3, r0
 8020e7a:	b2d2      	uxtb	r2, r2
 8020e7c:	701a      	strb	r2, [r3, #0]
 8020e7e:	781a      	ldrb	r2, [r3, #0]
 8020e80:	b2d2      	uxtb	r2, r2
 8020e82:	f88d 2007 	strb.w	r2, [sp, #7]
 8020e86:	f89d 2007 	ldrb.w	r2, [sp, #7]
 8020e8a:	07d2      	lsls	r2, r2, #31
 8020e8c:	d4f7      	bmi.n	8020e7e <EnableSyncManChannel+0x16>
 8020e8e:	b002      	add	sp, #8
 8020e90:	4770      	bx	lr
 8020e92:	bf00      	nop
 8020e94:	54010807 	.word	0x54010807

08020e98 <CheckSmSettings>:
 8020e98:	4b5e      	ldr	r3, [pc, #376]	; (8021014 <CheckSmSettings+0x17c>)
 8020e9a:	881a      	ldrh	r2, [r3, #0]
 8020e9c:	f642 73fe 	movw	r3, #12286	; 0x2ffe
 8020ea0:	429a      	cmp	r2, r3
 8020ea2:	b570      	push	{r4, r5, r6, lr}
 8020ea4:	4605      	mov	r5, r0
 8020ea6:	d91c      	bls.n	8020ee2 <CheckSmSettings+0x4a>
 8020ea8:	2000      	movs	r0, #0
 8020eaa:	f7ff ffb7 	bl	8020e1c <GetSyncMan>
 8020eae:	7981      	ldrb	r1, [r0, #6]
 8020eb0:	8842      	ldrh	r2, [r0, #2]
 8020eb2:	8803      	ldrh	r3, [r0, #0]
 8020eb4:	07ce      	lsls	r6, r1, #31
 8020eb6:	f140 80a5 	bpl.w	8021004 <CheckSmSettings+0x16c>
 8020eba:	7901      	ldrb	r1, [r0, #4]
 8020ebc:	f001 000c 	and.w	r0, r1, #12
 8020ec0:	2804      	cmp	r0, #4
 8020ec2:	f040 809f 	bne.w	8021004 <CheckSmSettings+0x16c>
 8020ec6:	078c      	lsls	r4, r1, #30
 8020ec8:	f140 809c 	bpl.w	8021004 <CheckSmSettings+0x16c>
 8020ecc:	3a24      	subs	r2, #36	; 0x24
 8020ece:	2a5c      	cmp	r2, #92	; 0x5c
 8020ed0:	f200 8098 	bhi.w	8021004 <CheckSmSettings+0x16c>
 8020ed4:	f5a3 5380 	sub.w	r3, r3, #4096	; 0x1000
 8020ed8:	f5b3 5f00 	cmp.w	r3, #8192	; 0x2000
 8020edc:	f080 8092 	bcs.w	8021004 <CheckSmSettings+0x16c>
 8020ee0:	e001      	b.n	8020ee6 <CheckSmSettings+0x4e>
 8020ee2:	2414      	movs	r4, #20
 8020ee4:	e094      	b.n	8021010 <CheckSmSettings+0x178>
 8020ee6:	2001      	movs	r0, #1
 8020ee8:	f7ff ff98 	bl	8020e1c <GetSyncMan>
 8020eec:	7981      	ldrb	r1, [r0, #6]
 8020eee:	8843      	ldrh	r3, [r0, #2]
 8020ef0:	8802      	ldrh	r2, [r0, #0]
 8020ef2:	07c9      	lsls	r1, r1, #31
 8020ef4:	f140 8086 	bpl.w	8021004 <CheckSmSettings+0x16c>
 8020ef8:	7901      	ldrb	r1, [r0, #4]
 8020efa:	f011 040c 	ands.w	r4, r1, #12
 8020efe:	f040 8081 	bne.w	8021004 <CheckSmSettings+0x16c>
 8020f02:	0788      	lsls	r0, r1, #30
 8020f04:	d57e      	bpl.n	8021004 <CheckSmSettings+0x16c>
 8020f06:	3b24      	subs	r3, #36	; 0x24
 8020f08:	2b5c      	cmp	r3, #92	; 0x5c
 8020f0a:	d87b      	bhi.n	8021004 <CheckSmSettings+0x16c>
 8020f0c:	f5a2 5280 	sub.w	r2, r2, #4096	; 0x1000
 8020f10:	f5b2 5f00 	cmp.w	r2, #8192	; 0x2000
 8020f14:	d276      	bcs.n	8021004 <CheckSmSettings+0x16c>
 8020f16:	2d03      	cmp	r5, #3
 8020f18:	d965      	bls.n	8020fe6 <CheckSmSettings+0x14e>
 8020f1a:	4e3f      	ldr	r6, [pc, #252]	; (8021018 <CheckSmSettings+0x180>)
 8020f1c:	2301      	movs	r3, #1
 8020f1e:	2003      	movs	r0, #3
 8020f20:	7033      	strb	r3, [r6, #0]
 8020f22:	f7ff ff7b 	bl	8020e1c <GetSyncMan>
 8020f26:	7981      	ldrb	r1, [r0, #6]
 8020f28:	8842      	ldrh	r2, [r0, #2]
 8020f2a:	8803      	ldrh	r3, [r0, #0]
 8020f2c:	07c9      	lsls	r1, r1, #31
 8020f2e:	d51d      	bpl.n	8020f6c <CheckSmSettings+0xd4>
 8020f30:	1e51      	subs	r1, r2, #1
 8020f32:	2943      	cmp	r1, #67	; 0x43
 8020f34:	d868      	bhi.n	8021008 <CheckSmSettings+0x170>
 8020f36:	4939      	ldr	r1, [pc, #228]	; (802101c <CheckSmSettings+0x184>)
 8020f38:	8809      	ldrh	r1, [r1, #0]
 8020f3a:	4291      	cmp	r1, r2
 8020f3c:	d164      	bne.n	8021008 <CheckSmSettings+0x170>
 8020f3e:	7902      	ldrb	r2, [r0, #4]
 8020f40:	f012 0f0c 	tst.w	r2, #12
 8020f44:	d160      	bne.n	8021008 <CheckSmSettings+0x170>
 8020f46:	4936      	ldr	r1, [pc, #216]	; (8021020 <CheckSmSettings+0x188>)
 8020f48:	7809      	ldrb	r1, [r1, #0]
 8020f4a:	2902      	cmp	r1, #2
 8020f4c:	d105      	bne.n	8020f5a <CheckSmSettings+0xc2>
 8020f4e:	f5a3 5380 	sub.w	r3, r3, #4096	; 0x1000
 8020f52:	f5b3 5f00 	cmp.w	r3, #8192	; 0x2000
 8020f56:	d304      	bcc.n	8020f62 <CheckSmSettings+0xca>
 8020f58:	e056      	b.n	8021008 <CheckSmSettings+0x170>
 8020f5a:	4932      	ldr	r1, [pc, #200]	; (8021024 <CheckSmSettings+0x18c>)
 8020f5c:	8809      	ldrh	r1, [r1, #0]
 8020f5e:	4299      	cmp	r1, r3
 8020f60:	d152      	bne.n	8021008 <CheckSmSettings+0x170>
 8020f62:	0793      	lsls	r3, r2, #30
 8020f64:	d508      	bpl.n	8020f78 <CheckSmSettings+0xe0>
 8020f66:	2300      	movs	r3, #0
 8020f68:	7033      	strb	r3, [r6, #0]
 8020f6a:	e005      	b.n	8020f78 <CheckSmSettings+0xe0>
 8020f6c:	2a00      	cmp	r2, #0
 8020f6e:	d14b      	bne.n	8021008 <CheckSmSettings+0x170>
 8020f70:	4b2a      	ldr	r3, [pc, #168]	; (802101c <CheckSmSettings+0x184>)
 8020f72:	881b      	ldrh	r3, [r3, #0]
 8020f74:	2b00      	cmp	r3, #0
 8020f76:	d147      	bne.n	8021008 <CheckSmSettings+0x170>
 8020f78:	2002      	movs	r0, #2
 8020f7a:	f7ff ff4f 	bl	8020e1c <GetSyncMan>
 8020f7e:	7981      	ldrb	r1, [r0, #6]
 8020f80:	8842      	ldrh	r2, [r0, #2]
 8020f82:	8803      	ldrh	r3, [r0, #0]
 8020f84:	07ce      	lsls	r6, r1, #31
 8020f86:	d529      	bpl.n	8020fdc <CheckSmSettings+0x144>
 8020f88:	1e51      	subs	r1, r2, #1
 8020f8a:	2943      	cmp	r1, #67	; 0x43
 8020f8c:	d83e      	bhi.n	802100c <CheckSmSettings+0x174>
 8020f8e:	4926      	ldr	r1, [pc, #152]	; (8021028 <CheckSmSettings+0x190>)
 8020f90:	8809      	ldrh	r1, [r1, #0]
 8020f92:	4291      	cmp	r1, r2
 8020f94:	d13a      	bne.n	802100c <CheckSmSettings+0x174>
 8020f96:	7902      	ldrb	r2, [r0, #4]
 8020f98:	f002 010c 	and.w	r1, r2, #12
 8020f9c:	2904      	cmp	r1, #4
 8020f9e:	d135      	bne.n	802100c <CheckSmSettings+0x174>
 8020fa0:	491f      	ldr	r1, [pc, #124]	; (8021020 <CheckSmSettings+0x188>)
 8020fa2:	7809      	ldrb	r1, [r1, #0]
 8020fa4:	2902      	cmp	r1, #2
 8020fa6:	d105      	bne.n	8020fb4 <CheckSmSettings+0x11c>
 8020fa8:	f5a3 5380 	sub.w	r3, r3, #4096	; 0x1000
 8020fac:	f5b3 5f00 	cmp.w	r3, #8192	; 0x2000
 8020fb0:	d304      	bcc.n	8020fbc <CheckSmSettings+0x124>
 8020fb2:	e02b      	b.n	802100c <CheckSmSettings+0x174>
 8020fb4:	491d      	ldr	r1, [pc, #116]	; (802102c <CheckSmSettings+0x194>)
 8020fb6:	8809      	ldrh	r1, [r1, #0]
 8020fb8:	4299      	cmp	r1, r3
 8020fba:	d127      	bne.n	802100c <CheckSmSettings+0x174>
 8020fbc:	f002 0140 	and.w	r1, r2, #64	; 0x40
 8020fc0:	f001 00ff 	and.w	r0, r1, #255	; 0xff
 8020fc4:	4b1a      	ldr	r3, [pc, #104]	; (8021030 <CheckSmSettings+0x198>)
 8020fc6:	b111      	cbz	r1, 8020fce <CheckSmSettings+0x136>
 8020fc8:	2101      	movs	r1, #1
 8020fca:	7019      	strb	r1, [r3, #0]
 8020fcc:	e000      	b.n	8020fd0 <CheckSmSettings+0x138>
 8020fce:	7018      	strb	r0, [r3, #0]
 8020fd0:	0790      	lsls	r0, r2, #30
 8020fd2:	d50a      	bpl.n	8020fea <CheckSmSettings+0x152>
 8020fd4:	4b10      	ldr	r3, [pc, #64]	; (8021018 <CheckSmSettings+0x180>)
 8020fd6:	2200      	movs	r2, #0
 8020fd8:	701a      	strb	r2, [r3, #0]
 8020fda:	e006      	b.n	8020fea <CheckSmSettings+0x152>
 8020fdc:	b9b2      	cbnz	r2, 802100c <CheckSmSettings+0x174>
 8020fde:	4b12      	ldr	r3, [pc, #72]	; (8021028 <CheckSmSettings+0x190>)
 8020fe0:	881b      	ldrh	r3, [r3, #0]
 8020fe2:	b99b      	cbnz	r3, 802100c <CheckSmSettings+0x174>
 8020fe4:	e001      	b.n	8020fea <CheckSmSettings+0x152>
 8020fe6:	2d02      	cmp	r5, #2
 8020fe8:	d8c6      	bhi.n	8020f78 <CheckSmSettings+0xe0>
 8020fea:	4b12      	ldr	r3, [pc, #72]	; (8021034 <CheckSmSettings+0x19c>)
 8020fec:	781b      	ldrb	r3, [r3, #0]
 8020fee:	42ab      	cmp	r3, r5
 8020ff0:	d90e      	bls.n	8021010 <CheckSmSettings+0x178>
 8020ff2:	4628      	mov	r0, r5
 8020ff4:	f7ff ff12 	bl	8020e1c <GetSyncMan>
 8020ff8:	4b0f      	ldr	r3, [pc, #60]	; (8021038 <CheckSmSettings+0x1a0>)
 8020ffa:	7982      	ldrb	r2, [r0, #6]
 8020ffc:	701a      	strb	r2, [r3, #0]
 8020ffe:	3501      	adds	r5, #1
 8021000:	b2ed      	uxtb	r5, r5
 8021002:	e7f2      	b.n	8020fea <CheckSmSettings+0x152>
 8021004:	2016      	movs	r0, #22
 8021006:	e002      	b.n	802100e <CheckSmSettings+0x176>
 8021008:	201e      	movs	r0, #30
 802100a:	e000      	b.n	802100e <CheckSmSettings+0x176>
 802100c:	201d      	movs	r0, #29
 802100e:	4604      	mov	r4, r0
 8021010:	4620      	mov	r0, r4
 8021012:	bd70      	pop	{r4, r5, r6, pc}
 8021014:	1ffea5ee 	.word	0x1ffea5ee
 8021018:	1ffea5bc 	.word	0x1ffea5bc
 802101c:	1ffea5ea 	.word	0x1ffea5ea
 8021020:	1ffea5c1 	.word	0x1ffea5c1
 8021024:	1ffea602 	.word	0x1ffea602
 8021028:	1ffea5c2 	.word	0x1ffea5c2
 802102c:	1ffea5ce 	.word	0x1ffea5ce
 8021030:	1ffea5fc 	.word	0x1ffea5fc
 8021034:	1ffea600 	.word	0x1ffea600
 8021038:	1ffe94b0 	.word	0x1ffe94b0

0802103c <StartInputHandler>:
 802103c:	e92d 4ff7 	stmdb	sp!, {r0, r1, r2, r4, r5, r6, r7, r8, r9, sl, fp, lr}
 8021040:	4dab      	ldr	r5, [pc, #684]	; (80212f0 <StartInputHandler+0x2b4>)
 8021042:	4aac      	ldr	r2, [pc, #688]	; (80212f4 <StartInputHandler+0x2b8>)
 8021044:	4cac      	ldr	r4, [pc, #688]	; (80212f8 <StartInputHandler+0x2bc>)
 8021046:	4fad      	ldr	r7, [pc, #692]	; (80212fc <StartInputHandler+0x2c0>)
 8021048:	f8b4 900c 	ldrh.w	r9, [r4, #12]
 802104c:	f8b7 a00c 	ldrh.w	sl, [r7, #12]
 8021050:	2300      	movs	r3, #0
 8021052:	2002      	movs	r0, #2
 8021054:	802b      	strh	r3, [r5, #0]
 8021056:	7013      	strb	r3, [r2, #0]
 8021058:	f7ff fee0 	bl	8020e1c <GetSyncMan>
 802105c:	7841      	ldrb	r1, [r0, #1]
 802105e:	7803      	ldrb	r3, [r0, #0]
 8021060:	4aa7      	ldr	r2, [pc, #668]	; (8021300 <StartInputHandler+0x2c4>)
 8021062:	ea43 2301 	orr.w	r3, r3, r1, lsl #8
 8021066:	8013      	strh	r3, [r2, #0]
 8021068:	7903      	ldrb	r3, [r0, #4]
 802106a:	2003      	movs	r0, #3
 802106c:	f013 0f02 	tst.w	r3, #2
 8021070:	4693      	mov	fp, r2
 8021072:	bf0c      	ite	eq
 8021074:	2603      	moveq	r6, #3
 8021076:	2601      	movne	r6, #1
 8021078:	f7ff fed0 	bl	8020e1c <GetSyncMan>
 802107c:	4aa1      	ldr	r2, [pc, #644]	; (8021304 <StartInputHandler+0x2c8>)
 802107e:	8803      	ldrh	r3, [r0, #0]
 8021080:	49a1      	ldr	r1, [pc, #644]	; (8021308 <StartInputHandler+0x2cc>)
 8021082:	8013      	strh	r3, [r2, #0]
 8021084:	7902      	ldrb	r2, [r0, #4]
 8021086:	48a1      	ldr	r0, [pc, #644]	; (802130c <StartInputHandler+0x2d0>)
 8021088:	9101      	str	r1, [sp, #4]
 802108a:	f012 0f02 	tst.w	r2, #2
 802108e:	46a8      	mov	r8, r5
 8021090:	880d      	ldrh	r5, [r1, #0]
 8021092:	8800      	ldrh	r0, [r0, #0]
 8021094:	bf0c      	ite	eq
 8021096:	2203      	moveq	r2, #3
 8021098:	2201      	movne	r2, #1
 802109a:	fb02 3205 	mla	r2, r2, r5, r3
 802109e:	4282      	cmp	r2, r0
 80210a0:	dd05      	ble.n	80210ae <StartInputHandler+0x72>
 80210a2:	499b      	ldr	r1, [pc, #620]	; (8021310 <StartInputHandler+0x2d4>)
 80210a4:	8809      	ldrh	r1, [r1, #0]
 80210a6:	4401      	add	r1, r0
 80210a8:	428b      	cmp	r3, r1
 80210aa:	f2c0 81f1 	blt.w	8021490 <StartInputHandler+0x454>
 80210ae:	4999      	ldr	r1, [pc, #612]	; (8021314 <StartInputHandler+0x2d8>)
 80210b0:	8809      	ldrh	r1, [r1, #0]
 80210b2:	428a      	cmp	r2, r1
 80210b4:	dd05      	ble.n	80210c2 <StartInputHandler+0x86>
 80210b6:	4a98      	ldr	r2, [pc, #608]	; (8021318 <StartInputHandler+0x2dc>)
 80210b8:	8812      	ldrh	r2, [r2, #0]
 80210ba:	440a      	add	r2, r1
 80210bc:	4293      	cmp	r3, r2
 80210be:	f2c0 81e7 	blt.w	8021490 <StartInputHandler+0x454>
 80210c2:	f8df e268 	ldr.w	lr, [pc, #616]	; 802132c <StartInputHandler+0x2f0>
 80210c6:	f8bb 2000 	ldrh.w	r2, [fp]
 80210ca:	f8be e000 	ldrh.w	lr, [lr]
 80210ce:	fb06 260e 	mla	r6, r6, lr, r2
 80210d2:	4286      	cmp	r6, r0
 80210d4:	dd07      	ble.n	80210e6 <StartInputHandler+0xaa>
 80210d6:	f8df c238 	ldr.w	ip, [pc, #568]	; 8021310 <StartInputHandler+0x2d4>
 80210da:	f8bc c000 	ldrh.w	ip, [ip]
 80210de:	4460      	add	r0, ip
 80210e0:	4282      	cmp	r2, r0
 80210e2:	f2c0 81d7 	blt.w	8021494 <StartInputHandler+0x458>
 80210e6:	428e      	cmp	r6, r1
 80210e8:	dd05      	ble.n	80210f6 <StartInputHandler+0xba>
 80210ea:	488b      	ldr	r0, [pc, #556]	; (8021318 <StartInputHandler+0x2dc>)
 80210ec:	8800      	ldrh	r0, [r0, #0]
 80210ee:	4401      	add	r1, r0
 80210f0:	428a      	cmp	r2, r1
 80210f2:	f2c0 81cf 	blt.w	8021494 <StartInputHandler+0x458>
 80210f6:	429e      	cmp	r6, r3
 80210f8:	dd03      	ble.n	8021102 <StartInputHandler+0xc6>
 80210fa:	442b      	add	r3, r5
 80210fc:	429a      	cmp	r2, r3
 80210fe:	f2c0 81c9 	blt.w	8021494 <StartInputHandler+0x458>
 8021102:	4b86      	ldr	r3, [pc, #536]	; (802131c <StartInputHandler+0x2e0>)
 8021104:	4a86      	ldr	r2, [pc, #536]	; (8021320 <StartInputHandler+0x2e4>)
 8021106:	781e      	ldrb	r6, [r3, #0]
 8021108:	8878      	ldrh	r0, [r7, #2]
 802110a:	b2f6      	uxtb	r6, r6
 802110c:	331f      	adds	r3, #31
 802110e:	f016 0b09 	ands.w	fp, r6, #9
 8021112:	681b      	ldr	r3, [r3, #0]
 8021114:	6811      	ldr	r1, [r2, #0]
 8021116:	8862      	ldrh	r2, [r4, #2]
 8021118:	d025      	beq.n	8021166 <StartInputHandler+0x12a>
 802111a:	f016 0f02 	tst.w	r6, #2
 802111e:	f000 81c1 	beq.w	80214a4 <StartInputHandler+0x468>
 8021122:	ea1a 0909 	ands.w	r9, sl, r9
 8021126:	d00a      	beq.n	802113e <StartInputHandler+0x102>
 8021128:	f019 0f04 	tst.w	r9, #4
 802112c:	f000 81ba 	beq.w	80214a4 <StartInputHandler+0x468>
 8021130:	f019 0f08 	tst.w	r9, #8
 8021134:	d103      	bne.n	802113e <StartInputHandler+0x102>
 8021136:	f016 0f04 	tst.w	r6, #4
 802113a:	f040 81b3 	bne.w	80214a4 <StartInputHandler+0x468>
 802113e:	f8d4 c010 	ldr.w	ip, [r4, #16]
 8021142:	b13b      	cbz	r3, 8021154 <StartInputHandler+0x118>
 8021144:	4563      	cmp	r3, ip
 8021146:	f0c0 81a7 	bcc.w	8021498 <StartInputHandler+0x45c>
 802114a:	f8df c1e4 	ldr.w	ip, [pc, #484]	; 8021330 <StartInputHandler+0x2f4>
 802114e:	4563      	cmp	r3, ip
 8021150:	f200 81a2 	bhi.w	8021498 <StartInputHandler+0x45c>
 8021154:	f006 0c06 	and.w	ip, r6, #6
 8021158:	f1bc 0f06 	cmp.w	ip, #6
 802115c:	d103      	bne.n	8021166 <StartInputHandler+0x12a>
 802115e:	b129      	cbz	r1, 802116c <StartInputHandler+0x130>
 8021160:	4299      	cmp	r1, r3
 8021162:	f080 81a1 	bcs.w	80214a8 <StartInputHandler+0x46c>
 8021166:	f04f 0c00 	mov.w	ip, #0
 802116a:	e000      	b.n	802116e <StartInputHandler+0x132>
 802116c:	468c      	mov	ip, r1
 802116e:	f8df 91c4 	ldr.w	r9, [pc, #452]	; 8021334 <StartInputHandler+0x2f8>
 8021172:	f899 9000 	ldrb.w	r9, [r9]
 8021176:	f1b9 0f00 	cmp.w	r9, #0
 802117a:	d021      	beq.n	80211c0 <StartInputHandler+0x184>
 802117c:	f1bb 0f00 	cmp.w	fp, #0
 8021180:	d10b      	bne.n	802119a <StartInputHandler+0x15e>
 8021182:	f1a2 0902 	sub.w	r9, r2, #2
 8021186:	f1b9 0f01 	cmp.w	r9, #1
 802118a:	f240 818b 	bls.w	80214a4 <StartInputHandler+0x468>
 802118e:	f1a0 0902 	sub.w	r9, r0, #2
 8021192:	f1b9 0f01 	cmp.w	r9, #1
 8021196:	d844      	bhi.n	8021222 <StartInputHandler+0x1e6>
 8021198:	e184      	b.n	80214a4 <StartInputHandler+0x468>
 802119a:	f016 0f04 	tst.w	r6, #4
 802119e:	d105      	bne.n	80211ac <StartInputHandler+0x170>
 80211a0:	2a03      	cmp	r2, #3
 80211a2:	f000 817f 	beq.w	80214a4 <StartInputHandler+0x468>
 80211a6:	2803      	cmp	r0, #3
 80211a8:	f000 817c 	beq.w	80214a4 <StartInputHandler+0x468>
 80211ac:	f016 0f02 	tst.w	r6, #2
 80211b0:	d128      	bne.n	8021204 <StartInputHandler+0x1c8>
 80211b2:	2a02      	cmp	r2, #2
 80211b4:	f000 8176 	beq.w	80214a4 <StartInputHandler+0x468>
 80211b8:	2802      	cmp	r0, #2
 80211ba:	f040 817b 	bne.w	80214b4 <StartInputHandler+0x478>
 80211be:	e171      	b.n	80214a4 <StartInputHandler+0x468>
 80211c0:	f1bb 0f00 	cmp.w	fp, #0
 80211c4:	d10d      	bne.n	80211e2 <StartInputHandler+0x1a6>
 80211c6:	f1be 0f00 	cmp.w	lr, #0
 80211ca:	d005      	beq.n	80211d8 <StartInputHandler+0x19c>
 80211cc:	2d00      	cmp	r5, #0
 80211ce:	bf14      	ite	ne
 80211d0:	2022      	movne	r0, #34	; 0x22
 80211d2:	2000      	moveq	r0, #0
 80211d4:	2201      	movs	r2, #1
 80211d6:	e024      	b.n	8021222 <StartInputHandler+0x1e6>
 80211d8:	1c28      	adds	r0, r5, #0
 80211da:	bf18      	it	ne
 80211dc:	2001      	movne	r0, #1
 80211de:	4672      	mov	r2, lr
 80211e0:	e01f      	b.n	8021222 <StartInputHandler+0x1e6>
 80211e2:	f1be 0f00 	cmp.w	lr, #0
 80211e6:	f000 8170 	beq.w	80214ca <StartInputHandler+0x48e>
 80211ea:	f1bc 0f00 	cmp.w	ip, #0
 80211ee:	f000 8167 	beq.w	80214c0 <StartInputHandler+0x484>
 80211f2:	2d00      	cmp	r5, #0
 80211f4:	f000 8162 	beq.w	80214bc <StartInputHandler+0x480>
 80211f8:	2203      	movs	r2, #3
 80211fa:	f016 0f04 	tst.w	r6, #4
 80211fe:	bf14      	ite	ne
 8021200:	2003      	movne	r0, #3
 8021202:	2002      	moveq	r0, #2
 8021204:	2a03      	cmp	r2, #3
 8021206:	d105      	bne.n	8021214 <StartInputHandler+0x1d8>
 8021208:	6263      	str	r3, [r4, #36]	; 0x24
 802120a:	6063      	str	r3, [r4, #4]
 802120c:	627b      	str	r3, [r7, #36]	; 0x24
 802120e:	607b      	str	r3, [r7, #4]
 8021210:	2203      	movs	r2, #3
 8021212:	e006      	b.n	8021222 <StartInputHandler+0x1e6>
 8021214:	2a02      	cmp	r2, #2
 8021216:	d104      	bne.n	8021222 <StartInputHandler+0x1e6>
 8021218:	6263      	str	r3, [r4, #36]	; 0x24
 802121a:	6063      	str	r3, [r4, #4]
 802121c:	627b      	str	r3, [r7, #36]	; 0x24
 802121e:	607b      	str	r3, [r7, #4]
 8021220:	2202      	movs	r2, #2
 8021222:	f8df 9114 	ldr.w	r9, [pc, #276]	; 8021338 <StartInputHandler+0x2fc>
 8021226:	f899 9000 	ldrb.w	r9, [r9]
 802122a:	f1b9 0f00 	cmp.w	r9, #0
 802122e:	d106      	bne.n	802123e <StartInputHandler+0x202>
 8021230:	2a00      	cmp	r2, #0
 8021232:	f000 8133 	beq.w	802149c <StartInputHandler+0x460>
 8021236:	2800      	cmp	r0, #0
 8021238:	f000 8130 	beq.w	802149c <StartInputHandler+0x460>
 802123c:	e001      	b.n	8021242 <StartInputHandler+0x206>
 802123e:	b902      	cbnz	r2, 8021242 <StartInputHandler+0x206>
 8021240:	b128      	cbz	r0, 802124e <StartInputHandler+0x212>
 8021242:	f8df 90f8 	ldr.w	r9, [pc, #248]	; 802133c <StartInputHandler+0x300>
 8021246:	f04f 0a01 	mov.w	sl, #1
 802124a:	f889 a000 	strb.w	sl, [r9]
 802124e:	f8df 90ec 	ldr.w	r9, [pc, #236]	; 802133c <StartInputHandler+0x300>
 8021252:	f899 9000 	ldrb.w	r9, [r9]
 8021256:	f1b9 0f00 	cmp.w	r9, #0
 802125a:	d00a      	beq.n	8021272 <StartInputHandler+0x236>
 802125c:	f1be 0f00 	cmp.w	lr, #0
 8021260:	d002      	beq.n	8021268 <StartInputHandler+0x22c>
 8021262:	f44f 6580 	mov.w	r5, #1024	; 0x400
 8021266:	e002      	b.n	802126e <StartInputHandler+0x232>
 8021268:	b11d      	cbz	r5, 8021272 <StartInputHandler+0x236>
 802126a:	f44f 6500 	mov.w	r5, #2048	; 0x800
 802126e:	f8a8 5000 	strh.w	r5, [r8]
 8021272:	1e95      	subs	r5, r2, #2
 8021274:	2d01      	cmp	r5, #1
 8021276:	d902      	bls.n	802127e <StartInputHandler+0x242>
 8021278:	1e85      	subs	r5, r0, #2
 802127a:	2d01      	cmp	r5, #1
 802127c:	d809      	bhi.n	8021292 <StartInputHandler+0x256>
 802127e:	4d29      	ldr	r5, [pc, #164]	; (8021324 <StartInputHandler+0x2e8>)
 8021280:	f04f 0901 	mov.w	r9, #1
 8021284:	f885 9000 	strb.w	r9, [r5]
 8021288:	f1be 0f00 	cmp.w	lr, #0
 802128c:	d101      	bne.n	8021292 <StartInputHandler+0x256>
 802128e:	f8a8 e000 	strh.w	lr, [r8]
 8021292:	f8df 90ac 	ldr.w	r9, [pc, #172]	; 8021340 <StartInputHandler+0x304>
 8021296:	4d24      	ldr	r5, [pc, #144]	; (8021328 <StartInputHandler+0x2ec>)
 8021298:	f8df b0a8 	ldr.w	fp, [pc, #168]	; 8021344 <StartInputHandler+0x308>
 802129c:	8062      	strh	r2, [r4, #2]
 802129e:	f04f 0a00 	mov.w	sl, #0
 80212a2:	f8a9 a000 	strh.w	sl, [r9]
 80212a6:	f8df 90a0 	ldr.w	r9, [pc, #160]	; 8021348 <StartInputHandler+0x30c>
 80212aa:	8078      	strh	r0, [r7, #2]
 80212ac:	f8a5 a000 	strh.w	sl, [r5]
 80212b0:	f8a9 a000 	strh.w	sl, [r9]
 80212b4:	f8ab a000 	strh.w	sl, [fp]
 80212b8:	f1bc 0f00 	cmp.w	ip, #0
 80212bc:	d046      	beq.n	802134c <StartInputHandler+0x310>
 80212be:	4299      	cmp	r1, r3
 80212c0:	eb01 0c03 	add.w	ip, r1, r3
 80212c4:	fbbc f2f3 	udiv	r2, ip, r3
 80212c8:	d307      	bcc.n	80212da <StartInputHandler+0x29e>
 80212ca:	fb03 ca12 	mls	sl, r3, r2, ip
 80212ce:	b290      	uxth	r0, r2
 80212d0:	f1ba 0f00 	cmp.w	sl, #0
 80212d4:	d102      	bne.n	80212dc <StartInputHandler+0x2a0>
 80212d6:	3001      	adds	r0, #1
 80212d8:	e000      	b.n	80212dc <StartInputHandler+0x2a0>
 80212da:	2001      	movs	r0, #1
 80212dc:	f8a9 0000 	strh.w	r0, [r9]
 80212e0:	b290      	uxth	r0, r2
 80212e2:	fb03 c212 	mls	r2, r3, r2, ip
 80212e6:	b102      	cbz	r2, 80212ea <StartInputHandler+0x2ae>
 80212e8:	3001      	adds	r0, #1
 80212ea:	8028      	strh	r0, [r5, #0]
 80212ec:	e037      	b.n	802135e <StartInputHandler+0x322>
 80212ee:	bf00      	nop
 80212f0:	1ffea5da 	.word	0x1ffea5da
 80212f4:	1ffea5f0 	.word	0x1ffea5f0
 80212f8:	1ffea6dc 	.word	0x1ffea6dc
 80212fc:	1ffea698 	.word	0x1ffea698
 8021300:	1ffea5ce 	.word	0x1ffea5ce
 8021304:	1ffea602 	.word	0x1ffea602
 8021308:	1ffea5ea 	.word	0x1ffea5ea
 802130c:	1ffea686 	.word	0x1ffea686
 8021310:	1ffea67c 	.word	0x1ffea67c
 8021314:	1ffea674 	.word	0x1ffea674
 8021318:	1ffea68e 	.word	0x1ffea68e
 802131c:	54010981 	.word	0x54010981
 8021320:	540109a4 	.word	0x540109a4
 8021324:	1ffea5f4 	.word	0x1ffea5f4
 8021328:	1ffea5e6 	.word	0x1ffea5e6
 802132c:	1ffea5c2 	.word	0x1ffea5c2
 8021330:	c3500000 	.word	0xc3500000
 8021334:	1ffea720 	.word	0x1ffea720
 8021338:	1ffea5bc 	.word	0x1ffea5bc
 802133c:	1ffea5fb 	.word	0x1ffea5fb
 8021340:	1ffea5ca 	.word	0x1ffea5ca
 8021344:	1ffea5fe 	.word	0x1ffea5fe
 8021348:	1ffea5ec 	.word	0x1ffea5ec
 802134c:	2a02      	cmp	r2, #2
 802134e:	bf04      	itt	eq
 8021350:	2201      	moveq	r2, #1
 8021352:	f8a9 2000 	strheq.w	r2, [r9]
 8021356:	2803      	cmp	r0, #3
 8021358:	bf1c      	itt	ne
 802135a:	2201      	movne	r2, #1
 802135c:	802a      	strhne	r2, [r5, #0]
 802135e:	4a5f      	ldr	r2, [pc, #380]	; (80214dc <StartInputHandler+0x4a0>)
 8021360:	4d5f      	ldr	r5, [pc, #380]	; (80214e0 <StartInputHandler+0x4a4>)
 8021362:	2000      	movs	r0, #0
 8021364:	8010      	strh	r0, [r2, #0]
 8021366:	4a5f      	ldr	r2, [pc, #380]	; (80214e4 <StartInputHandler+0x4a8>)
 8021368:	8810      	ldrh	r0, [r2, #0]
 802136a:	b280      	uxth	r0, r0
 802136c:	f1be 0f00 	cmp.w	lr, #0
 8021370:	d00e      	beq.n	8021390 <StartInputHandler+0x354>
 8021372:	b168      	cbz	r0, 8021390 <StartInputHandler+0x354>
 8021374:	3a20      	subs	r2, #32
 8021376:	8812      	ldrh	r2, [r2, #0]
 8021378:	b292      	uxth	r2, r2
 802137a:	b14a      	cbz	r2, 8021390 <StartInputHandler+0x354>
 802137c:	3202      	adds	r2, #2
 802137e:	4342      	muls	r2, r0
 8021380:	f502 42c3 	add.w	r2, r2, #24960	; 0x6180
 8021384:	3227      	adds	r2, #39	; 0x27
 8021386:	f246 10a8 	movw	r0, #25000	; 0x61a8
 802138a:	fbb2 f2f0 	udiv	r2, r2, r0
 802138e:	e000      	b.n	8021392 <StartInputHandler+0x356>
 8021390:	2200      	movs	r2, #0
 8021392:	802a      	strh	r2, [r5, #0]
 8021394:	8828      	ldrh	r0, [r5, #0]
 8021396:	4a54      	ldr	r2, [pc, #336]	; (80214e8 <StartInputHandler+0x4ac>)
 8021398:	7812      	ldrb	r2, [r2, #0]
 802139a:	b910      	cbnz	r0, 80213a2 <StartInputHandler+0x366>
 802139c:	2a00      	cmp	r2, #0
 802139e:	d17f      	bne.n	80214a0 <StartInputHandler+0x464>
 80213a0:	e001      	b.n	80213a6 <StartInputHandler+0x36a>
 80213a2:	2a00      	cmp	r2, #0
 80213a4:	d07c      	beq.n	80214a0 <StartInputHandler+0x464>
 80213a6:	4a51      	ldr	r2, [pc, #324]	; (80214ec <StartInputHandler+0x4b0>)
 80213a8:	7812      	ldrb	r2, [r2, #0]
 80213aa:	b142      	cbz	r2, 80213be <StartInputHandler+0x382>
 80213ac:	f1be 0f00 	cmp.w	lr, #0
 80213b0:	d005      	beq.n	80213be <StartInputHandler+0x382>
 80213b2:	f8b8 2000 	ldrh.w	r2, [r8]
 80213b6:	f442 6280 	orr.w	r2, r2, #1024	; 0x400
 80213ba:	f8a8 2000 	strh.w	r2, [r8]
 80213be:	484c      	ldr	r0, [pc, #304]	; (80214f0 <StartInputHandler+0x4b4>)
 80213c0:	f8df c144 	ldr.w	ip, [pc, #324]	; 8021508 <StartInputHandler+0x4cc>
 80213c4:	4d4b      	ldr	r5, [pc, #300]	; (80214f4 <StartInputHandler+0x4b8>)
 80213c6:	2200      	movs	r2, #0
 80213c8:	8002      	strh	r2, [r0, #0]
 80213ca:	f88c 2000 	strb.w	r2, [ip]
 80213ce:	484a      	ldr	r0, [pc, #296]	; (80214f8 <StartInputHandler+0x4bc>)
 80213d0:	f8df c138 	ldr.w	ip, [pc, #312]	; 802150c <StartInputHandler+0x4d0>
 80213d4:	8002      	strh	r2, [r0, #0]
 80213d6:	f88c 2000 	strb.w	r2, [ip]
 80213da:	4848      	ldr	r0, [pc, #288]	; (80214fc <StartInputHandler+0x4c0>)
 80213dc:	f8df c130 	ldr.w	ip, [pc, #304]	; 8021510 <StartInputHandler+0x4d4>
 80213e0:	802a      	strh	r2, [r5, #0]
 80213e2:	f8ac 2000 	strh.w	r2, [ip]
 80213e6:	8002      	strh	r2, [r0, #0]
 80213e8:	4a45      	ldr	r2, [pc, #276]	; (8021500 <StartInputHandler+0x4c4>)
 80213ea:	7812      	ldrb	r2, [r2, #0]
 80213ec:	b2d2      	uxtb	r2, r2
 80213ee:	f012 0f08 	tst.w	r2, #8
 80213f2:	bf1e      	ittt	ne
 80213f4:	f8b8 c000 	ldrhne.w	ip, [r8]
 80213f8:	f04c 0c04 	orrne.w	ip, ip, #4
 80213fc:	f8a8 c000 	strhne.w	ip, [r8]
 8021400:	0612      	lsls	r2, r2, #24
 8021402:	bf42      	ittt	mi
 8021404:	f8b8 2000 	ldrhmi.w	r2, [r8]
 8021408:	f042 0208 	orrmi.w	r2, r2, #8
 802140c:	f8a8 2000 	strhmi.w	r2, [r8]
 8021410:	2200      	movs	r2, #0
 8021412:	8522      	strh	r2, [r4, #40]	; 0x28
 8021414:	8562      	strh	r2, [r4, #42]	; 0x2a
 8021416:	f884 2040 	strb.w	r2, [r4, #64]	; 0x40
 802141a:	07b4      	lsls	r4, r6, #30
 802141c:	853a      	strh	r2, [r7, #40]	; 0x28
 802141e:	857a      	strh	r2, [r7, #42]	; 0x2a
 8021420:	f887 2040 	strb.w	r2, [r7, #64]	; 0x40
 8021424:	d524      	bpl.n	8021470 <StartInputHandler+0x434>
 8021426:	b163      	cbz	r3, 8021442 <StartInputHandler+0x406>
 8021428:	4a36      	ldr	r2, [pc, #216]	; (8021504 <StartInputHandler+0x4c8>)
 802142a:	fbb3 f2f2 	udiv	r2, r3, r2
 802142e:	2a04      	cmp	r2, #4
 8021430:	bf85      	ittet	hi
 8021432:	0052      	lslhi	r2, r2, #1
 8021434:	b292      	uxthhi	r2, r2
 8021436:	2201      	movls	r2, #1
 8021438:	240a      	movhi	r4, #10
 802143a:	bf88      	it	hi
 802143c:	fbb2 f2f4 	udivhi	r2, r2, r4
 8021440:	802a      	strh	r2, [r5, #0]
 8021442:	0772      	lsls	r2, r6, #29
 8021444:	d514      	bpl.n	8021470 <StartInputHandler+0x434>
 8021446:	4299      	cmp	r1, r3
 8021448:	d201      	bcs.n	802144e <StartInputHandler+0x412>
 802144a:	882b      	ldrh	r3, [r5, #0]
 802144c:	e00f      	b.n	802146e <StartInputHandler+0x432>
 802144e:	440b      	add	r3, r1
 8021450:	492c      	ldr	r1, [pc, #176]	; (8021504 <StartInputHandler+0x4c8>)
 8021452:	fbb3 f3f1 	udiv	r3, r3, r1
 8021456:	2b04      	cmp	r3, #4
 8021458:	bf89      	itett	hi
 802145a:	005b      	lslhi	r3, r3, #1
 802145c:	2301      	movls	r3, #1
 802145e:	210a      	movhi	r1, #10
 8021460:	fbb3 f3f1 	udivhi	r3, r3, r1
 8021464:	8003      	strh	r3, [r0, #0]
 8021466:	882a      	ldrh	r2, [r5, #0]
 8021468:	8803      	ldrh	r3, [r0, #0]
 802146a:	eb03 0352 	add.w	r3, r3, r2, lsr #1
 802146e:	8003      	strh	r3, [r0, #0]
 8021470:	f1be 0f00 	cmp.w	lr, #0
 8021474:	d002      	beq.n	802147c <StartInputHandler+0x440>
 8021476:	2002      	movs	r0, #2
 8021478:	f7ff fcf6 	bl	8020e68 <EnableSyncManChannel>
 802147c:	9b01      	ldr	r3, [sp, #4]
 802147e:	881b      	ldrh	r3, [r3, #0]
 8021480:	b113      	cbz	r3, 8021488 <StartInputHandler+0x44c>
 8021482:	2003      	movs	r0, #3
 8021484:	f7ff fcf0 	bl	8020e68 <EnableSyncManChannel>
 8021488:	f7ff f8f6 	bl	8020678 <PDO_InputMapping>
 802148c:	2000      	movs	r0, #0
 802148e:	e022      	b.n	80214d6 <StartInputHandler+0x49a>
 8021490:	201e      	movs	r0, #30
 8021492:	e020      	b.n	80214d6 <StartInputHandler+0x49a>
 8021494:	201d      	movs	r0, #29
 8021496:	e01e      	b.n	80214d6 <StartInputHandler+0x49a>
 8021498:	2036      	movs	r0, #54	; 0x36
 802149a:	e01c      	b.n	80214d6 <StartInputHandler+0x49a>
 802149c:	2029      	movs	r0, #41	; 0x29
 802149e:	e01a      	b.n	80214d6 <StartInputHandler+0x49a>
 80214a0:	201f      	movs	r0, #31
 80214a2:	e018      	b.n	80214d6 <StartInputHandler+0x49a>
 80214a4:	2030      	movs	r0, #48	; 0x30
 80214a6:	e016      	b.n	80214d6 <StartInputHandler+0x49a>
 80214a8:	f019 0f10 	tst.w	r9, #16
 80214ac:	d0fa      	beq.n	80214a4 <StartInputHandler+0x468>
 80214ae:	f04f 0c01 	mov.w	ip, #1
 80214b2:	e65c      	b.n	802116e <StartInputHandler+0x132>
 80214b4:	2a03      	cmp	r2, #3
 80214b6:	f43f aea7 	beq.w	8021208 <StartInputHandler+0x1cc>
 80214ba:	e6b2      	b.n	8021222 <StartInputHandler+0x1e6>
 80214bc:	4628      	mov	r0, r5
 80214be:	e6a3      	b.n	8021208 <StartInputHandler+0x1cc>
 80214c0:	b10d      	cbz	r5, 80214c6 <StartInputHandler+0x48a>
 80214c2:	2202      	movs	r2, #2
 80214c4:	e699      	b.n	80211fa <StartInputHandler+0x1be>
 80214c6:	4628      	mov	r0, r5
 80214c8:	e6a6      	b.n	8021218 <StartInputHandler+0x1dc>
 80214ca:	b10d      	cbz	r5, 80214d0 <StartInputHandler+0x494>
 80214cc:	4672      	mov	r2, lr
 80214ce:	e694      	b.n	80211fa <StartInputHandler+0x1be>
 80214d0:	4628      	mov	r0, r5
 80214d2:	462a      	mov	r2, r5
 80214d4:	e6a5      	b.n	8021222 <StartInputHandler+0x1e6>
 80214d6:	b003      	add	sp, #12
 80214d8:	e8bd 8ff0 	ldmia.w	sp!, {r4, r5, r6, r7, r8, r9, sl, fp, pc}
 80214dc:	1ffea722 	.word	0x1ffea722
 80214e0:	1ffea5f8 	.word	0x1ffea5f8
 80214e4:	54010420 	.word	0x54010420
 80214e8:	1ffea5fc 	.word	0x1ffea5fc
 80214ec:	1ffea5fb 	.word	0x1ffea5fb
 80214f0:	1ffea5c8 	.word	0x1ffea5c8
 80214f4:	1ffea5d0 	.word	0x1ffea5d0
 80214f8:	1ffea5f6 	.word	0x1ffea5f6
 80214fc:	1ffea5d6 	.word	0x1ffea5d6
 8021500:	54010151 	.word	0x54010151
 8021504:	000186a0 	.word	0x000186a0
 8021508:	1ffea5dc 	.word	0x1ffea5dc
 802150c:	1ffea5f1 	.word	0x1ffea5f1
 8021510:	1ffea5d4 	.word	0x1ffea5d4

08021514 <StartOutputHandler>:
 8021514:	4b10      	ldr	r3, [pc, #64]	; (8021558 <StartOutputHandler+0x44>)
 8021516:	781b      	ldrb	r3, [r3, #0]
 8021518:	f003 030f 	and.w	r3, r3, #15
 802151c:	1e5a      	subs	r2, r3, #1
 802151e:	2a01      	cmp	r2, #1
 8021520:	d903      	bls.n	802152a <StartOutputHandler+0x16>
 8021522:	2b04      	cmp	r3, #4
 8021524:	d001      	beq.n	802152a <StartOutputHandler+0x16>
 8021526:	2b08      	cmp	r3, #8
 8021528:	d102      	bne.n	8021530 <StartOutputHandler+0x1c>
 802152a:	4b0c      	ldr	r3, [pc, #48]	; (802155c <StartOutputHandler+0x48>)
 802152c:	8818      	ldrh	r0, [r3, #0]
 802152e:	4770      	bx	lr
 8021530:	4b0b      	ldr	r3, [pc, #44]	; (8021560 <StartOutputHandler+0x4c>)
 8021532:	781b      	ldrb	r3, [r3, #0]
 8021534:	b12b      	cbz	r3, 8021542 <StartOutputHandler+0x2e>
 8021536:	4b0b      	ldr	r3, [pc, #44]	; (8021564 <StartOutputHandler+0x50>)
 8021538:	22c8      	movs	r2, #200	; 0xc8
 802153a:	801a      	strh	r2, [r3, #0]
 802153c:	4b0a      	ldr	r3, [pc, #40]	; (8021568 <StartOutputHandler+0x54>)
 802153e:	2200      	movs	r2, #0
 8021540:	801a      	strh	r2, [r3, #0]
 8021542:	4a0a      	ldr	r2, [pc, #40]	; (802156c <StartOutputHandler+0x58>)
 8021544:	2300      	movs	r3, #0
 8021546:	8513      	strh	r3, [r2, #40]	; 0x28
 8021548:	f882 3040 	strb.w	r3, [r2, #64]	; 0x40
 802154c:	4a08      	ldr	r2, [pc, #32]	; (8021570 <StartOutputHandler+0x5c>)
 802154e:	20ff      	movs	r0, #255	; 0xff
 8021550:	8513      	strh	r3, [r2, #40]	; 0x28
 8021552:	f882 3040 	strb.w	r3, [r2, #64]	; 0x40
 8021556:	4770      	bx	lr
 8021558:	1ffea5c6 	.word	0x1ffea5c6
 802155c:	1ffea5c4 	.word	0x1ffea5c4
 8021560:	1ffea5f4 	.word	0x1ffea5f4
 8021564:	1ffea5d4 	.word	0x1ffea5d4
 8021568:	1ffea5cc 	.word	0x1ffea5cc
 802156c:	1ffea6dc 	.word	0x1ffea6dc
 8021570:	1ffea698 	.word	0x1ffea698

08021574 <StopOutputHandler>:
 8021574:	4a02      	ldr	r2, [pc, #8]	; (8021580 <StopOutputHandler+0xc>)
 8021576:	2300      	movs	r3, #0
 8021578:	7013      	strb	r3, [r2, #0]
 802157a:	4a02      	ldr	r2, [pc, #8]	; (8021584 <StopOutputHandler+0x10>)
 802157c:	7013      	strb	r3, [r2, #0]
 802157e:	4770      	bx	lr
 8021580:	1ffea5f0 	.word	0x1ffea5f0
 8021584:	1ffea5f5 	.word	0x1ffea5f5

08021588 <StopInputHandler>:
 8021588:	b508      	push	{r3, lr}
 802158a:	4b1f      	ldr	r3, [pc, #124]	; (8021608 <StopInputHandler+0x80>)
 802158c:	881b      	ldrh	r3, [r3, #0]
 802158e:	b113      	cbz	r3, 8021596 <StopInputHandler+0xe>
 8021590:	2002      	movs	r0, #2
 8021592:	f7ff fc51 	bl	8020e38 <DisableSyncManChannel>
 8021596:	4b1d      	ldr	r3, [pc, #116]	; (802160c <StopInputHandler+0x84>)
 8021598:	881b      	ldrh	r3, [r3, #0]
 802159a:	b113      	cbz	r3, 80215a2 <StopInputHandler+0x1a>
 802159c:	2003      	movs	r0, #3
 802159e:	f7ff fc4b 	bl	8020e38 <DisableSyncManChannel>
 80215a2:	f24f 30f3 	movw	r0, #62451	; 0xf3f3
 80215a6:	f7ff fc0b 	bl	8020dc0 <ResetALEventMask>
 80215aa:	4a19      	ldr	r2, [pc, #100]	; (8021610 <StopInputHandler+0x88>)
 80215ac:	2300      	movs	r3, #0
 80215ae:	7013      	strb	r3, [r2, #0]
 80215b0:	4a18      	ldr	r2, [pc, #96]	; (8021614 <StopInputHandler+0x8c>)
 80215b2:	7013      	strb	r3, [r2, #0]
 80215b4:	4a18      	ldr	r2, [pc, #96]	; (8021618 <StopInputHandler+0x90>)
 80215b6:	7013      	strb	r3, [r2, #0]
 80215b8:	4a18      	ldr	r2, [pc, #96]	; (802161c <StopInputHandler+0x94>)
 80215ba:	7013      	strb	r3, [r2, #0]
 80215bc:	4a18      	ldr	r2, [pc, #96]	; (8021620 <StopInputHandler+0x98>)
 80215be:	7013      	strb	r3, [r2, #0]
 80215c0:	4a18      	ldr	r2, [pc, #96]	; (8021624 <StopInputHandler+0x9c>)
 80215c2:	8013      	strh	r3, [r2, #0]
 80215c4:	4a18      	ldr	r2, [pc, #96]	; (8021628 <StopInputHandler+0xa0>)
 80215c6:	8013      	strh	r3, [r2, #0]
 80215c8:	4a18      	ldr	r2, [pc, #96]	; (802162c <StopInputHandler+0xa4>)
 80215ca:	8013      	strh	r3, [r2, #0]
 80215cc:	4a18      	ldr	r2, [pc, #96]	; (8021630 <StopInputHandler+0xa8>)
 80215ce:	8013      	strh	r3, [r2, #0]
 80215d0:	4a18      	ldr	r2, [pc, #96]	; (8021634 <StopInputHandler+0xac>)
 80215d2:	8013      	strh	r3, [r2, #0]
 80215d4:	4a18      	ldr	r2, [pc, #96]	; (8021638 <StopInputHandler+0xb0>)
 80215d6:	8013      	strh	r3, [r2, #0]
 80215d8:	4a18      	ldr	r2, [pc, #96]	; (802163c <StopInputHandler+0xb4>)
 80215da:	8013      	strh	r3, [r2, #0]
 80215dc:	4a18      	ldr	r2, [pc, #96]	; (8021640 <StopInputHandler+0xb8>)
 80215de:	8013      	strh	r3, [r2, #0]
 80215e0:	4a18      	ldr	r2, [pc, #96]	; (8021644 <StopInputHandler+0xbc>)
 80215e2:	8513      	strh	r3, [r2, #40]	; 0x28
 80215e4:	8553      	strh	r3, [r2, #42]	; 0x2a
 80215e6:	f882 3040 	strb.w	r3, [r2, #64]	; 0x40
 80215ea:	4a17      	ldr	r2, [pc, #92]	; (8021648 <StopInputHandler+0xc0>)
 80215ec:	8513      	strh	r3, [r2, #40]	; 0x28
 80215ee:	8553      	strh	r3, [r2, #42]	; 0x2a
 80215f0:	f882 3040 	strb.w	r3, [r2, #64]	; 0x40
 80215f4:	4a15      	ldr	r2, [pc, #84]	; (802164c <StopInputHandler+0xc4>)
 80215f6:	8013      	strh	r3, [r2, #0]
 80215f8:	4a15      	ldr	r2, [pc, #84]	; (8021650 <StopInputHandler+0xc8>)
 80215fa:	7013      	strb	r3, [r2, #0]
 80215fc:	4a15      	ldr	r2, [pc, #84]	; (8021654 <StopInputHandler+0xcc>)
 80215fe:	7013      	strb	r3, [r2, #0]
 8021600:	4a15      	ldr	r2, [pc, #84]	; (8021658 <StopInputHandler+0xd0>)
 8021602:	7013      	strb	r3, [r2, #0]
 8021604:	bd08      	pop	{r3, pc}
 8021606:	bf00      	nop
 8021608:	1ffea5c2 	.word	0x1ffea5c2
 802160c:	1ffea5ea 	.word	0x1ffea5ea
 8021610:	1ffea5f0 	.word	0x1ffea5f0
 8021614:	1ffea5fb 	.word	0x1ffea5fb
 8021618:	1ffea5f4 	.word	0x1ffea5f4
 802161c:	1ffea5dc 	.word	0x1ffea5dc
 8021620:	1ffea5f1 	.word	0x1ffea5f1
 8021624:	1ffea5ec 	.word	0x1ffea5ec
 8021628:	1ffea5fe 	.word	0x1ffea5fe
 802162c:	1ffea5d0 	.word	0x1ffea5d0
 8021630:	1ffea5c8 	.word	0x1ffea5c8
 8021634:	1ffea5f6 	.word	0x1ffea5f6
 8021638:	1ffea5d6 	.word	0x1ffea5d6
 802163c:	1ffea5e6 	.word	0x1ffea5e6
 8021640:	1ffea5ca 	.word	0x1ffea5ca
 8021644:	1ffea6dc 	.word	0x1ffea6dc
 8021648:	1ffea698 	.word	0x1ffea698
 802164c:	1ffea5d4 	.word	0x1ffea5d4
 8021650:	1ffea5fc 	.word	0x1ffea5fc
 8021654:	1ffea5fa 	.word	0x1ffea5fa
 8021658:	1ffea720 	.word	0x1ffea720

0802165c <SetALStatus>:
 802165c:	4b16      	ldr	r3, [pc, #88]	; (80216b8 <SetALStatus+0x5c>)
 802165e:	781a      	ldrb	r2, [r3, #0]
 8021660:	4282      	cmp	r2, r0
 8021662:	f64f 72ff 	movw	r2, #65535	; 0xffff
 8021666:	bf18      	it	ne
 8021668:	7018      	strbne	r0, [r3, #0]
 802166a:	4291      	cmp	r1, r2
 802166c:	bf1e      	ittt	ne
 802166e:	f102 42a8 	addne.w	r2, r2, #1409286144	; 0x54000000
 8021672:	f202 1235 	addwne	r2, r2, #309	; 0x135
 8021676:	8011      	strhne	r1, [r2, #0]
 8021678:	781a      	ldrb	r2, [r3, #0]
 802167a:	4b10      	ldr	r3, [pc, #64]	; (80216bc <SetALStatus+0x60>)
 802167c:	801a      	strh	r2, [r3, #0]
 802167e:	4b10      	ldr	r3, [pc, #64]	; (80216c0 <SetALStatus+0x64>)
 8021680:	b109      	cbz	r1, 8021686 <SetALStatus+0x2a>
 8021682:	06c2      	lsls	r2, r0, #27
 8021684:	d401      	bmi.n	802168a <SetALStatus+0x2e>
 8021686:	2200      	movs	r2, #0
 8021688:	e00e      	b.n	80216a8 <SetALStatus+0x4c>
 802168a:	292d      	cmp	r1, #45	; 0x2d
 802168c:	d006      	beq.n	802169c <SetALStatus+0x40>
 802168e:	291a      	cmp	r1, #26
 8021690:	d004      	beq.n	802169c <SetALStatus+0x40>
 8021692:	2932      	cmp	r1, #50	; 0x32
 8021694:	d002      	beq.n	802169c <SetALStatus+0x40>
 8021696:	4a0b      	ldr	r2, [pc, #44]	; (80216c4 <SetALStatus+0x68>)
 8021698:	7812      	ldrb	r2, [r2, #0]
 802169a:	b10a      	cbz	r2, 80216a0 <SetALStatus+0x44>
 802169c:	2201      	movs	r2, #1
 802169e:	e003      	b.n	80216a8 <SetALStatus+0x4c>
 80216a0:	291b      	cmp	r1, #27
 80216a2:	bf0c      	ite	eq
 80216a4:	2202      	moveq	r2, #2
 80216a6:	220d      	movne	r2, #13
 80216a8:	701a      	strb	r2, [r3, #0]
 80216aa:	781a      	ldrb	r2, [r3, #0]
 80216ac:	f042 0210 	orr.w	r2, r2, #16
 80216b0:	701a      	strb	r2, [r3, #0]
 80216b2:	4b05      	ldr	r3, [pc, #20]	; (80216c8 <SetALStatus+0x6c>)
 80216b4:	701a      	strb	r2, [r3, #0]
 80216b6:	4770      	bx	lr
 80216b8:	1ffea5c1 	.word	0x1ffea5c1
 80216bc:	54010130 	.word	0x54010130
 80216c0:	1ffea601 	.word	0x1ffea601
 80216c4:	1ffea5c6 	.word	0x1ffea5c6
 80216c8:	54010139 	.word	0x54010139

080216cc <AL_ControlInd>:
 80216cc:	e92d 4ff0 	stmdb	sp!, {r4, r5, r6, r7, r8, r9, sl, fp, lr}
 80216d0:	4fbb      	ldr	r7, [pc, #748]	; (80219c0 <AL_ControlInd+0x2f4>)
 80216d2:	4dbc      	ldr	r5, [pc, #752]	; (80219c4 <AL_ControlInd+0x2f8>)
 80216d4:	4cbc      	ldr	r4, [pc, #752]	; (80219c8 <AL_ControlInd+0x2fc>)
 80216d6:	b085      	sub	sp, #20
 80216d8:	f64f 73ff 	movw	r3, #65535	; 0xffff
 80216dc:	f04f 0801 	mov.w	r8, #1
 80216e0:	f010 0f10 	tst.w	r0, #16
 80216e4:	803b      	strh	r3, [r7, #0]
 80216e6:	468b      	mov	fp, r1
 80216e8:	f885 8000 	strb.w	r8, [r5]
 80216ec:	9701      	str	r7, [sp, #4]
 80216ee:	f000 000f 	and.w	r0, r0, #15
 80216f2:	7823      	ldrb	r3, [r4, #0]
 80216f4:	d005      	beq.n	8021702 <AL_ControlInd+0x36>
 80216f6:	f023 0310 	bic.w	r3, r3, #16
 80216fa:	7023      	strb	r3, [r4, #0]
 80216fc:	f8cd 8008 	str.w	r8, [sp, #8]
 8021700:	e009      	b.n	8021716 <AL_ControlInd+0x4a>
 8021702:	06da      	lsls	r2, r3, #27
 8021704:	d502      	bpl.n	802170c <AL_ControlInd+0x40>
 8021706:	2801      	cmp	r0, #1
 8021708:	f040 8217 	bne.w	8021b3a <AL_ControlInd+0x46e>
 802170c:	f003 030f 	and.w	r3, r3, #15
 8021710:	7023      	strb	r3, [r4, #0]
 8021712:	2300      	movs	r3, #0
 8021714:	9302      	str	r3, [sp, #8]
 8021716:	7823      	ldrb	r3, [r4, #0]
 8021718:	f8df 92d0 	ldr.w	r9, [pc, #720]	; 80219ec <AL_ControlInd+0x320>
 802171c:	b2c6      	uxtb	r6, r0
 802171e:	eb06 1303 	add.w	r3, r6, r3, lsl #4
 8021722:	f003 0aff 	and.w	sl, r3, #255	; 0xff
 8021726:	f1ba 0f44 	cmp.w	sl, #68	; 0x44
 802172a:	d026      	beq.n	802177a <AL_ControlInd+0xae>
 802172c:	d80d      	bhi.n	802174a <AL_ControlInd+0x7e>
 802172e:	f1ba 0f22 	cmp.w	sl, #34	; 0x22
 8021732:	d018      	beq.n	8021766 <AL_ControlInd+0x9a>
 8021734:	d802      	bhi.n	802173c <AL_ControlInd+0x70>
 8021736:	f1ba 0f12 	cmp.w	sl, #18
 802173a:	e004      	b.n	8021746 <AL_ControlInd+0x7a>
 802173c:	f1ba 0f24 	cmp.w	sl, #36	; 0x24
 8021740:	d013      	beq.n	802176a <AL_ControlInd+0x9e>
 8021742:	f1ba 0f42 	cmp.w	sl, #66	; 0x42
 8021746:	d00e      	beq.n	8021766 <AL_ControlInd+0x9a>
 8021748:	e01f      	b.n	802178a <AL_ControlInd+0xbe>
 802174a:	f1ba 0f82 	cmp.w	sl, #130	; 0x82
 802174e:	d00a      	beq.n	8021766 <AL_ControlInd+0x9a>
 8021750:	d802      	bhi.n	8021758 <AL_ControlInd+0x8c>
 8021752:	f1ba 0f48 	cmp.w	sl, #72	; 0x48
 8021756:	e004      	b.n	8021762 <AL_ControlInd+0x96>
 8021758:	f1ba 0f84 	cmp.w	sl, #132	; 0x84
 802175c:	d00d      	beq.n	802177a <AL_ControlInd+0xae>
 802175e:	f1ba 0f88 	cmp.w	sl, #136	; 0x88
 8021762:	d00a      	beq.n	802177a <AL_ControlInd+0xae>
 8021764:	e011      	b.n	802178a <AL_ControlInd+0xbe>
 8021766:	2002      	movs	r0, #2
 8021768:	e009      	b.n	802177e <AL_ControlInd+0xb2>
 802176a:	4898      	ldr	r0, [pc, #608]	; (80219cc <AL_ControlInd+0x300>)
 802176c:	4998      	ldr	r1, [pc, #608]	; (80219d0 <AL_ControlInd+0x304>)
 802176e:	f7fe fcb1 	bl	80200d4 <APPL_GenerateMapping>
 8021772:	4607      	mov	r7, r0
 8021774:	2800      	cmp	r0, #0
 8021776:	f040 8103 	bne.w	8021980 <AL_ControlInd+0x2b4>
 802177a:	4a96      	ldr	r2, [pc, #600]	; (80219d4 <AL_ControlInd+0x308>)
 802177c:	7810      	ldrb	r0, [r2, #0]
 802177e:	f7ff fb8b 	bl	8020e98 <CheckSmSettings>
 8021782:	b287      	uxth	r7, r0
 8021784:	2f00      	cmp	r7, #0
 8021786:	f040 80fb 	bne.w	8021980 <AL_ControlInd+0x2b4>
 802178a:	4993      	ldr	r1, [pc, #588]	; (80219d8 <AL_ControlInd+0x30c>)
 802178c:	9103      	str	r1, [sp, #12]
 802178e:	f04f 0800 	mov.w	r8, #0
 8021792:	f1ba 0f32 	cmp.w	sl, #50	; 0x32
 8021796:	f8a1 8000 	strh.w	r8, [r1]
 802179a:	f000 81c8 	beq.w	8021b2e <AL_ControlInd+0x462>
 802179e:	d82f      	bhi.n	8021800 <AL_ControlInd+0x134>
 80217a0:	f1ba 0f21 	cmp.w	sl, #33	; 0x21
 80217a4:	f000 80c6 	beq.w	8021934 <AL_ControlInd+0x268>
 80217a8:	d812      	bhi.n	80217d0 <AL_ControlInd+0x104>
 80217aa:	f1ba 0f13 	cmp.w	sl, #19
 80217ae:	d054      	beq.n	802185a <AL_ControlInd+0x18e>
 80217b0:	d807      	bhi.n	80217c2 <AL_ControlInd+0xf6>
 80217b2:	f1ba 0f11 	cmp.w	sl, #17
 80217b6:	f000 80c8 	beq.w	802194a <AL_ControlInd+0x27e>
 80217ba:	f1ba 0f12 	cmp.w	sl, #18
 80217be:	d04e      	beq.n	802185e <AL_ControlInd+0x192>
 80217c0:	e1b7      	b.n	8021b32 <AL_ControlInd+0x466>
 80217c2:	f1ba 0f14 	cmp.w	sl, #20
 80217c6:	f000 81b2 	beq.w	8021b2e <AL_ControlInd+0x462>
 80217ca:	f1ba 0f18 	cmp.w	sl, #24
 80217ce:	e02d      	b.n	802182c <AL_ControlInd+0x160>
 80217d0:	f1ba 0f24 	cmp.w	sl, #36	; 0x24
 80217d4:	d04c      	beq.n	8021870 <AL_ControlInd+0x1a4>
 80217d6:	d806      	bhi.n	80217e6 <AL_ControlInd+0x11a>
 80217d8:	f1ba 0f22 	cmp.w	sl, #34	; 0x22
 80217dc:	f000 80b8 	beq.w	8021950 <AL_ControlInd+0x284>
 80217e0:	f1ba 0f23 	cmp.w	sl, #35	; 0x23
 80217e4:	e022      	b.n	802182c <AL_ControlInd+0x160>
 80217e6:	f1ba 0f28 	cmp.w	sl, #40	; 0x28
 80217ea:	f000 81a0 	beq.w	8021b2e <AL_ControlInd+0x462>
 80217ee:	f1ba 0f31 	cmp.w	sl, #49	; 0x31
 80217f2:	f040 819e 	bne.w	8021b32 <AL_ControlInd+0x466>
 80217f6:	4b79      	ldr	r3, [pc, #484]	; (80219dc <AL_ControlInd+0x310>)
 80217f8:	2713      	movs	r7, #19
 80217fa:	f883 8000 	strb.w	r8, [r3]
 80217fe:	e139      	b.n	8021a74 <AL_ControlInd+0x3a8>
 8021800:	f1ba 0f44 	cmp.w	sl, #68	; 0x44
 8021804:	f000 80a4 	beq.w	8021950 <AL_ControlInd+0x284>
 8021808:	d813      	bhi.n	8021832 <AL_ControlInd+0x166>
 802180a:	f1ba 0f41 	cmp.w	sl, #65	; 0x41
 802180e:	f000 8088 	beq.w	8021922 <AL_ControlInd+0x256>
 8021812:	d806      	bhi.n	8021822 <AL_ControlInd+0x156>
 8021814:	f1ba 0f34 	cmp.w	sl, #52	; 0x34
 8021818:	f000 8189 	beq.w	8021b2e <AL_ControlInd+0x462>
 802181c:	f1ba 0f38 	cmp.w	sl, #56	; 0x38
 8021820:	e004      	b.n	802182c <AL_ControlInd+0x160>
 8021822:	f1ba 0f42 	cmp.w	sl, #66	; 0x42
 8021826:	d06a      	beq.n	80218fe <AL_ControlInd+0x232>
 8021828:	f1ba 0f43 	cmp.w	sl, #67	; 0x43
 802182c:	f040 8181 	bne.w	8021b32 <AL_ControlInd+0x466>
 8021830:	e17d      	b.n	8021b2e <AL_ControlInd+0x462>
 8021832:	f1ba 0f82 	cmp.w	sl, #130	; 0x82
 8021836:	d058      	beq.n	80218ea <AL_ControlInd+0x21e>
 8021838:	d806      	bhi.n	8021848 <AL_ControlInd+0x17c>
 802183a:	f1ba 0f48 	cmp.w	sl, #72	; 0x48
 802183e:	d02f      	beq.n	80218a0 <AL_ControlInd+0x1d4>
 8021840:	f1ba 0f81 	cmp.w	sl, #129	; 0x81
 8021844:	d063      	beq.n	802190e <AL_ControlInd+0x242>
 8021846:	e174      	b.n	8021b32 <AL_ControlInd+0x466>
 8021848:	f1ba 0f84 	cmp.w	sl, #132	; 0x84
 802184c:	d045      	beq.n	80218da <AL_ControlInd+0x20e>
 802184e:	f0c0 816e 	bcc.w	8021b2e <AL_ControlInd+0x462>
 8021852:	f1ba 0f88 	cmp.w	sl, #136	; 0x88
 8021856:	d07b      	beq.n	8021950 <AL_ControlInd+0x284>
 8021858:	e16b      	b.n	8021b32 <AL_ControlInd+0x466>
 802185a:	4657      	mov	r7, sl
 802185c:	e10a      	b.n	8021a74 <AL_ControlInd+0x3a8>
 802185e:	f7ff facb 	bl	8020df8 <UpdateEEPROMLoadedState>
 8021862:	4a5f      	ldr	r2, [pc, #380]	; (80219e0 <AL_ControlInd+0x314>)
 8021864:	7812      	ldrb	r2, [r2, #0]
 8021866:	2a00      	cmp	r2, #0
 8021868:	f040 80f7 	bne.w	8021a5a <AL_ControlInd+0x38e>
 802186c:	2751      	movs	r7, #81	; 0x51
 802186e:	e101      	b.n	8021a74 <AL_ControlInd+0x3a8>
 8021870:	f7ff fbe4 	bl	802103c <StartInputHandler>
 8021874:	4607      	mov	r7, r0
 8021876:	2800      	cmp	r0, #0
 8021878:	f040 8145 	bne.w	8021b06 <AL_ControlInd+0x43a>
 802187c:	f8df 8170 	ldr.w	r8, [pc, #368]	; 80219f0 <AL_ControlInd+0x324>
 8021880:	7028      	strb	r0, [r5, #0]
 8021882:	4640      	mov	r0, r8
 8021884:	f7fe fc1d 	bl	80200c2 <APPL_StartInputHandler>
 8021888:	4607      	mov	r7, r0
 802188a:	2800      	cmp	r0, #0
 802188c:	f040 813b 	bne.w	8021b06 <AL_ControlInd+0x43a>
 8021890:	f8b8 0000 	ldrh.w	r0, [r8]
 8021894:	f7ff faa2 	bl	8020ddc <SetALEventMask>
 8021898:	4b52      	ldr	r3, [pc, #328]	; (80219e4 <AL_ControlInd+0x318>)
 802189a:	2201      	movs	r2, #1
 802189c:	701a      	strb	r2, [r3, #0]
 802189e:	e0e9      	b.n	8021a74 <AL_ControlInd+0x3a8>
 80218a0:	9b02      	ldr	r3, [sp, #8]
 80218a2:	b153      	cbz	r3, 80218ba <AL_ControlInd+0x1ee>
 80218a4:	4a4a      	ldr	r2, [pc, #296]	; (80219d0 <AL_ControlInd+0x304>)
 80218a6:	8812      	ldrh	r2, [r2, #0]
 80218a8:	b10a      	cbz	r2, 80218ae <AL_ControlInd+0x1e2>
 80218aa:	2002      	movs	r0, #2
 80218ac:	e003      	b.n	80218b6 <AL_ControlInd+0x1ea>
 80218ae:	4a47      	ldr	r2, [pc, #284]	; (80219cc <AL_ControlInd+0x300>)
 80218b0:	8812      	ldrh	r2, [r2, #0]
 80218b2:	b112      	cbz	r2, 80218ba <AL_ControlInd+0x1ee>
 80218b4:	2003      	movs	r0, #3
 80218b6:	f7ff fad7 	bl	8020e68 <EnableSyncManChannel>
 80218ba:	f7ff fe2b 	bl	8021514 <StartOutputHandler>
 80218be:	4607      	mov	r7, r0
 80218c0:	2800      	cmp	r0, #0
 80218c2:	f040 812a 	bne.w	8021b1a <AL_ControlInd+0x44e>
 80218c6:	7028      	strb	r0, [r5, #0]
 80218c8:	f7fe fbff 	bl	80200ca <APPL_StartOutputHandler>
 80218cc:	4607      	mov	r7, r0
 80218ce:	2800      	cmp	r0, #0
 80218d0:	f040 8123 	bne.w	8021b1a <AL_ControlInd+0x44e>
 80218d4:	2201      	movs	r2, #1
 80218d6:	4b44      	ldr	r3, [pc, #272]	; (80219e8 <AL_ControlInd+0x31c>)
 80218d8:	e7e0      	b.n	802189c <AL_ControlInd+0x1d0>
 80218da:	f7fe fbf8 	bl	80200ce <APPL_StopOutputHandler>
 80218de:	4647      	mov	r7, r8
 80218e0:	f7ff fe48 	bl	8021574 <StopOutputHandler>
 80218e4:	f885 8000 	strb.w	r8, [r5]
 80218e8:	e0c4      	b.n	8021a74 <AL_ControlInd+0x3a8>
 80218ea:	f7fe fbf0 	bl	80200ce <APPL_StopOutputHandler>
 80218ee:	4607      	mov	r7, r0
 80218f0:	f7ff fe40 	bl	8021574 <StopOutputHandler>
 80218f4:	f885 8000 	strb.w	r8, [r5]
 80218f8:	2f00      	cmp	r7, #0
 80218fa:	f040 8098 	bne.w	8021a2e <AL_ControlInd+0x362>
 80218fe:	f7fe fbe2 	bl	80200c6 <APPL_StopInputHandler>
 8021902:	f7ff fe41 	bl	8021588 <StopInputHandler>
 8021906:	2100      	movs	r1, #0
 8021908:	7029      	strb	r1, [r5, #0]
 802190a:	460f      	mov	r7, r1
 802190c:	e0b2      	b.n	8021a74 <AL_ControlInd+0x3a8>
 802190e:	f7fe fbde 	bl	80200ce <APPL_StopOutputHandler>
 8021912:	4607      	mov	r7, r0
 8021914:	f7ff fe2e 	bl	8021574 <StopOutputHandler>
 8021918:	f885 8000 	strb.w	r8, [r5]
 802191c:	2f00      	cmp	r7, #0
 802191e:	f040 8086 	bne.w	8021a2e <AL_ControlInd+0x362>
 8021922:	f7fe fbd0 	bl	80200c6 <APPL_StopInputHandler>
 8021926:	4607      	mov	r7, r0
 8021928:	f7ff fe2e 	bl	8021588 <StopInputHandler>
 802192c:	2300      	movs	r3, #0
 802192e:	702b      	strb	r3, [r5, #0]
 8021930:	2f00      	cmp	r7, #0
 8021932:	d17a      	bne.n	8021a2a <AL_ControlInd+0x35e>
 8021934:	f000 fcae 	bl	8022294 <MBX_StopMailboxHandler>
 8021938:	f7fe fbc1 	bl	80200be <APPL_StopMailboxHandler>
 802193c:	4b27      	ldr	r3, [pc, #156]	; (80219dc <AL_ControlInd+0x310>)
 802193e:	2200      	movs	r2, #0
 8021940:	4607      	mov	r7, r0
 8021942:	701a      	strb	r2, [r3, #0]
 8021944:	f04f 0a21 	mov.w	sl, #33	; 0x21
 8021948:	e071      	b.n	8021a2e <AL_ControlInd+0x362>
 802194a:	4924      	ldr	r1, [pc, #144]	; (80219dc <AL_ControlInd+0x310>)
 802194c:	f881 8000 	strb.w	r8, [r1]
 8021950:	9b02      	ldr	r3, [sp, #8]
 8021952:	b113      	cbz	r3, 802195a <AL_ControlInd+0x28e>
 8021954:	4650      	mov	r0, sl
 8021956:	f7fe fbaf 	bl	80200b8 <APPL_AckErrorInd>
 802195a:	7823      	ldrb	r3, [r4, #0]
 802195c:	f013 0f0c 	tst.w	r3, #12
 8021960:	f000 80e9 	beq.w	8021b36 <AL_ControlInd+0x46a>
 8021964:	4b1a      	ldr	r3, [pc, #104]	; (80219d0 <AL_ControlInd+0x304>)
 8021966:	881b      	ldrh	r3, [r3, #0]
 8021968:	b10b      	cbz	r3, 802196e <AL_ControlInd+0x2a2>
 802196a:	2002      	movs	r0, #2
 802196c:	e005      	b.n	802197a <AL_ControlInd+0x2ae>
 802196e:	4b17      	ldr	r3, [pc, #92]	; (80219cc <AL_ControlInd+0x300>)
 8021970:	881b      	ldrh	r3, [r3, #0]
 8021972:	2b00      	cmp	r3, #0
 8021974:	f000 80df 	beq.w	8021b36 <AL_ControlInd+0x46a>
 8021978:	2003      	movs	r0, #3
 802197a:	f7ff fa75 	bl	8020e68 <EnableSyncManChannel>
 802197e:	e0da      	b.n	8021b36 <AL_ControlInd+0x46a>
 8021980:	7822      	ldrb	r2, [r4, #0]
 8021982:	2a04      	cmp	r2, #4
 8021984:	d008      	beq.n	8021998 <AL_ControlInd+0x2cc>
 8021986:	2a08      	cmp	r2, #8
 8021988:	d002      	beq.n	8021990 <AL_ControlInd+0x2c4>
 802198a:	2a02      	cmp	r2, #2
 802198c:	d134      	bne.n	80219f8 <AL_ControlInd+0x32c>
 802198e:	e007      	b.n	80219a0 <AL_ControlInd+0x2d4>
 8021990:	f7fe fb9d 	bl	80200ce <APPL_StopOutputHandler>
 8021994:	f7ff fdee 	bl	8021574 <StopOutputHandler>
 8021998:	f7fe fb95 	bl	80200c6 <APPL_StopInputHandler>
 802199c:	f7ff fdf4 	bl	8021588 <StopInputHandler>
 80219a0:	2f16      	cmp	r7, #22
 80219a2:	d127      	bne.n	80219f4 <AL_ControlInd+0x328>
 80219a4:	f000 fc76 	bl	8022294 <MBX_StopMailboxHandler>
 80219a8:	f7fe fb89 	bl	80200be <APPL_StopMailboxHandler>
 80219ac:	2000      	movs	r0, #0
 80219ae:	f7ff fa43 	bl	8020e38 <DisableSyncManChannel>
 80219b2:	2001      	movs	r0, #1
 80219b4:	f7ff fa40 	bl	8020e38 <DisableSyncManChannel>
 80219b8:	2301      	movs	r3, #1
 80219ba:	7023      	strb	r3, [r4, #0]
 80219bc:	e05a      	b.n	8021a74 <AL_ControlInd+0x3a8>
 80219be:	bf00      	nop
 80219c0:	1ffea5f2 	.word	0x1ffea5f2
 80219c4:	1ffea5c0 	.word	0x1ffea5c0
 80219c8:	1ffea5c1 	.word	0x1ffea5c1
 80219cc:	1ffea5ea 	.word	0x1ffea5ea
 80219d0:	1ffea5c2 	.word	0x1ffea5c2
 80219d4:	1ffea600 	.word	0x1ffea600
 80219d8:	1ffea5be 	.word	0x1ffea5be
 80219dc:	1ffea720 	.word	0x1ffea720
 80219e0:	1ffe94af 	.word	0x1ffe94af
 80219e4:	1ffea5fa 	.word	0x1ffea5fa
 80219e8:	1ffea5f5 	.word	0x1ffea5f5
 80219ec:	1ffea5e8 	.word	0x1ffea5e8
 80219f0:	1ffea5da 	.word	0x1ffea5da
 80219f4:	2202      	movs	r2, #2
 80219f6:	7022      	strb	r2, [r4, #0]
 80219f8:	2fff      	cmp	r7, #255	; 0xff
 80219fa:	d13b      	bne.n	8021a74 <AL_ControlInd+0x3a8>
 80219fc:	2201      	movs	r2, #1
 80219fe:	f889 2000 	strb.w	r2, [r9]
 8021a02:	4a4f      	ldr	r2, [pc, #316]	; (8021b40 <AL_ControlInd+0x474>)
 8021a04:	f1ba 0f24 	cmp.w	sl, #36	; 0x24
 8021a08:	f8a2 a000 	strh.w	sl, [r2]
 8021a0c:	d00a      	beq.n	8021a24 <AL_ControlInd+0x358>
 8021a0e:	d806      	bhi.n	8021a1e <AL_ControlInd+0x352>
 8021a10:	f1aa 0312 	sub.w	r3, sl, #18
 8021a14:	2b01      	cmp	r3, #1
 8021a16:	d812      	bhi.n	8021a3e <AL_ControlInd+0x372>
 8021a18:	f44f 63fa 	mov.w	r3, #2000	; 0x7d0
 8021a1c:	e010      	b.n	8021a40 <AL_ControlInd+0x374>
 8021a1e:	f1ba 0f48 	cmp.w	sl, #72	; 0x48
 8021a22:	d10c      	bne.n	8021a3e <AL_ControlInd+0x372>
 8021a24:	f242 3328 	movw	r3, #9000	; 0x2328
 8021a28:	e00a      	b.n	8021a40 <AL_ControlInd+0x374>
 8021a2a:	f04f 0a41 	mov.w	sl, #65	; 0x41
 8021a2e:	2fff      	cmp	r7, #255	; 0xff
 8021a30:	d120      	bne.n	8021a74 <AL_ControlInd+0x3a8>
 8021a32:	9b03      	ldr	r3, [sp, #12]
 8021a34:	2201      	movs	r2, #1
 8021a36:	f889 2000 	strb.w	r2, [r9]
 8021a3a:	f8a3 a000 	strh.w	sl, [r3]
 8021a3e:	23c8      	movs	r3, #200	; 0xc8
 8021a40:	9a01      	ldr	r2, [sp, #4]
 8021a42:	8013      	strh	r3, [r2, #0]
 8021a44:	9b01      	ldr	r3, [sp, #4]
 8021a46:	881b      	ldrh	r3, [r3, #0]
 8021a48:	f06f 0109 	mvn.w	r1, #9
 8021a4c:	b21a      	sxth	r2, r3
 8021a4e:	fb92 f2f1 	sdiv	r2, r2, r1
 8021a52:	4413      	add	r3, r2
 8021a54:	9a01      	ldr	r2, [sp, #4]
 8021a56:	8013      	strh	r3, [r2, #0]
 8021a58:	e06f      	b.n	8021b3a <AL_ControlInd+0x46e>
 8021a5a:	f000 fbc9 	bl	80221f0 <MBX_StartMailboxHandler>
 8021a5e:	4607      	mov	r7, r0
 8021a60:	2800      	cmp	r0, #0
 8021a62:	d046      	beq.n	8021af2 <AL_ControlInd+0x426>
 8021a64:	2fff      	cmp	r7, #255	; 0xff
 8021a66:	d0c9      	beq.n	80219fc <AL_ControlInd+0x330>
 8021a68:	782b      	ldrb	r3, [r5, #0]
 8021a6a:	b90b      	cbnz	r3, 8021a70 <AL_ControlInd+0x3a4>
 8021a6c:	f7fe fb27 	bl	80200be <APPL_StopMailboxHandler>
 8021a70:	f000 fc10 	bl	8022294 <MBX_StopMailboxHandler>
 8021a74:	7820      	ldrb	r0, [r4, #0]
 8021a76:	f000 030f 	and.w	r3, r0, #15
 8021a7a:	429e      	cmp	r6, r3
 8021a7c:	d031      	beq.n	8021ae2 <AL_ControlInd+0x416>
 8021a7e:	b917      	cbnz	r7, 8021a86 <AL_ControlInd+0x3ba>
 8021a80:	f1bb 0f00 	cmp.w	fp, #0
 8021a84:	d025      	beq.n	8021ad2 <AL_ControlInd+0x406>
 8021a86:	4330      	orrs	r0, r6
 8021a88:	0703      	lsls	r3, r0, #28
 8021a8a:	d511      	bpl.n	8021ab0 <AL_ControlInd+0x3e4>
 8021a8c:	4b2d      	ldr	r3, [pc, #180]	; (8021b44 <AL_ControlInd+0x478>)
 8021a8e:	781b      	ldrb	r3, [r3, #0]
 8021a90:	b11b      	cbz	r3, 8021a9a <AL_ControlInd+0x3ce>
 8021a92:	f7fe fb1c 	bl	80200ce <APPL_StopOutputHandler>
 8021a96:	f7ff fd6d 	bl	8021574 <StopOutputHandler>
 8021a9a:	4b2b      	ldr	r3, [pc, #172]	; (8021b48 <AL_ControlInd+0x47c>)
 8021a9c:	881b      	ldrh	r3, [r3, #0]
 8021a9e:	b10b      	cbz	r3, 8021aa4 <AL_ControlInd+0x3d8>
 8021aa0:	2002      	movs	r0, #2
 8021aa2:	e003      	b.n	8021aac <AL_ControlInd+0x3e0>
 8021aa4:	4b29      	ldr	r3, [pc, #164]	; (8021b4c <AL_ControlInd+0x480>)
 8021aa6:	881b      	ldrh	r3, [r3, #0]
 8021aa8:	b113      	cbz	r3, 8021ab0 <AL_ControlInd+0x3e4>
 8021aaa:	2003      	movs	r0, #3
 8021aac:	f7ff f9c4 	bl	8020e38 <DisableSyncManChannel>
 8021ab0:	b157      	cbz	r7, 8021ac8 <AL_ControlInd+0x3fc>
 8021ab2:	7823      	ldrb	r3, [r4, #0]
 8021ab4:	2b08      	cmp	r3, #8
 8021ab6:	bf02      	ittt	eq
 8021ab8:	4b25      	ldreq	r3, [pc, #148]	; (8021b50 <AL_ControlInd+0x484>)
 8021aba:	2204      	moveq	r2, #4
 8021abc:	701a      	strbeq	r2, [r3, #0]
 8021abe:	7823      	ldrb	r3, [r4, #0]
 8021ac0:	f043 0310 	orr.w	r3, r3, #16
 8021ac4:	7023      	strb	r3, [r4, #0]
 8021ac6:	e006      	b.n	8021ad6 <AL_ControlInd+0x40a>
 8021ac8:	f1bb 0f00 	cmp.w	fp, #0
 8021acc:	d001      	beq.n	8021ad2 <AL_ControlInd+0x406>
 8021ace:	f046 0610 	orr.w	r6, r6, #16
 8021ad2:	7026      	strb	r6, [r4, #0]
 8021ad4:	465f      	mov	r7, fp
 8021ad6:	2300      	movs	r3, #0
 8021ad8:	f889 3000 	strb.w	r3, [r9]
 8021adc:	7820      	ldrb	r0, [r4, #0]
 8021ade:	4639      	mov	r1, r7
 8021ae0:	e002      	b.n	8021ae8 <AL_ControlInd+0x41c>
 8021ae2:	2100      	movs	r1, #0
 8021ae4:	f889 1000 	strb.w	r1, [r9]
 8021ae8:	b005      	add	sp, #20
 8021aea:	e8bd 4ff0 	ldmia.w	sp!, {r4, r5, r6, r7, r8, r9, sl, fp, lr}
 8021aee:	f7ff bdb5 	b.w	802165c <SetALStatus>
 8021af2:	2200      	movs	r2, #0
 8021af4:	702a      	strb	r2, [r5, #0]
 8021af6:	f7fe fae0 	bl	80200ba <APPL_StartMailboxHandler>
 8021afa:	4607      	mov	r7, r0
 8021afc:	2800      	cmp	r0, #0
 8021afe:	d1b1      	bne.n	8021a64 <AL_ControlInd+0x398>
 8021b00:	2201      	movs	r2, #1
 8021b02:	4b14      	ldr	r3, [pc, #80]	; (8021b54 <AL_ControlInd+0x488>)
 8021b04:	e6ca      	b.n	802189c <AL_ControlInd+0x1d0>
 8021b06:	2fff      	cmp	r7, #255	; 0xff
 8021b08:	f43f af78 	beq.w	80219fc <AL_ControlInd+0x330>
 8021b0c:	782b      	ldrb	r3, [r5, #0]
 8021b0e:	b90b      	cbnz	r3, 8021b14 <AL_ControlInd+0x448>
 8021b10:	f7fe fad9 	bl	80200c6 <APPL_StopInputHandler>
 8021b14:	f7ff fd38 	bl	8021588 <StopInputHandler>
 8021b18:	e7ac      	b.n	8021a74 <AL_ControlInd+0x3a8>
 8021b1a:	2fff      	cmp	r7, #255	; 0xff
 8021b1c:	f43f af6e 	beq.w	80219fc <AL_ControlInd+0x330>
 8021b20:	782b      	ldrb	r3, [r5, #0]
 8021b22:	b90b      	cbnz	r3, 8021b28 <AL_ControlInd+0x45c>
 8021b24:	f7fe fad3 	bl	80200ce <APPL_StopOutputHandler>
 8021b28:	f7ff fd24 	bl	8021574 <StopOutputHandler>
 8021b2c:	e7a2      	b.n	8021a74 <AL_ControlInd+0x3a8>
 8021b2e:	2711      	movs	r7, #17
 8021b30:	e7a0      	b.n	8021a74 <AL_ControlInd+0x3a8>
 8021b32:	2712      	movs	r7, #18
 8021b34:	e79e      	b.n	8021a74 <AL_ControlInd+0x3a8>
 8021b36:	27fe      	movs	r7, #254	; 0xfe
 8021b38:	e79c      	b.n	8021a74 <AL_ControlInd+0x3a8>
 8021b3a:	b005      	add	sp, #20
 8021b3c:	e8bd 8ff0 	ldmia.w	sp!, {r4, r5, r6, r7, r8, r9, sl, fp, pc}
 8021b40:	1ffea5be 	.word	0x1ffea5be
 8021b44:	1ffea5f5 	.word	0x1ffea5f5
 8021b48:	1ffea5c2 	.word	0x1ffea5c2
 8021b4c:	1ffea5ea 	.word	0x1ffea5ea
 8021b50:	1ffea5c1 	.word	0x1ffea5c1
 8021b54:	1ffea672 	.word	0x1ffea672

08021b58 <AL_ControlRes>:
 8021b58:	b570      	push	{r4, r5, r6, lr}
 8021b5a:	4e7c      	ldr	r6, [pc, #496]	; (8021d4c <AL_ControlRes+0x1f4>)
 8021b5c:	7833      	ldrb	r3, [r6, #0]
 8021b5e:	2b00      	cmp	r3, #0
 8021b60:	f000 80f2 	beq.w	8021d48 <AL_ControlRes+0x1f0>
 8021b64:	4b7a      	ldr	r3, [pc, #488]	; (8021d50 <AL_ControlRes+0x1f8>)
 8021b66:	4c7b      	ldr	r4, [pc, #492]	; (8021d54 <AL_ControlRes+0x1fc>)
 8021b68:	f9b3 3000 	ldrsh.w	r3, [r3]
 8021b6c:	2b00      	cmp	r3, #0
 8021b6e:	d15f      	bne.n	8021c30 <AL_ControlRes+0xd8>
 8021b70:	8823      	ldrh	r3, [r4, #0]
 8021b72:	2b24      	cmp	r3, #36	; 0x24
 8021b74:	f3c3 1507 	ubfx	r5, r3, #4, #8
 8021b78:	d014      	beq.n	8021ba4 <AL_ControlRes+0x4c>
 8021b7a:	d803      	bhi.n	8021b84 <AL_ControlRes+0x2c>
 8021b7c:	3b12      	subs	r3, #18
 8021b7e:	2b01      	cmp	r3, #1
 8021b80:	d903      	bls.n	8021b8a <AL_ControlRes+0x32>
 8021b82:	e0d9      	b.n	8021d38 <AL_ControlRes+0x1e0>
 8021b84:	2b48      	cmp	r3, #72	; 0x48
 8021b86:	d021      	beq.n	8021bcc <AL_ControlRes+0x74>
 8021b88:	e0d6      	b.n	8021d38 <AL_ControlRes+0x1e0>
 8021b8a:	4b73      	ldr	r3, [pc, #460]	; (8021d58 <AL_ControlRes+0x200>)
 8021b8c:	781b      	ldrb	r3, [r3, #0]
 8021b8e:	b90b      	cbnz	r3, 8021b94 <AL_ControlRes+0x3c>
 8021b90:	f7fe fa95 	bl	80200be <APPL_StopMailboxHandler>
 8021b94:	f000 fb7e 	bl	8022294 <MBX_StopMailboxHandler>
 8021b98:	4b70      	ldr	r3, [pc, #448]	; (8021d5c <AL_ControlRes+0x204>)
 8021b9a:	781b      	ldrb	r3, [r3, #0]
 8021b9c:	f003 030f 	and.w	r3, r3, #15
 8021ba0:	2b01      	cmp	r3, #1
 8021ba2:	e00b      	b.n	8021bbc <AL_ControlRes+0x64>
 8021ba4:	4b6c      	ldr	r3, [pc, #432]	; (8021d58 <AL_ControlRes+0x200>)
 8021ba6:	781b      	ldrb	r3, [r3, #0]
 8021ba8:	b90b      	cbnz	r3, 8021bae <AL_ControlRes+0x56>
 8021baa:	f7fe fa8c 	bl	80200c6 <APPL_StopInputHandler>
 8021bae:	f7ff fceb 	bl	8021588 <StopInputHandler>
 8021bb2:	4b6a      	ldr	r3, [pc, #424]	; (8021d5c <AL_ControlRes+0x204>)
 8021bb4:	781b      	ldrb	r3, [r3, #0]
 8021bb6:	f003 030f 	and.w	r3, r3, #15
 8021bba:	2b02      	cmp	r3, #2
 8021bbc:	f040 80bf 	bne.w	8021d3e <AL_ControlRes+0x1e6>
 8021bc0:	4b67      	ldr	r3, [pc, #412]	; (8021d60 <AL_ControlRes+0x208>)
 8021bc2:	881c      	ldrh	r4, [r3, #0]
 8021bc4:	2d00      	cmp	r5, #0
 8021bc6:	f040 80a3 	bne.w	8021d10 <AL_ControlRes+0x1b8>
 8021bca:	e0bd      	b.n	8021d48 <AL_ControlRes+0x1f0>
 8021bcc:	4b65      	ldr	r3, [pc, #404]	; (8021d64 <AL_ControlRes+0x20c>)
 8021bce:	781b      	ldrb	r3, [r3, #0]
 8021bd0:	b1b3      	cbz	r3, 8021c00 <AL_ControlRes+0xa8>
 8021bd2:	4b65      	ldr	r3, [pc, #404]	; (8021d68 <AL_ControlRes+0x210>)
 8021bd4:	781b      	ldrb	r3, [r3, #0]
 8021bd6:	2b00      	cmp	r3, #0
 8021bd8:	f000 80a5 	beq.w	8021d26 <AL_ControlRes+0x1ce>
 8021bdc:	4b63      	ldr	r3, [pc, #396]	; (8021d6c <AL_ControlRes+0x214>)
 8021bde:	781b      	ldrb	r3, [r3, #0]
 8021be0:	b923      	cbnz	r3, 8021bec <AL_ControlRes+0x94>
 8021be2:	4b63      	ldr	r3, [pc, #396]	; (8021d70 <AL_ControlRes+0x218>)
 8021be4:	881b      	ldrh	r3, [r3, #0]
 8021be6:	2b00      	cmp	r3, #0
 8021be8:	f040 80a1 	bne.w	8021d2e <AL_ControlRes+0x1d6>
 8021bec:	4b61      	ldr	r3, [pc, #388]	; (8021d74 <AL_ControlRes+0x21c>)
 8021bee:	781b      	ldrb	r3, [r3, #0]
 8021bf0:	2b00      	cmp	r3, #0
 8021bf2:	f000 809a 	beq.w	8021d2a <AL_ControlRes+0x1d2>
 8021bf6:	4b60      	ldr	r3, [pc, #384]	; (8021d78 <AL_ControlRes+0x220>)
 8021bf8:	2201      	movs	r2, #1
 8021bfa:	701a      	strb	r2, [r3, #0]
 8021bfc:	2508      	movs	r5, #8
 8021bfe:	e098      	b.n	8021d32 <AL_ControlRes+0x1da>
 8021c00:	4b5b      	ldr	r3, [pc, #364]	; (8021d70 <AL_ControlRes+0x218>)
 8021c02:	881b      	ldrh	r3, [r3, #0]
 8021c04:	2b00      	cmp	r3, #0
 8021c06:	f040 8092 	bne.w	8021d2e <AL_ControlRes+0x1d6>
 8021c0a:	4b54      	ldr	r3, [pc, #336]	; (8021d5c <AL_ControlRes+0x204>)
 8021c0c:	781b      	ldrb	r3, [r3, #0]
 8021c0e:	f003 030f 	and.w	r3, r3, #15
 8021c12:	2b04      	cmp	r3, #4
 8021c14:	d1ef      	bne.n	8021bf6 <AL_ControlRes+0x9e>
 8021c16:	4b52      	ldr	r3, [pc, #328]	; (8021d60 <AL_ControlRes+0x208>)
 8021c18:	881c      	ldrh	r4, [r3, #0]
 8021c1a:	2c00      	cmp	r4, #0
 8021c1c:	f000 808c 	beq.w	8021d38 <AL_ControlRes+0x1e0>
 8021c20:	4b4d      	ldr	r3, [pc, #308]	; (8021d58 <AL_ControlRes+0x200>)
 8021c22:	781b      	ldrb	r3, [r3, #0]
 8021c24:	b90b      	cbnz	r3, 8021c2a <AL_ControlRes+0xd2>
 8021c26:	f7fe fa52 	bl	80200ce <APPL_StopOutputHandler>
 8021c2a:	f7ff fca3 	bl	8021574 <StopOutputHandler>
 8021c2e:	e087      	b.n	8021d40 <AL_ControlRes+0x1e8>
 8021c30:	8823      	ldrh	r3, [r4, #0]
 8021c32:	2b24      	cmp	r3, #36	; 0x24
 8021c34:	d01f      	beq.n	8021c76 <AL_ControlRes+0x11e>
 8021c36:	d803      	bhi.n	8021c40 <AL_ControlRes+0xe8>
 8021c38:	3b12      	subs	r3, #18
 8021c3a:	2b01      	cmp	r3, #1
 8021c3c:	d903      	bls.n	8021c46 <AL_ControlRes+0xee>
 8021c3e:	bd70      	pop	{r4, r5, r6, pc}
 8021c40:	2b48      	cmp	r3, #72	; 0x48
 8021c42:	d02f      	beq.n	8021ca4 <AL_ControlRes+0x14c>
 8021c44:	bd70      	pop	{r4, r5, r6, pc}
 8021c46:	4b44      	ldr	r3, [pc, #272]	; (8021d58 <AL_ControlRes+0x200>)
 8021c48:	781a      	ldrb	r2, [r3, #0]
 8021c4a:	2a00      	cmp	r2, #0
 8021c4c:	d07c      	beq.n	8021d48 <AL_ControlRes+0x1f0>
 8021c4e:	2200      	movs	r2, #0
 8021c50:	701a      	strb	r2, [r3, #0]
 8021c52:	f7fe fa32 	bl	80200ba <APPL_StartMailboxHandler>
 8021c56:	b930      	cbnz	r0, 8021c66 <AL_ControlRes+0x10e>
 8021c58:	4b48      	ldr	r3, [pc, #288]	; (8021d7c <AL_ControlRes+0x224>)
 8021c5a:	7825      	ldrb	r5, [r4, #0]
 8021c5c:	2201      	movs	r2, #1
 8021c5e:	701a      	strb	r2, [r3, #0]
 8021c60:	f005 050f 	and.w	r5, r5, #15
 8021c64:	e068      	b.n	8021d38 <AL_ControlRes+0x1e0>
 8021c66:	28ff      	cmp	r0, #255	; 0xff
 8021c68:	d06e      	beq.n	8021d48 <AL_ControlRes+0x1f0>
 8021c6a:	f7fe fa28 	bl	80200be <APPL_StopMailboxHandler>
 8021c6e:	e8bd 4070 	ldmia.w	sp!, {r4, r5, r6, lr}
 8021c72:	f000 bb0f 	b.w	8022294 <MBX_StopMailboxHandler>
 8021c76:	4b38      	ldr	r3, [pc, #224]	; (8021d58 <AL_ControlRes+0x200>)
 8021c78:	781a      	ldrb	r2, [r3, #0]
 8021c7a:	2a00      	cmp	r2, #0
 8021c7c:	d064      	beq.n	8021d48 <AL_ControlRes+0x1f0>
 8021c7e:	2200      	movs	r2, #0
 8021c80:	483f      	ldr	r0, [pc, #252]	; (8021d80 <AL_ControlRes+0x228>)
 8021c82:	701a      	strb	r2, [r3, #0]
 8021c84:	f7fe fa1d 	bl	80200c2 <APPL_StartInputHandler>
 8021c88:	b920      	cbnz	r0, 8021c94 <AL_ControlRes+0x13c>
 8021c8a:	4b3e      	ldr	r3, [pc, #248]	; (8021d84 <AL_ControlRes+0x22c>)
 8021c8c:	2201      	movs	r2, #1
 8021c8e:	701a      	strb	r2, [r3, #0]
 8021c90:	2504      	movs	r5, #4
 8021c92:	e03c      	b.n	8021d0e <AL_ControlRes+0x1b6>
 8021c94:	28ff      	cmp	r0, #255	; 0xff
 8021c96:	d057      	beq.n	8021d48 <AL_ControlRes+0x1f0>
 8021c98:	f7fe fa15 	bl	80200c6 <APPL_StopInputHandler>
 8021c9c:	e8bd 4070 	ldmia.w	sp!, {r4, r5, r6, lr}
 8021ca0:	f7ff bc72 	b.w	8021588 <StopInputHandler>
 8021ca4:	4b2c      	ldr	r3, [pc, #176]	; (8021d58 <AL_ControlRes+0x200>)
 8021ca6:	7819      	ldrb	r1, [r3, #0]
 8021ca8:	461a      	mov	r2, r3
 8021caa:	2900      	cmp	r1, #0
 8021cac:	d04c      	beq.n	8021d48 <AL_ControlRes+0x1f0>
 8021cae:	492d      	ldr	r1, [pc, #180]	; (8021d64 <AL_ControlRes+0x20c>)
 8021cb0:	7809      	ldrb	r1, [r1, #0]
 8021cb2:	b1e9      	cbz	r1, 8021cf0 <AL_ControlRes+0x198>
 8021cb4:	4834      	ldr	r0, [pc, #208]	; (8021d88 <AL_ControlRes+0x230>)
 8021cb6:	f9b0 2000 	ldrsh.w	r2, [r0]
 8021cba:	2a00      	cmp	r2, #0
 8021cbc:	dd44      	ble.n	8021d48 <AL_ControlRes+0x1f0>
 8021cbe:	4933      	ldr	r1, [pc, #204]	; (8021d8c <AL_ControlRes+0x234>)
 8021cc0:	f9b1 4000 	ldrsh.w	r4, [r1]
 8021cc4:	4294      	cmp	r4, r2
 8021cc6:	db3f      	blt.n	8021d48 <AL_ControlRes+0x1f0>
 8021cc8:	2200      	movs	r2, #0
 8021cca:	8002      	strh	r2, [r0, #0]
 8021ccc:	800a      	strh	r2, [r1, #0]
 8021cce:	701a      	strb	r2, [r3, #0]
 8021cd0:	f7fe f9fb 	bl	80200ca <APPL_StartOutputHandler>
 8021cd4:	b920      	cbnz	r0, 8021ce0 <AL_ControlRes+0x188>
 8021cd6:	4b28      	ldr	r3, [pc, #160]	; (8021d78 <AL_ControlRes+0x220>)
 8021cd8:	2201      	movs	r2, #1
 8021cda:	701a      	strb	r2, [r3, #0]
 8021cdc:	2508      	movs	r5, #8
 8021cde:	e016      	b.n	8021d0e <AL_ControlRes+0x1b6>
 8021ce0:	28ff      	cmp	r0, #255	; 0xff
 8021ce2:	d031      	beq.n	8021d48 <AL_ControlRes+0x1f0>
 8021ce4:	f7fe f9f3 	bl	80200ce <APPL_StopOutputHandler>
 8021ce8:	e8bd 4070 	ldmia.w	sp!, {r4, r5, r6, lr}
 8021cec:	f7ff bc42 	b.w	8021574 <StopOutputHandler>
 8021cf0:	4b1f      	ldr	r3, [pc, #124]	; (8021d70 <AL_ControlRes+0x218>)
 8021cf2:	881b      	ldrh	r3, [r3, #0]
 8021cf4:	b113      	cbz	r3, 8021cfc <AL_ControlRes+0x1a4>
 8021cf6:	4b1d      	ldr	r3, [pc, #116]	; (8021d6c <AL_ControlRes+0x214>)
 8021cf8:	781b      	ldrb	r3, [r3, #0]
 8021cfa:	b32b      	cbz	r3, 8021d48 <AL_ControlRes+0x1f0>
 8021cfc:	2300      	movs	r3, #0
 8021cfe:	7013      	strb	r3, [r2, #0]
 8021d00:	f7fe f9e3 	bl	80200ca <APPL_StartOutputHandler>
 8021d04:	2800      	cmp	r0, #0
 8021d06:	d0e6      	beq.n	8021cd6 <AL_ControlRes+0x17e>
 8021d08:	28ff      	cmp	r0, #255	; 0xff
 8021d0a:	d1eb      	bne.n	8021ce4 <AL_ControlRes+0x18c>
 8021d0c:	bd70      	pop	{r4, r5, r6, pc}
 8021d0e:	2400      	movs	r4, #0
 8021d10:	2300      	movs	r3, #0
 8021d12:	7033      	strb	r3, [r6, #0]
 8021d14:	b10c      	cbz	r4, 8021d1a <AL_ControlRes+0x1c2>
 8021d16:	f045 0510 	orr.w	r5, r5, #16
 8021d1a:	4628      	mov	r0, r5
 8021d1c:	4621      	mov	r1, r4
 8021d1e:	e8bd 4070 	ldmia.w	sp!, {r4, r5, r6, lr}
 8021d22:	f7ff bc9b 	b.w	802165c <SetALStatus>
 8021d26:	242d      	movs	r4, #45	; 0x2d
 8021d28:	e77a      	b.n	8021c20 <AL_ControlRes+0xc8>
 8021d2a:	241a      	movs	r4, #26
 8021d2c:	e778      	b.n	8021c20 <AL_ControlRes+0xc8>
 8021d2e:	241b      	movs	r4, #27
 8021d30:	e776      	b.n	8021c20 <AL_ControlRes+0xc8>
 8021d32:	2400      	movs	r4, #0
 8021d34:	7034      	strb	r4, [r6, #0]
 8021d36:	e7f0      	b.n	8021d1a <AL_ControlRes+0x1c2>
 8021d38:	2d00      	cmp	r5, #0
 8021d3a:	d1fa      	bne.n	8021d32 <AL_ControlRes+0x1da>
 8021d3c:	bd70      	pop	{r4, r5, r6, pc}
 8021d3e:	2401      	movs	r4, #1
 8021d40:	b115      	cbz	r5, 8021d48 <AL_ControlRes+0x1f0>
 8021d42:	2300      	movs	r3, #0
 8021d44:	7033      	strb	r3, [r6, #0]
 8021d46:	e7e6      	b.n	8021d16 <AL_ControlRes+0x1be>
 8021d48:	bd70      	pop	{r4, r5, r6, pc}
 8021d4a:	bf00      	nop
 8021d4c:	1ffea5e8 	.word	0x1ffea5e8
 8021d50:	1ffea5f2 	.word	0x1ffea5f2
 8021d54:	1ffea5be 	.word	0x1ffea5be
 8021d58:	1ffea5c0 	.word	0x1ffea5c0
 8021d5c:	1ffea5c6 	.word	0x1ffea5c6
 8021d60:	1ffea5c4 	.word	0x1ffea5c4
 8021d64:	1ffea5f4 	.word	0x1ffea5f4
 8021d68:	1ffea5dc 	.word	0x1ffea5dc
 8021d6c:	1ffea5f0 	.word	0x1ffea5f0
 8021d70:	1ffea5c2 	.word	0x1ffea5c2
 8021d74:	1ffea5f1 	.word	0x1ffea5f1
 8021d78:	1ffea5f5 	.word	0x1ffea5f5
 8021d7c:	1ffea672 	.word	0x1ffea672
 8021d80:	1ffea5da 	.word	0x1ffea5da
 8021d84:	1ffea5fa 	.word	0x1ffea5fa
 8021d88:	1ffea5d4 	.word	0x1ffea5d4
 8021d8c:	1ffea5cc 	.word	0x1ffea5cc

08021d90 <DC_CheckWatchdog>:
 8021d90:	4b27      	ldr	r3, [pc, #156]	; (8021e30 <DC_CheckWatchdog+0xa0>)
 8021d92:	781b      	ldrb	r3, [r3, #0]
 8021d94:	2b00      	cmp	r3, #0
 8021d96:	d049      	beq.n	8021e2c <DC_CheckWatchdog+0x9c>
 8021d98:	4b26      	ldr	r3, [pc, #152]	; (8021e34 <DC_CheckWatchdog+0xa4>)
 8021d9a:	781b      	ldrb	r3, [r3, #0]
 8021d9c:	2b00      	cmp	r3, #0
 8021d9e:	d045      	beq.n	8021e2c <DC_CheckWatchdog+0x9c>
 8021da0:	4b25      	ldr	r3, [pc, #148]	; (8021e38 <DC_CheckWatchdog+0xa8>)
 8021da2:	4a26      	ldr	r2, [pc, #152]	; (8021e3c <DC_CheckWatchdog+0xac>)
 8021da4:	8819      	ldrh	r1, [r3, #0]
 8021da6:	4b26      	ldr	r3, [pc, #152]	; (8021e40 <DC_CheckWatchdog+0xb0>)
 8021da8:	b121      	cbz	r1, 8021db4 <DC_CheckWatchdog+0x24>
 8021daa:	8810      	ldrh	r0, [r2, #0]
 8021dac:	4288      	cmp	r0, r1
 8021dae:	d301      	bcc.n	8021db4 <DC_CheckWatchdog+0x24>
 8021db0:	2200      	movs	r2, #0
 8021db2:	e006      	b.n	8021dc2 <DC_CheckWatchdog+0x32>
 8021db4:	8812      	ldrh	r2, [r2, #0]
 8021db6:	428a      	cmp	r2, r1
 8021db8:	bf3e      	ittt	cc
 8021dba:	4920      	ldrcc	r1, [pc, #128]	; (8021e3c <DC_CheckWatchdog+0xac>)
 8021dbc:	3201      	addcc	r2, #1
 8021dbe:	800a      	strhcc	r2, [r1, #0]
 8021dc0:	2201      	movs	r2, #1
 8021dc2:	701a      	strb	r2, [r3, #0]
 8021dc4:	781a      	ldrb	r2, [r3, #0]
 8021dc6:	b162      	cbz	r2, 8021de2 <DC_CheckWatchdog+0x52>
 8021dc8:	4a1e      	ldr	r2, [pc, #120]	; (8021e44 <DC_CheckWatchdog+0xb4>)
 8021dca:	8810      	ldrh	r0, [r2, #0]
 8021dcc:	b148      	cbz	r0, 8021de2 <DC_CheckWatchdog+0x52>
 8021dce:	491e      	ldr	r1, [pc, #120]	; (8021e48 <DC_CheckWatchdog+0xb8>)
 8021dd0:	880a      	ldrh	r2, [r1, #0]
 8021dd2:	4282      	cmp	r2, r0
 8021dd4:	bf2b      	itete	cs
 8021dd6:	4a1a      	ldrcs	r2, [pc, #104]	; (8021e40 <DC_CheckWatchdog+0xb0>)
 8021dd8:	3201      	addcc	r2, #1
 8021dda:	2100      	movcs	r1, #0
 8021ddc:	800a      	strhcc	r2, [r1, #0]
 8021dde:	bf28      	it	cs
 8021de0:	7011      	strbcs	r1, [r2, #0]
 8021de2:	781a      	ldrb	r2, [r3, #0]
 8021de4:	4b19      	ldr	r3, [pc, #100]	; (8021e4c <DC_CheckWatchdog+0xbc>)
 8021de6:	b1f2      	cbz	r2, 8021e26 <DC_CheckWatchdog+0x96>
 8021de8:	4a19      	ldr	r2, [pc, #100]	; (8021e50 <DC_CheckWatchdog+0xc0>)
 8021dea:	8912      	ldrh	r2, [r2, #8]
 8021dec:	b11a      	cbz	r2, 8021df6 <DC_CheckWatchdog+0x66>
 8021dee:	4919      	ldr	r1, [pc, #100]	; (8021e54 <DC_CheckWatchdog+0xc4>)
 8021df0:	8d09      	ldrh	r1, [r1, #40]	; 0x28
 8021df2:	4291      	cmp	r1, r2
 8021df4:	d20b      	bcs.n	8021e0e <DC_CheckWatchdog+0x7e>
 8021df6:	2201      	movs	r2, #1
 8021df8:	701a      	strb	r2, [r3, #0]
 8021dfa:	4b17      	ldr	r3, [pc, #92]	; (8021e58 <DC_CheckWatchdog+0xc8>)
 8021dfc:	f9b3 3000 	ldrsh.w	r3, [r3]
 8021e00:	2b00      	cmp	r3, #0
 8021e02:	dd13      	ble.n	8021e2c <DC_CheckWatchdog+0x9c>
 8021e04:	4a15      	ldr	r2, [pc, #84]	; (8021e5c <DC_CheckWatchdog+0xcc>)
 8021e06:	8813      	ldrh	r3, [r2, #0]
 8021e08:	3301      	adds	r3, #1
 8021e0a:	8013      	strh	r3, [r2, #0]
 8021e0c:	4770      	bx	lr
 8021e0e:	781a      	ldrb	r2, [r3, #0]
 8021e10:	b162      	cbz	r2, 8021e2c <DC_CheckWatchdog+0x9c>
 8021e12:	2200      	movs	r2, #0
 8021e14:	701a      	strb	r2, [r3, #0]
 8021e16:	4b10      	ldr	r3, [pc, #64]	; (8021e58 <DC_CheckWatchdog+0xc8>)
 8021e18:	f9b3 3000 	ldrsh.w	r3, [r3]
 8021e1c:	4293      	cmp	r3, r2
 8021e1e:	dd05      	ble.n	8021e2c <DC_CheckWatchdog+0x9c>
 8021e20:	4b0e      	ldr	r3, [pc, #56]	; (8021e5c <DC_CheckWatchdog+0xcc>)
 8021e22:	801a      	strh	r2, [r3, #0]
 8021e24:	4770      	bx	lr
 8021e26:	7819      	ldrb	r1, [r3, #0]
 8021e28:	b101      	cbz	r1, 8021e2c <DC_CheckWatchdog+0x9c>
 8021e2a:	701a      	strb	r2, [r3, #0]
 8021e2c:	4770      	bx	lr
 8021e2e:	bf00      	nop
 8021e30:	1ffea5f4 	.word	0x1ffea5f4
 8021e34:	1ffea5fa 	.word	0x1ffea5fa
 8021e38:	1ffea5d0 	.word	0x1ffea5d0
 8021e3c:	1ffea5c8 	.word	0x1ffea5c8
 8021e40:	1ffea5dc 	.word	0x1ffea5dc
 8021e44:	1ffea5d6 	.word	0x1ffea5d6
 8021e48:	1ffea5f6 	.word	0x1ffea5f6
 8021e4c:	1ffea5f1 	.word	0x1ffea5f1
 8021e50:	1ffe934c 	.word	0x1ffe934c
 8021e54:	1ffea6dc 	.word	0x1ffea6dc
 8021e58:	1ffea5d4 	.word	0x1ffea5d4
 8021e5c:	1ffea5cc 	.word	0x1ffea5cc

08021e60 <CheckIfEcatError>:
 8021e60:	4b12      	ldr	r3, [pc, #72]	; (8021eac <CheckIfEcatError+0x4c>)
 8021e62:	881b      	ldrh	r3, [r3, #0]
 8021e64:	b173      	cbz	r3, 8021e84 <CheckIfEcatError+0x24>
 8021e66:	4b12      	ldr	r3, [pc, #72]	; (8021eb0 <CheckIfEcatError+0x50>)
 8021e68:	881b      	ldrh	r3, [r3, #0]
 8021e6a:	07db      	lsls	r3, r3, #31
 8021e6c:	d40a      	bmi.n	8021e84 <CheckIfEcatError+0x24>
 8021e6e:	4b11      	ldr	r3, [pc, #68]	; (8021eb4 <CheckIfEcatError+0x54>)
 8021e70:	881b      	ldrh	r3, [r3, #0]
 8021e72:	b13b      	cbz	r3, 8021e84 <CheckIfEcatError+0x24>
 8021e74:	4b10      	ldr	r3, [pc, #64]	; (8021eb8 <CheckIfEcatError+0x58>)
 8021e76:	781b      	ldrb	r3, [r3, #0]
 8021e78:	b113      	cbz	r3, 8021e80 <CheckIfEcatError+0x20>
 8021e7a:	2004      	movs	r0, #4
 8021e7c:	211b      	movs	r1, #27
 8021e7e:	e012      	b.n	8021ea6 <CheckIfEcatError+0x46>
 8021e80:	4a0e      	ldr	r2, [pc, #56]	; (8021ebc <CheckIfEcatError+0x5c>)
 8021e82:	7013      	strb	r3, [r2, #0]
 8021e84:	4b0e      	ldr	r3, [pc, #56]	; (8021ec0 <CheckIfEcatError+0x60>)
 8021e86:	781b      	ldrb	r3, [r3, #0]
 8021e88:	b17b      	cbz	r3, 8021eaa <CheckIfEcatError+0x4a>
 8021e8a:	4b0b      	ldr	r3, [pc, #44]	; (8021eb8 <CheckIfEcatError+0x58>)
 8021e8c:	781b      	ldrb	r3, [r3, #0]
 8021e8e:	b163      	cbz	r3, 8021eaa <CheckIfEcatError+0x4a>
 8021e90:	4b0c      	ldr	r3, [pc, #48]	; (8021ec4 <CheckIfEcatError+0x64>)
 8021e92:	781b      	ldrb	r3, [r3, #0]
 8021e94:	b913      	cbnz	r3, 8021e9c <CheckIfEcatError+0x3c>
 8021e96:	2004      	movs	r0, #4
 8021e98:	212c      	movs	r1, #44	; 0x2c
 8021e9a:	e004      	b.n	8021ea6 <CheckIfEcatError+0x46>
 8021e9c:	4b0a      	ldr	r3, [pc, #40]	; (8021ec8 <CheckIfEcatError+0x68>)
 8021e9e:	781b      	ldrb	r3, [r3, #0]
 8021ea0:	b91b      	cbnz	r3, 8021eaa <CheckIfEcatError+0x4a>
 8021ea2:	2004      	movs	r0, #4
 8021ea4:	211a      	movs	r1, #26
 8021ea6:	f7ff bc11 	b.w	80216cc <AL_ControlInd>
 8021eaa:	4770      	bx	lr
 8021eac:	1ffea5f8 	.word	0x1ffea5f8
 8021eb0:	54010440 	.word	0x54010440
 8021eb4:	1ffea5c2 	.word	0x1ffea5c2
 8021eb8:	1ffea5f5 	.word	0x1ffea5f5
 8021ebc:	1ffea5f0 	.word	0x1ffea5f0
 8021ec0:	1ffea5f4 	.word	0x1ffea5f4
 8021ec4:	1ffea5dc 	.word	0x1ffea5dc
 8021ec8:	1ffea5f1 	.word	0x1ffea5f1

08021ecc <ECAT_Init>:
 8021ecc:	b538      	push	{r3, r4, r5, lr}
 8021ece:	4b28      	ldr	r3, [pc, #160]	; (8021f70 <ECAT_Init+0xa4>)
 8021ed0:	4c28      	ldr	r4, [pc, #160]	; (8021f74 <ECAT_Init+0xa8>)
 8021ed2:	781b      	ldrb	r3, [r3, #0]
 8021ed4:	7023      	strb	r3, [r4, #0]
 8021ed6:	4b28      	ldr	r3, [pc, #160]	; (8021f78 <ECAT_Init+0xac>)
 8021ed8:	4a28      	ldr	r2, [pc, #160]	; (8021f7c <ECAT_Init+0xb0>)
 8021eda:	881b      	ldrh	r3, [r3, #0]
 8021edc:	b29b      	uxth	r3, r3
 8021ede:	029b      	lsls	r3, r3, #10
 8021ee0:	f603 73ff 	addw	r3, r3, #4095	; 0xfff
 8021ee4:	8013      	strh	r3, [r2, #0]
 8021ee6:	f7fe ff87 	bl	8020df8 <UpdateEEPROMLoadedState>
 8021eea:	2500      	movs	r5, #0
 8021eec:	7823      	ldrb	r3, [r4, #0]
 8021eee:	b2e8      	uxtb	r0, r5
 8021ef0:	4283      	cmp	r3, r0
 8021ef2:	f105 0501 	add.w	r5, r5, #1
 8021ef6:	d902      	bls.n	8021efe <ECAT_Init+0x32>
 8021ef8:	f7fe ff9e 	bl	8020e38 <DisableSyncManChannel>
 8021efc:	e7f6      	b.n	8021eec <ECAT_Init+0x20>
 8021efe:	f000 f921 	bl	8022144 <MBX_Init>
 8021f02:	4b1f      	ldr	r3, [pc, #124]	; (8021f80 <ECAT_Init+0xb4>)
 8021f04:	2400      	movs	r4, #0
 8021f06:	701c      	strb	r4, [r3, #0]
 8021f08:	4b1e      	ldr	r3, [pc, #120]	; (8021f84 <ECAT_Init+0xb8>)
 8021f0a:	701c      	strb	r4, [r3, #0]
 8021f0c:	4b1e      	ldr	r3, [pc, #120]	; (8021f88 <ECAT_Init+0xbc>)
 8021f0e:	701c      	strb	r4, [r3, #0]
 8021f10:	4b1e      	ldr	r3, [pc, #120]	; (8021f8c <ECAT_Init+0xc0>)
 8021f12:	701c      	strb	r4, [r3, #0]
 8021f14:	4b1e      	ldr	r3, [pc, #120]	; (8021f90 <ECAT_Init+0xc4>)
 8021f16:	701c      	strb	r4, [r3, #0]
 8021f18:	4b1e      	ldr	r3, [pc, #120]	; (8021f94 <ECAT_Init+0xc8>)
 8021f1a:	701c      	strb	r4, [r3, #0]
 8021f1c:	4b1e      	ldr	r3, [pc, #120]	; (8021f98 <ECAT_Init+0xcc>)
 8021f1e:	801c      	strh	r4, [r3, #0]
 8021f20:	4b1e      	ldr	r3, [pc, #120]	; (8021f9c <ECAT_Init+0xd0>)
 8021f22:	801c      	strh	r4, [r3, #0]
 8021f24:	4b1e      	ldr	r3, [pc, #120]	; (8021fa0 <ECAT_Init+0xd4>)
 8021f26:	801c      	strh	r4, [r3, #0]
 8021f28:	4b1e      	ldr	r3, [pc, #120]	; (8021fa4 <ECAT_Init+0xd8>)
 8021f2a:	801c      	strh	r4, [r3, #0]
 8021f2c:	4b1e      	ldr	r3, [pc, #120]	; (8021fa8 <ECAT_Init+0xdc>)
 8021f2e:	801c      	strh	r4, [r3, #0]
 8021f30:	4b1e      	ldr	r3, [pc, #120]	; (8021fac <ECAT_Init+0xe0>)
 8021f32:	701c      	strb	r4, [r3, #0]
 8021f34:	4b1e      	ldr	r3, [pc, #120]	; (8021fb0 <ECAT_Init+0xe4>)
 8021f36:	701c      	strb	r4, [r3, #0]
 8021f38:	4b1e      	ldr	r3, [pc, #120]	; (8021fb4 <ECAT_Init+0xe8>)
 8021f3a:	801c      	strh	r4, [r3, #0]
 8021f3c:	4b1e      	ldr	r3, [pc, #120]	; (8021fb8 <ECAT_Init+0xec>)
 8021f3e:	801c      	strh	r4, [r3, #0]
 8021f40:	4b1e      	ldr	r3, [pc, #120]	; (8021fbc <ECAT_Init+0xf0>)
 8021f42:	801c      	strh	r4, [r3, #0]
 8021f44:	4b1e      	ldr	r3, [pc, #120]	; (8021fc0 <ECAT_Init+0xf4>)
 8021f46:	801c      	strh	r4, [r3, #0]
 8021f48:	4b1e      	ldr	r3, [pc, #120]	; (8021fc4 <ECAT_Init+0xf8>)
 8021f4a:	2001      	movs	r0, #1
 8021f4c:	4621      	mov	r1, r4
 8021f4e:	7018      	strb	r0, [r3, #0]
 8021f50:	f7ff fb84 	bl	802165c <SetALStatus>
 8021f54:	4b1c      	ldr	r3, [pc, #112]	; (8021fc8 <ECAT_Init+0xfc>)
 8021f56:	801c      	strh	r4, [r3, #0]
 8021f58:	4b1c      	ldr	r3, [pc, #112]	; (8021fcc <ECAT_Init+0x100>)
 8021f5a:	701c      	strb	r4, [r3, #0]
 8021f5c:	4b1c      	ldr	r3, [pc, #112]	; (8021fd0 <ECAT_Init+0x104>)
 8021f5e:	701c      	strb	r4, [r3, #0]
 8021f60:	f7fe feee 	bl	8020d40 <COE_Init>
 8021f64:	4620      	mov	r0, r4
 8021f66:	e8bd 4038 	ldmia.w	sp!, {r3, r4, r5, lr}
 8021f6a:	f7fe bf29 	b.w	8020dc0 <ResetALEventMask>
 8021f6e:	bf00      	nop
 8021f70:	54010005 	.word	0x54010005
 8021f74:	1ffea600 	.word	0x1ffea600
 8021f78:	54010006 	.word	0x54010006
 8021f7c:	1ffea5ee 	.word	0x1ffea5ee
 8021f80:	1ffea5c0 	.word	0x1ffea5c0
 8021f84:	1ffea5e8 	.word	0x1ffea5e8
 8021f88:	1ffea5f0 	.word	0x1ffea5f0
 8021f8c:	1ffea5f5 	.word	0x1ffea5f5
 8021f90:	1ffea5fa 	.word	0x1ffea5fa
 8021f94:	1ffea5fc 	.word	0x1ffea5fc
 8021f98:	1ffea5f8 	.word	0x1ffea5f8
 8021f9c:	1ffea5c8 	.word	0x1ffea5c8
 8021fa0:	1ffea5d0 	.word	0x1ffea5d0
 8021fa4:	1ffea5f6 	.word	0x1ffea5f6
 8021fa8:	1ffea5d6 	.word	0x1ffea5d6
 8021fac:	1ffea5f4 	.word	0x1ffea5f4
 8021fb0:	1ffea5c6 	.word	0x1ffea5c6
 8021fb4:	1ffea5c4 	.word	0x1ffea5c4
 8021fb8:	1ffea5da 	.word	0x1ffea5da
 8021fbc:	1ffea5c2 	.word	0x1ffea5c2
 8021fc0:	1ffea5ea 	.word	0x1ffea5ea
 8021fc4:	1ffea5c1 	.word	0x1ffea5c1
 8021fc8:	1ffea5be 	.word	0x1ffea5be
 8021fcc:	1ffea601 	.word	0x1ffea601
 8021fd0:	1ffea5fb 	.word	0x1ffea5fb

08021fd4 <ECAT_Main>:
 8021fd4:	e92d 41f0 	stmdb	sp!, {r4, r5, r6, r7, r8, lr}
 8021fd8:	4f3b      	ldr	r7, [pc, #236]	; (80220c8 <ECAT_Main+0xf4>)
 8021fda:	f000 fb9b 	bl	8022714 <MBX_Main>
 8021fde:	783c      	ldrb	r4, [r7, #0]
 8021fe0:	b134      	cbz	r4, 8021ff0 <ECAT_Main+0x1c>
 8021fe2:	4b3a      	ldr	r3, [pc, #232]	; (80220cc <ECAT_Main+0xf8>)
 8021fe4:	781b      	ldrb	r3, [r3, #0]
 8021fe6:	b2de      	uxtb	r6, r3
 8021fe8:	4b39      	ldr	r3, [pc, #228]	; (80220d0 <ECAT_Main+0xfc>)
 8021fea:	781c      	ldrb	r4, [r3, #0]
 8021fec:	b2e4      	uxtb	r4, r4
 8021fee:	e000      	b.n	8021ff2 <ECAT_Main+0x1e>
 8021ff0:	2601      	movs	r6, #1
 8021ff2:	4b38      	ldr	r3, [pc, #224]	; (80220d4 <ECAT_Main+0x100>)
 8021ff4:	f8d3 5220 	ldr.w	r5, [r3, #544]	; 0x220
 8021ff8:	b2ad      	uxth	r5, r5
 8021ffa:	06a9      	lsls	r1, r5, #26
 8021ffc:	d501      	bpl.n	8022002 <ECAT_Main+0x2e>
 8021ffe:	f7fe fdf9 	bl	8020bf4 <EEPROM_CommandHandler>
 8022002:	f015 0f01 	tst.w	r5, #1
 8022006:	f8df 80ec 	ldr.w	r8, [pc, #236]	; 80220f4 <ECAT_Main+0x120>
 802200a:	d009      	beq.n	8022020 <ECAT_Main+0x4c>
 802200c:	f898 1000 	ldrb.w	r1, [r8]
 8022010:	b931      	cbnz	r1, 8022020 <ECAT_Main+0x4c>
 8022012:	4b31      	ldr	r3, [pc, #196]	; (80220d8 <ECAT_Main+0x104>)
 8022014:	f025 0511 	bic.w	r5, r5, #17
 8022018:	7818      	ldrb	r0, [r3, #0]
 802201a:	b2ad      	uxth	r5, r5
 802201c:	f7ff fb56 	bl	80216cc <AL_ControlInd>
 8022020:	06ea      	lsls	r2, r5, #27
 8022022:	d511      	bpl.n	8022048 <ECAT_Main+0x74>
 8022024:	f898 3000 	ldrb.w	r3, [r8]
 8022028:	b973      	cbnz	r3, 8022048 <ECAT_Main+0x74>
 802202a:	4b2c      	ldr	r3, [pc, #176]	; (80220dc <ECAT_Main+0x108>)
 802202c:	7818      	ldrb	r0, [r3, #0]
 802202e:	f000 0310 	and.w	r3, r0, #16
 8022032:	f003 01ff 	and.w	r1, r3, #255	; 0xff
 8022036:	b93b      	cbnz	r3, 8022048 <ECAT_Main+0x74>
 8022038:	f020 0310 	bic.w	r3, r0, #16
 802203c:	2b01      	cmp	r3, #1
 802203e:	d003      	beq.n	8022048 <ECAT_Main+0x74>
 8022040:	f000 000f 	and.w	r0, r0, #15
 8022044:	f7ff fb42 	bl	80216cc <AL_ControlInd>
 8022048:	f898 3000 	ldrb.w	r3, [r8]
 802204c:	b10b      	cbz	r3, 8022052 <ECAT_Main+0x7e>
 802204e:	f7ff fd83 	bl	8021b58 <AL_ControlRes>
 8022052:	783b      	ldrb	r3, [r7, #0]
 8022054:	2b00      	cmp	r3, #0
 8022056:	d035      	beq.n	80220c4 <ECAT_Main+0xf0>
 8022058:	f016 0101 	ands.w	r1, r6, #1
 802205c:	d105      	bne.n	802206a <ECAT_Main+0x96>
 802205e:	4b1f      	ldr	r3, [pc, #124]	; (80220dc <ECAT_Main+0x108>)
 8022060:	7818      	ldrb	r0, [r3, #0]
 8022062:	f000 000f 	and.w	r0, r0, #15
 8022066:	f7ff fb31 	bl	80216cc <AL_ControlInd>
 802206a:	f004 0408 	and.w	r4, r4, #8
 802206e:	f004 03ff 	and.w	r3, r4, #255	; 0xff
 8022072:	b97c      	cbnz	r4, 8022094 <ECAT_Main+0xc0>
 8022074:	4a1a      	ldr	r2, [pc, #104]	; (80220e0 <ECAT_Main+0x10c>)
 8022076:	7812      	ldrb	r2, [r2, #0]
 8022078:	b162      	cbz	r2, 8022094 <ECAT_Main+0xc0>
 802207a:	4a1a      	ldr	r2, [pc, #104]	; (80220e4 <ECAT_Main+0x110>)
 802207c:	7013      	strb	r3, [r2, #0]
 802207e:	4b1a      	ldr	r3, [pc, #104]	; (80220e8 <ECAT_Main+0x114>)
 8022080:	7812      	ldrb	r2, [r2, #0]
 8022082:	881b      	ldrh	r3, [r3, #0]
 8022084:	f103 43a8 	add.w	r3, r3, #1409286144	; 0x54000000
 8022088:	f503 3380 	add.w	r3, r3, #65536	; 0x10000
 802208c:	b2d2      	uxtb	r2, r2
 802208e:	701a      	strb	r2, [r3, #0]
 8022090:	f000 f9e6 	bl	8022460 <MBX_MailboxReadInd>
 8022094:	f006 0302 	and.w	r3, r6, #2
 8022098:	f003 04ff 	and.w	r4, r3, #255	; 0xff
 802209c:	4a13      	ldr	r2, [pc, #76]	; (80220ec <ECAT_Main+0x118>)
 802209e:	b113      	cbz	r3, 80220a6 <ECAT_Main+0xd2>
 80220a0:	7813      	ldrb	r3, [r2, #0]
 80220a2:	b933      	cbnz	r3, 80220b2 <ECAT_Main+0xde>
 80220a4:	e001      	b.n	80220aa <ECAT_Main+0xd6>
 80220a6:	7813      	ldrb	r3, [r2, #0]
 80220a8:	b11b      	cbz	r3, 80220b2 <ECAT_Main+0xde>
 80220aa:	f000 fa1b 	bl	80224e4 <MBX_MailboxRepeatReq>
 80220ae:	4b10      	ldr	r3, [pc, #64]	; (80220f0 <ECAT_Main+0x11c>)
 80220b0:	701c      	strb	r4, [r3, #0]
 80220b2:	4b08      	ldr	r3, [pc, #32]	; (80220d4 <ECAT_Main+0x100>)
 80220b4:	f8d3 3220 	ldr.w	r3, [r3, #544]	; 0x220
 80220b8:	05db      	lsls	r3, r3, #23
 80220ba:	d503      	bpl.n	80220c4 <ECAT_Main+0xf0>
 80220bc:	e8bd 41f0 	ldmia.w	sp!, {r4, r5, r6, r7, r8, lr}
 80220c0:	f000 baae 	b.w	8022620 <MBX_CheckAndCopyMailbox>
 80220c4:	e8bd 81f0 	ldmia.w	sp!, {r4, r5, r6, r7, r8, pc}
 80220c8:	1ffea672 	.word	0x1ffea672
 80220cc:	5401080e 	.word	0x5401080e
 80220d0:	5401080d 	.word	0x5401080d
 80220d4:	54010000 	.word	0x54010000
 80220d8:	54010120 	.word	0x54010120
 80220dc:	1ffea5c1 	.word	0x1ffea5c1
 80220e0:	1ffea671 	.word	0x1ffea671
 80220e4:	1ffea5d8 	.word	0x1ffea5d8
 80220e8:	1ffea686 	.word	0x1ffea686
 80220ec:	1ffea690 	.word	0x1ffea690
 80220f0:	5401080f 	.word	0x5401080f
 80220f4:	1ffea5e8 	.word	0x1ffea5e8

080220f8 <PutInMbxQueue>:
 80220f8:	884a      	ldrh	r2, [r1, #2]
 80220fa:	b510      	push	{r4, lr}
 80220fc:	1c53      	adds	r3, r2, #1
 80220fe:	888c      	ldrh	r4, [r1, #4]
 8022100:	b29b      	uxth	r3, r3
 8022102:	429c      	cmp	r4, r3
 8022104:	bf08      	it	eq
 8022106:	2300      	moveq	r3, #0
 8022108:	880c      	ldrh	r4, [r1, #0]
 802210a:	429c      	cmp	r4, r3
 802210c:	bf1f      	itttt	ne
 802210e:	3202      	addne	r2, #2
 8022110:	f841 0022 	strne.w	r0, [r1, r2, lsl #2]
 8022114:	2000      	movne	r0, #0
 8022116:	804b      	strhne	r3, [r1, #2]
 8022118:	bf08      	it	eq
 802211a:	2007      	moveq	r0, #7
 802211c:	bd10      	pop	{r4, pc}

0802211e <GetOutOfMbxQueue>:
 802211e:	8803      	ldrh	r3, [r0, #0]
 8022120:	8841      	ldrh	r1, [r0, #2]
 8022122:	4299      	cmp	r1, r3
 8022124:	4602      	mov	r2, r0
 8022126:	d00b      	beq.n	8022140 <GetOutOfMbxQueue+0x22>
 8022128:	1c99      	adds	r1, r3, #2
 802212a:	3301      	adds	r3, #1
 802212c:	f850 0021 	ldr.w	r0, [r0, r1, lsl #2]
 8022130:	8891      	ldrh	r1, [r2, #4]
 8022132:	b29b      	uxth	r3, r3
 8022134:	4299      	cmp	r1, r3
 8022136:	8013      	strh	r3, [r2, #0]
 8022138:	d103      	bne.n	8022142 <GetOutOfMbxQueue+0x24>
 802213a:	2300      	movs	r3, #0
 802213c:	8013      	strh	r3, [r2, #0]
 802213e:	4770      	bx	lr
 8022140:	2000      	movs	r0, #0
 8022142:	4770      	bx	lr

08022144 <MBX_Init>:
 8022144:	4b18      	ldr	r3, [pc, #96]	; (80221a8 <MBX_Init+0x64>)
 8022146:	2224      	movs	r2, #36	; 0x24
 8022148:	801a      	strh	r2, [r3, #0]
 802214a:	4b18      	ldr	r3, [pc, #96]	; (80221ac <MBX_Init+0x68>)
 802214c:	2280      	movs	r2, #128	; 0x80
 802214e:	801a      	strh	r2, [r3, #0]
 8022150:	4a17      	ldr	r2, [pc, #92]	; (80221b0 <MBX_Init+0x6c>)
 8022152:	f44f 5380 	mov.w	r3, #4096	; 0x1000
 8022156:	8013      	strh	r3, [r2, #0]
 8022158:	4a16      	ldr	r2, [pc, #88]	; (80221b4 <MBX_Init+0x70>)
 802215a:	8013      	strh	r3, [r2, #0]
 802215c:	4a16      	ldr	r2, [pc, #88]	; (80221b8 <MBX_Init+0x74>)
 802215e:	2300      	movs	r3, #0
 8022160:	210a      	movs	r1, #10
 8022162:	8013      	strh	r3, [r2, #0]
 8022164:	8053      	strh	r3, [r2, #2]
 8022166:	8091      	strh	r1, [r2, #4]
 8022168:	4a14      	ldr	r2, [pc, #80]	; (80221bc <MBX_Init+0x78>)
 802216a:	8013      	strh	r3, [r2, #0]
 802216c:	8053      	strh	r3, [r2, #2]
 802216e:	8091      	strh	r1, [r2, #4]
 8022170:	4a13      	ldr	r2, [pc, #76]	; (80221c0 <MBX_Init+0x7c>)
 8022172:	4914      	ldr	r1, [pc, #80]	; (80221c4 <MBX_Init+0x80>)
 8022174:	6013      	str	r3, [r2, #0]
 8022176:	4a14      	ldr	r2, [pc, #80]	; (80221c8 <MBX_Init+0x84>)
 8022178:	6013      	str	r3, [r2, #0]
 802217a:	4a14      	ldr	r2, [pc, #80]	; (80221cc <MBX_Init+0x88>)
 802217c:	6013      	str	r3, [r2, #0]
 802217e:	4a14      	ldr	r2, [pc, #80]	; (80221d0 <MBX_Init+0x8c>)
 8022180:	6013      	str	r3, [r2, #0]
 8022182:	4a14      	ldr	r2, [pc, #80]	; (80221d4 <MBX_Init+0x90>)
 8022184:	7013      	strb	r3, [r2, #0]
 8022186:	780a      	ldrb	r2, [r1, #0]
 8022188:	f002 02fd 	and.w	r2, r2, #253	; 0xfd
 802218c:	700a      	strb	r2, [r1, #0]
 802218e:	4a12      	ldr	r2, [pc, #72]	; (80221d8 <MBX_Init+0x94>)
 8022190:	7013      	strb	r3, [r2, #0]
 8022192:	4a12      	ldr	r2, [pc, #72]	; (80221dc <MBX_Init+0x98>)
 8022194:	7013      	strb	r3, [r2, #0]
 8022196:	4a12      	ldr	r2, [pc, #72]	; (80221e0 <MBX_Init+0x9c>)
 8022198:	7013      	strb	r3, [r2, #0]
 802219a:	4a12      	ldr	r2, [pc, #72]	; (80221e4 <MBX_Init+0xa0>)
 802219c:	7013      	strb	r3, [r2, #0]
 802219e:	4a12      	ldr	r2, [pc, #72]	; (80221e8 <MBX_Init+0xa4>)
 80221a0:	7013      	strb	r3, [r2, #0]
 80221a2:	4a12      	ldr	r2, [pc, #72]	; (80221ec <MBX_Init+0xa8>)
 80221a4:	7013      	strb	r3, [r2, #0]
 80221a6:	4770      	bx	lr
 80221a8:	1ffea68e 	.word	0x1ffea68e
 80221ac:	1ffea67c 	.word	0x1ffea67c
 80221b0:	1ffea674 	.word	0x1ffea674
 80221b4:	1ffea686 	.word	0x1ffea686
 80221b8:	1ffea63c 	.word	0x1ffea63c
 80221bc:	1ffea608 	.word	0x1ffea608
 80221c0:	1ffea688 	.word	0x1ffea688
 80221c4:	5401080f 	.word	0x5401080f
 80221c8:	1ffea694 	.word	0x1ffea694
 80221cc:	1ffea680 	.word	0x1ffea680
 80221d0:	1ffea678 	.word	0x1ffea678
 80221d4:	1ffea690 	.word	0x1ffea690
 80221d8:	1ffea672 	.word	0x1ffea672
 80221dc:	1ffea671 	.word	0x1ffea671
 80221e0:	1ffea684 	.word	0x1ffea684
 80221e4:	1ffea68d 	.word	0x1ffea68d
 80221e8:	1ffea68c 	.word	0x1ffea68c
 80221ec:	1ffea604 	.word	0x1ffea604

080221f0 <MBX_StartMailboxHandler>:
 80221f0:	b570      	push	{r4, r5, r6, lr}
 80221f2:	2000      	movs	r0, #0
 80221f4:	f7fe fe12 	bl	8020e1c <GetSyncMan>
 80221f8:	78c2      	ldrb	r2, [r0, #3]
 80221fa:	7883      	ldrb	r3, [r0, #2]
 80221fc:	4c1f      	ldr	r4, [pc, #124]	; (802227c <MBX_StartMailboxHandler+0x8c>)
 80221fe:	4d20      	ldr	r5, [pc, #128]	; (8022280 <MBX_StartMailboxHandler+0x90>)
 8022200:	ea43 2302 	orr.w	r3, r3, r2, lsl #8
 8022204:	8023      	strh	r3, [r4, #0]
 8022206:	7842      	ldrb	r2, [r0, #1]
 8022208:	7803      	ldrb	r3, [r0, #0]
 802220a:	2001      	movs	r0, #1
 802220c:	ea43 2302 	orr.w	r3, r3, r2, lsl #8
 8022210:	802b      	strh	r3, [r5, #0]
 8022212:	f7fe fe03 	bl	8020e1c <GetSyncMan>
 8022216:	4a1b      	ldr	r2, [pc, #108]	; (8022284 <MBX_StartMailboxHandler+0x94>)
 8022218:	8843      	ldrh	r3, [r0, #2]
 802221a:	491b      	ldr	r1, [pc, #108]	; (8022288 <MBX_StartMailboxHandler+0x98>)
 802221c:	8013      	strh	r3, [r2, #0]
 802221e:	8802      	ldrh	r2, [r0, #0]
 8022220:	800a      	strh	r2, [r1, #0]
 8022222:	8828      	ldrh	r0, [r5, #0]
 8022224:	8821      	ldrh	r1, [r4, #0]
 8022226:	4401      	add	r1, r0
 8022228:	4291      	cmp	r1, r2
 802222a:	dd02      	ble.n	8022232 <MBX_StartMailboxHandler+0x42>
 802222c:	4413      	add	r3, r2
 802222e:	4298      	cmp	r0, r3
 8022230:	db21      	blt.n	8022276 <MBX_StartMailboxHandler+0x86>
 8022232:	2000      	movs	r0, #0
 8022234:	f7fe fe18 	bl	8020e68 <EnableSyncManChannel>
 8022238:	2001      	movs	r0, #1
 802223a:	f7fe fe15 	bl	8020e68 <EnableSyncManChannel>
 802223e:	8820      	ldrh	r0, [r4, #0]
 8022240:	4d12      	ldr	r5, [pc, #72]	; (802228c <MBX_StartMailboxHandler+0x9c>)
 8022242:	f003 fca3 	bl	8025b8c <malloc>
 8022246:	4b12      	ldr	r3, [pc, #72]	; (8022290 <MBX_StartMailboxHandler+0xa0>)
 8022248:	6028      	str	r0, [r5, #0]
 802224a:	4606      	mov	r6, r0
 802224c:	b960      	cbnz	r0, 8022268 <MBX_StartMailboxHandler+0x78>
 802224e:	2201      	movs	r2, #1
 8022250:	200a      	movs	r0, #10
 8022252:	701a      	strb	r2, [r3, #0]
 8022254:	f003 fc9a 	bl	8025b8c <malloc>
 8022258:	2800      	cmp	r0, #0
 802225a:	bf14      	ite	ne
 802225c:	2400      	movne	r4, #0
 802225e:	2402      	moveq	r4, #2
 8022260:	f003 fc9c 	bl	8025b9c <free>
 8022264:	602e      	str	r6, [r5, #0]
 8022266:	e004      	b.n	8022272 <MBX_StartMailboxHandler+0x82>
 8022268:	2400      	movs	r4, #0
 802226a:	701c      	strb	r4, [r3, #0]
 802226c:	f003 fc96 	bl	8025b9c <free>
 8022270:	602c      	str	r4, [r5, #0]
 8022272:	4620      	mov	r0, r4
 8022274:	bd70      	pop	{r4, r5, r6, pc}
 8022276:	2016      	movs	r0, #22
 8022278:	bd70      	pop	{r4, r5, r6, pc}
 802227a:	bf00      	nop
 802227c:	1ffea68e 	.word	0x1ffea68e
 8022280:	1ffea674 	.word	0x1ffea674
 8022284:	1ffea67c 	.word	0x1ffea67c
 8022288:	1ffea686 	.word	0x1ffea686
 802228c:	1ffea688 	.word	0x1ffea688
 8022290:	1ffea670 	.word	0x1ffea670

08022294 <MBX_StopMailboxHandler>:
 8022294:	4b24      	ldr	r3, [pc, #144]	; (8022328 <MBX_StopMailboxHandler+0x94>)
 8022296:	b570      	push	{r4, r5, r6, lr}
 8022298:	2000      	movs	r0, #0
 802229a:	4c24      	ldr	r4, [pc, #144]	; (802232c <MBX_StopMailboxHandler+0x98>)
 802229c:	7018      	strb	r0, [r3, #0]
 802229e:	f7fe fdcb 	bl	8020e38 <DisableSyncManChannel>
 80222a2:	2001      	movs	r0, #1
 80222a4:	f7fe fdc8 	bl	8020e38 <DisableSyncManChannel>
 80222a8:	6820      	ldr	r0, [r4, #0]
 80222aa:	b108      	cbz	r0, 80222b0 <MBX_StopMailboxHandler+0x1c>
 80222ac:	f003 fc76 	bl	8025b9c <free>
 80222b0:	4d1f      	ldr	r5, [pc, #124]	; (8022330 <MBX_StopMailboxHandler+0x9c>)
 80222b2:	6828      	ldr	r0, [r5, #0]
 80222b4:	b120      	cbz	r0, 80222c0 <MBX_StopMailboxHandler+0x2c>
 80222b6:	6823      	ldr	r3, [r4, #0]
 80222b8:	4298      	cmp	r0, r3
 80222ba:	d001      	beq.n	80222c0 <MBX_StopMailboxHandler+0x2c>
 80222bc:	f003 fc6e 	bl	8025b9c <free>
 80222c0:	4b1c      	ldr	r3, [pc, #112]	; (8022334 <MBX_StopMailboxHandler+0xa0>)
 80222c2:	6818      	ldr	r0, [r3, #0]
 80222c4:	461e      	mov	r6, r3
 80222c6:	b138      	cbz	r0, 80222d8 <MBX_StopMailboxHandler+0x44>
 80222c8:	6823      	ldr	r3, [r4, #0]
 80222ca:	4298      	cmp	r0, r3
 80222cc:	d004      	beq.n	80222d8 <MBX_StopMailboxHandler+0x44>
 80222ce:	682b      	ldr	r3, [r5, #0]
 80222d0:	4298      	cmp	r0, r3
 80222d2:	d001      	beq.n	80222d8 <MBX_StopMailboxHandler+0x44>
 80222d4:	f003 fc62 	bl	8025b9c <free>
 80222d8:	f001 fc14 	bl	8023b04 <SDOS_ClearPendingResponse>
 80222dc:	4a16      	ldr	r2, [pc, #88]	; (8022338 <MBX_StopMailboxHandler+0xa4>)
 80222de:	4917      	ldr	r1, [pc, #92]	; (802233c <MBX_StopMailboxHandler+0xa8>)
 80222e0:	2300      	movs	r3, #0
 80222e2:	6013      	str	r3, [r2, #0]
 80222e4:	4a16      	ldr	r2, [pc, #88]	; (8022340 <MBX_StopMailboxHandler+0xac>)
 80222e6:	6023      	str	r3, [r4, #0]
 80222e8:	7013      	strb	r3, [r2, #0]
 80222ea:	6033      	str	r3, [r6, #0]
 80222ec:	602b      	str	r3, [r5, #0]
 80222ee:	780a      	ldrb	r2, [r1, #0]
 80222f0:	f002 02fd 	and.w	r2, r2, #253	; 0xfd
 80222f4:	700a      	strb	r2, [r1, #0]
 80222f6:	4a13      	ldr	r2, [pc, #76]	; (8022344 <MBX_StopMailboxHandler+0xb0>)
 80222f8:	7013      	strb	r3, [r2, #0]
 80222fa:	4a13      	ldr	r2, [pc, #76]	; (8022348 <MBX_StopMailboxHandler+0xb4>)
 80222fc:	7013      	strb	r3, [r2, #0]
 80222fe:	4a13      	ldr	r2, [pc, #76]	; (802234c <MBX_StopMailboxHandler+0xb8>)
 8022300:	7013      	strb	r3, [r2, #0]
 8022302:	4a13      	ldr	r2, [pc, #76]	; (8022350 <MBX_StopMailboxHandler+0xbc>)
 8022304:	7013      	strb	r3, [r2, #0]
 8022306:	4a13      	ldr	r2, [pc, #76]	; (8022354 <MBX_StopMailboxHandler+0xc0>)
 8022308:	7013      	strb	r3, [r2, #0]
 802230a:	4813      	ldr	r0, [pc, #76]	; (8022358 <MBX_StopMailboxHandler+0xc4>)
 802230c:	f7ff ff07 	bl	802211e <GetOutOfMbxQueue>
 8022310:	b110      	cbz	r0, 8022318 <MBX_StopMailboxHandler+0x84>
 8022312:	f003 fc43 	bl	8025b9c <free>
 8022316:	e7f8      	b.n	802230a <MBX_StopMailboxHandler+0x76>
 8022318:	4810      	ldr	r0, [pc, #64]	; (802235c <MBX_StopMailboxHandler+0xc8>)
 802231a:	f7ff ff00 	bl	802211e <GetOutOfMbxQueue>
 802231e:	b110      	cbz	r0, 8022326 <MBX_StopMailboxHandler+0x92>
 8022320:	f003 fc3c 	bl	8025b9c <free>
 8022324:	e7f8      	b.n	8022318 <MBX_StopMailboxHandler+0x84>
 8022326:	bd70      	pop	{r4, r5, r6, pc}
 8022328:	1ffea672 	.word	0x1ffea672
 802232c:	1ffea694 	.word	0x1ffea694
 8022330:	1ffea678 	.word	0x1ffea678
 8022334:	1ffea680 	.word	0x1ffea680
 8022338:	1ffea688 	.word	0x1ffea688
 802233c:	5401080f 	.word	0x5401080f
 8022340:	1ffea690 	.word	0x1ffea690
 8022344:	1ffea671 	.word	0x1ffea671
 8022348:	1ffea684 	.word	0x1ffea684
 802234c:	1ffea68d 	.word	0x1ffea68d
 8022350:	1ffea68c 	.word	0x1ffea68c
 8022354:	1ffea604 	.word	0x1ffea604
 8022358:	1ffea63c 	.word	0x1ffea63c
 802235c:	1ffea608 	.word	0x1ffea608

08022360 <MailboxServiceInd>:
 8022360:	7943      	ldrb	r3, [r0, #5]
 8022362:	f003 030f 	and.w	r3, r3, #15
 8022366:	2b03      	cmp	r3, #3
 8022368:	d101      	bne.n	802236e <MailboxServiceInd+0xe>
 802236a:	f7fe bcf3 	b.w	8020d54 <COE_ServiceInd>
 802236e:	2002      	movs	r0, #2
 8022370:	4770      	bx	lr
	...

08022374 <MBX_CopyToSendMailbox>:
 8022374:	b5f7      	push	{r0, r1, r2, r4, r5, r6, r7, lr}
 8022376:	4b30      	ldr	r3, [pc, #192]	; (8022438 <MBX_CopyToSendMailbox+0xc4>)
 8022378:	781b      	ldrb	r3, [r3, #0]
 802237a:	f003 030f 	and.w	r3, r3, #15
 802237e:	2b01      	cmp	r3, #1
 8022380:	4606      	mov	r6, r0
 8022382:	d053      	beq.n	802242c <MBX_CopyToSendMailbox+0xb8>
 8022384:	4b2d      	ldr	r3, [pc, #180]	; (802243c <MBX_CopyToSendMailbox+0xc8>)
 8022386:	781b      	ldrb	r3, [r3, #0]
 8022388:	2b00      	cmp	r3, #0
 802238a:	d04f      	beq.n	802242c <MBX_CopyToSendMailbox+0xb8>
 802238c:	4d2c      	ldr	r5, [pc, #176]	; (8022440 <MBX_CopyToSendMailbox+0xcc>)
 802238e:	f895 e000 	ldrb.w	lr, [r5]
 8022392:	f1be 0f00 	cmp.w	lr, #0
 8022396:	d14b      	bne.n	8022430 <MBX_CopyToSendMailbox+0xbc>
 8022398:	8802      	ldrh	r2, [r0, #0]
 802239a:	4f2a      	ldr	r7, [pc, #168]	; (8022444 <MBX_CopyToSendMailbox+0xd0>)
 802239c:	482a      	ldr	r0, [pc, #168]	; (8022448 <MBX_CopyToSendMailbox+0xd4>)
 802239e:	8839      	ldrh	r1, [r7, #0]
 80223a0:	8804      	ldrh	r4, [r0, #0]
 80223a2:	1913      	adds	r3, r2, r4
 80223a4:	4421      	add	r1, r4
 80223a6:	4c29      	ldr	r4, [pc, #164]	; (802244c <MBX_CopyToSendMailbox+0xd8>)
 80223a8:	3306      	adds	r3, #6
 80223aa:	3901      	subs	r1, #1
 80223ac:	b29b      	uxth	r3, r3
 80223ae:	b289      	uxth	r1, r1
 80223b0:	f884 e000 	strb.w	lr, [r4]
 80223b4:	428b      	cmp	r3, r1
 80223b6:	d20c      	bcs.n	80223d2 <MBX_CopyToSendMailbox+0x5e>
 80223b8:	f103 4ea8 	add.w	lr, r3, #1409286144	; 0x54000000
 80223bc:	f894 c000 	ldrb.w	ip, [r4]
 80223c0:	f50e 3e80 	add.w	lr, lr, #65536	; 0x10000
 80223c4:	fa5f fc8c 	uxtb.w	ip, ip
 80223c8:	3301      	adds	r3, #1
 80223ca:	f88e c000 	strb.w	ip, [lr]
 80223ce:	b29b      	uxth	r3, r3
 80223d0:	e7f0      	b.n	80223b4 <MBX_CopyToSendMailbox+0x40>
 80223d2:	8800      	ldrh	r0, [r0, #0]
 80223d4:	3206      	adds	r2, #6
 80223d6:	f100 40a8 	add.w	r0, r0, #1409286144	; 0x54000000
 80223da:	b292      	uxth	r2, r2
 80223dc:	f500 3080 	add.w	r0, r0, #65536	; 0x10000
 80223e0:	4631      	mov	r1, r6
 80223e2:	f003 fbf3 	bl	8025bcc <memcpy>
 80223e6:	2300      	movs	r3, #0
 80223e8:	f88d 3007 	strb.w	r3, [sp, #7]
 80223ec:	4b18      	ldr	r3, [pc, #96]	; (8022450 <MBX_CopyToSendMailbox+0xdc>)
 80223ee:	781b      	ldrb	r3, [r3, #0]
 80223f0:	b2db      	uxtb	r3, r3
 80223f2:	f88d 3007 	strb.w	r3, [sp, #7]
 80223f6:	f89d 3007 	ldrb.w	r3, [sp, #7]
 80223fa:	f003 0308 	and.w	r3, r3, #8
 80223fe:	f003 02ff 	and.w	r2, r3, #255	; 0xff
 8022402:	b943      	cbnz	r3, 8022416 <MBX_CopyToSendMailbox+0xa2>
 8022404:	4b10      	ldr	r3, [pc, #64]	; (8022448 <MBX_CopyToSendMailbox+0xd4>)
 8022406:	7022      	strb	r2, [r4, #0]
 8022408:	881a      	ldrh	r2, [r3, #0]
 802240a:	883b      	ldrh	r3, [r7, #0]
 802240c:	4911      	ldr	r1, [pc, #68]	; (8022454 <MBX_CopyToSendMailbox+0xe0>)
 802240e:	4413      	add	r3, r2
 8022410:	7822      	ldrb	r2, [r4, #0]
 8022412:	b2d2      	uxtb	r2, r2
 8022414:	54ca      	strb	r2, [r1, r3]
 8022416:	4b10      	ldr	r3, [pc, #64]	; (8022458 <MBX_CopyToSendMailbox+0xe4>)
 8022418:	681a      	ldr	r2, [r3, #0]
 802241a:	b112      	cbz	r2, 8022422 <MBX_CopyToSendMailbox+0xae>
 802241c:	4a0f      	ldr	r2, [pc, #60]	; (802245c <MBX_CopyToSendMailbox+0xe8>)
 802241e:	2100      	movs	r1, #0
 8022420:	6011      	str	r1, [r2, #0]
 8022422:	601e      	str	r6, [r3, #0]
 8022424:	2301      	movs	r3, #1
 8022426:	702b      	strb	r3, [r5, #0]
 8022428:	2000      	movs	r0, #0
 802242a:	e002      	b.n	8022432 <MBX_CopyToSendMailbox+0xbe>
 802242c:	20f0      	movs	r0, #240	; 0xf0
 802242e:	e000      	b.n	8022432 <MBX_CopyToSendMailbox+0xbe>
 8022430:	2007      	movs	r0, #7
 8022432:	b003      	add	sp, #12
 8022434:	bdf0      	pop	{r4, r5, r6, r7, pc}
 8022436:	bf00      	nop
 8022438:	1ffea5c1 	.word	0x1ffea5c1
 802243c:	1ffea672 	.word	0x1ffea672
 8022440:	1ffea671 	.word	0x1ffea671
 8022444:	1ffea67c 	.word	0x1ffea67c
 8022448:	1ffea686 	.word	0x1ffea686
 802244c:	1ffea5d8 	.word	0x1ffea5d8
 8022450:	5401080d 	.word	0x5401080d
 8022454:	5400ffff 	.word	0x5400ffff
 8022458:	1ffea680 	.word	0x1ffea680
 802245c:	1ffea688 	.word	0x1ffea688

08022460 <MBX_MailboxReadInd>:
 8022460:	4b19      	ldr	r3, [pc, #100]	; (80224c8 <MBX_MailboxReadInd+0x68>)
 8022462:	2200      	movs	r2, #0
 8022464:	b570      	push	{r4, r5, r6, lr}
 8022466:	701a      	strb	r2, [r3, #0]
 8022468:	4b18      	ldr	r3, [pc, #96]	; (80224cc <MBX_MailboxReadInd+0x6c>)
 802246a:	4d19      	ldr	r5, [pc, #100]	; (80224d0 <MBX_MailboxReadInd+0x70>)
 802246c:	6818      	ldr	r0, [r3, #0]
 802246e:	4e19      	ldr	r6, [pc, #100]	; (80224d4 <MBX_MailboxReadInd+0x74>)
 8022470:	461c      	mov	r4, r3
 8022472:	b130      	cbz	r0, 8022482 <MBX_MailboxReadInd+0x22>
 8022474:	682b      	ldr	r3, [r5, #0]
 8022476:	b923      	cbnz	r3, 8022482 <MBX_MailboxReadInd+0x22>
 8022478:	6833      	ldr	r3, [r6, #0]
 802247a:	4283      	cmp	r3, r0
 802247c:	d001      	beq.n	8022482 <MBX_MailboxReadInd+0x22>
 802247e:	f003 fb8d 	bl	8025b9c <free>
 8022482:	6828      	ldr	r0, [r5, #0]
 8022484:	6833      	ldr	r3, [r6, #0]
 8022486:	6023      	str	r3, [r4, #0]
 8022488:	b128      	cbz	r0, 8022496 <MBX_MailboxReadInd+0x36>
 802248a:	f7ff ff73 	bl	8022374 <MBX_CopyToSendMailbox>
 802248e:	4b10      	ldr	r3, [pc, #64]	; (80224d0 <MBX_MailboxReadInd+0x70>)
 8022490:	2200      	movs	r2, #0
 8022492:	601a      	str	r2, [r3, #0]
 8022494:	e005      	b.n	80224a2 <MBX_MailboxReadInd+0x42>
 8022496:	4810      	ldr	r0, [pc, #64]	; (80224d8 <MBX_MailboxReadInd+0x78>)
 8022498:	f7ff fe41 	bl	802211e <GetOutOfMbxQueue>
 802249c:	b108      	cbz	r0, 80224a2 <MBX_MailboxReadInd+0x42>
 802249e:	f7ff ff69 	bl	8022374 <MBX_CopyToSendMailbox>
 80224a2:	4c0e      	ldr	r4, [pc, #56]	; (80224dc <MBX_MailboxReadInd+0x7c>)
 80224a4:	7823      	ldrb	r3, [r4, #0]
 80224a6:	b16b      	cbz	r3, 80224c4 <MBX_MailboxReadInd+0x64>
 80224a8:	079a      	lsls	r2, r3, #30
 80224aa:	d50b      	bpl.n	80224c4 <MBX_MailboxReadInd+0x64>
 80224ac:	f023 0302 	bic.w	r3, r3, #2
 80224b0:	7023      	strb	r3, [r4, #0]
 80224b2:	4b0b      	ldr	r3, [pc, #44]	; (80224e0 <MBX_MailboxReadInd+0x80>)
 80224b4:	6818      	ldr	r0, [r3, #0]
 80224b6:	f7fe fc61 	bl	8020d7c <COE_ContinueInd>
 80224ba:	b118      	cbz	r0, 80224c4 <MBX_MailboxReadInd+0x64>
 80224bc:	7823      	ldrb	r3, [r4, #0]
 80224be:	f043 0302 	orr.w	r3, r3, #2
 80224c2:	7023      	strb	r3, [r4, #0]
 80224c4:	bd70      	pop	{r4, r5, r6, pc}
 80224c6:	bf00      	nop
 80224c8:	1ffea671 	.word	0x1ffea671
 80224cc:	1ffea694 	.word	0x1ffea694
 80224d0:	1ffea678 	.word	0x1ffea678
 80224d4:	1ffea680 	.word	0x1ffea680
 80224d8:	1ffea608 	.word	0x1ffea608
 80224dc:	1ffea68d 	.word	0x1ffea68d
 80224e0:	1ffea688 	.word	0x1ffea688

080224e4 <MBX_MailboxRepeatReq>:
 80224e4:	4b11      	ldr	r3, [pc, #68]	; (802252c <MBX_MailboxRepeatReq+0x48>)
 80224e6:	e92d 41f0 	stmdb	sp!, {r4, r5, r6, r7, r8, lr}
 80224ea:	681c      	ldr	r4, [r3, #0]
 80224ec:	4698      	mov	r8, r3
 80224ee:	b1ac      	cbz	r4, 802251c <MBX_MailboxRepeatReq+0x38>
 80224f0:	4d0f      	ldr	r5, [pc, #60]	; (8022530 <MBX_MailboxRepeatReq+0x4c>)
 80224f2:	782b      	ldrb	r3, [r5, #0]
 80224f4:	b163      	cbz	r3, 8022510 <MBX_MailboxRepeatReq+0x2c>
 80224f6:	4f0f      	ldr	r7, [pc, #60]	; (8022534 <MBX_MailboxRepeatReq+0x50>)
 80224f8:	683e      	ldr	r6, [r7, #0]
 80224fa:	b94e      	cbnz	r6, 8022510 <MBX_MailboxRepeatReq+0x2c>
 80224fc:	2001      	movs	r0, #1
 80224fe:	f7fe fc9b 	bl	8020e38 <DisableSyncManChannel>
 8022502:	4b0d      	ldr	r3, [pc, #52]	; (8022538 <MBX_MailboxRepeatReq+0x54>)
 8022504:	2001      	movs	r0, #1
 8022506:	681b      	ldr	r3, [r3, #0]
 8022508:	603b      	str	r3, [r7, #0]
 802250a:	f7fe fcad 	bl	8020e68 <EnableSyncManChannel>
 802250e:	702e      	strb	r6, [r5, #0]
 8022510:	4620      	mov	r0, r4
 8022512:	f7ff ff2f 	bl	8022374 <MBX_CopyToSendMailbox>
 8022516:	2300      	movs	r3, #0
 8022518:	f8c8 3000 	str.w	r3, [r8]
 802251c:	4a07      	ldr	r2, [pc, #28]	; (802253c <MBX_MailboxRepeatReq+0x58>)
 802251e:	7813      	ldrb	r3, [r2, #0]
 8022520:	f083 0301 	eor.w	r3, r3, #1
 8022524:	7013      	strb	r3, [r2, #0]
 8022526:	e8bd 81f0 	ldmia.w	sp!, {r4, r5, r6, r7, r8, pc}
 802252a:	bf00      	nop
 802252c:	1ffea694 	.word	0x1ffea694
 8022530:	1ffea671 	.word	0x1ffea671
 8022534:	1ffea678 	.word	0x1ffea678
 8022538:	1ffea680 	.word	0x1ffea680
 802253c:	1ffea690 	.word	0x1ffea690

08022540 <MBX_MailboxSendReq>:
 8022540:	b570      	push	{r4, r5, r6, lr}
 8022542:	4b18      	ldr	r3, [pc, #96]	; (80225a4 <MBX_MailboxSendReq+0x64>)
 8022544:	781b      	ldrb	r3, [r3, #0]
 8022546:	f003 030f 	and.w	r3, r3, #15
 802254a:	2b01      	cmp	r3, #1
 802254c:	4605      	mov	r5, r0
 802254e:	460c      	mov	r4, r1
 8022550:	d026      	beq.n	80225a0 <MBX_MailboxSendReq+0x60>
 8022552:	4a15      	ldr	r2, [pc, #84]	; (80225a8 <MBX_MailboxSendReq+0x68>)
 8022554:	7943      	ldrb	r3, [r0, #5]
 8022556:	7811      	ldrb	r1, [r2, #0]
 8022558:	4e13      	ldr	r6, [pc, #76]	; (80225a8 <MBX_MailboxSendReq+0x68>)
 802255a:	0749      	lsls	r1, r1, #29
 802255c:	bf04      	itt	eq
 802255e:	2101      	moveq	r1, #1
 8022560:	7011      	strbeq	r1, [r2, #0]
 8022562:	7812      	ldrb	r2, [r2, #0]
 8022564:	f003 030f 	and.w	r3, r3, #15
 8022568:	7143      	strb	r3, [r0, #5]
 802256a:	ea43 1302 	orr.w	r3, r3, r2, lsl #4
 802256e:	7143      	strb	r3, [r0, #5]
 8022570:	f7ff ff00 	bl	8022374 <MBX_CopyToSendMailbox>
 8022574:	b138      	cbz	r0, 8022586 <MBX_MailboxSendReq+0x46>
 8022576:	4628      	mov	r0, r5
 8022578:	490c      	ldr	r1, [pc, #48]	; (80225ac <MBX_MailboxSendReq+0x6c>)
 802257a:	f7ff fdbd 	bl	80220f8 <PutInMbxQueue>
 802257e:	b110      	cbz	r0, 8022586 <MBX_MailboxSendReq+0x46>
 8022580:	f044 0480 	orr.w	r4, r4, #128	; 0x80
 8022584:	e002      	b.n	802258c <MBX_MailboxSendReq+0x4c>
 8022586:	7833      	ldrb	r3, [r6, #0]
 8022588:	3301      	adds	r3, #1
 802258a:	7033      	strb	r3, [r6, #0]
 802258c:	b2e4      	uxtb	r4, r4
 802258e:	0623      	lsls	r3, r4, #24
 8022590:	d507      	bpl.n	80225a2 <MBX_MailboxSendReq+0x62>
 8022592:	4a07      	ldr	r2, [pc, #28]	; (80225b0 <MBX_MailboxSendReq+0x70>)
 8022594:	7813      	ldrb	r3, [r2, #0]
 8022596:	f004 047f 	and.w	r4, r4, #127	; 0x7f
 802259a:	431c      	orrs	r4, r3
 802259c:	7014      	strb	r4, [r2, #0]
 802259e:	bd70      	pop	{r4, r5, r6, pc}
 80225a0:	20f0      	movs	r0, #240	; 0xf0
 80225a2:	bd70      	pop	{r4, r5, r6, pc}
 80225a4:	1ffea5c1 	.word	0x1ffea5c1
 80225a8:	1ffea604 	.word	0x1ffea604
 80225ac:	1ffea608 	.word	0x1ffea608
 80225b0:	1ffea68d 	.word	0x1ffea68d

080225b4 <MBX_MailboxWriteInd>:
 80225b4:	b510      	push	{r4, lr}
 80225b6:	8801      	ldrh	r1, [r0, #0]
 80225b8:	7943      	ldrb	r3, [r0, #5]
 80225ba:	2980      	cmp	r1, #128	; 0x80
 80225bc:	4604      	mov	r4, r0
 80225be:	ea4f 1213 	mov.w	r2, r3, lsr #4
 80225c2:	d909      	bls.n	80225d8 <MBX_MailboxWriteInd+0x24>
 80225c4:	f023 030f 	bic.w	r3, r3, #15
 80225c8:	7143      	strb	r3, [r0, #5]
 80225ca:	2301      	movs	r3, #1
 80225cc:	2204      	movs	r2, #4
 80225ce:	80c3      	strh	r3, [r0, #6]
 80225d0:	2308      	movs	r3, #8
 80225d2:	8002      	strh	r2, [r0, #0]
 80225d4:	8103      	strh	r3, [r0, #8]
 80225d6:	e014      	b.n	8022602 <MBX_MailboxWriteInd+0x4e>
 80225d8:	4b0f      	ldr	r3, [pc, #60]	; (8022618 <MBX_MailboxWriteInd+0x64>)
 80225da:	b112      	cbz	r2, 80225e2 <MBX_MailboxWriteInd+0x2e>
 80225dc:	7819      	ldrb	r1, [r3, #0]
 80225de:	4291      	cmp	r1, r2
 80225e0:	d014      	beq.n	802260c <MBX_MailboxWriteInd+0x58>
 80225e2:	4620      	mov	r0, r4
 80225e4:	490d      	ldr	r1, [pc, #52]	; (802261c <MBX_MailboxWriteInd+0x68>)
 80225e6:	701a      	strb	r2, [r3, #0]
 80225e8:	f7ff fd86 	bl	80220f8 <PutInMbxQueue>
 80225ec:	b190      	cbz	r0, 8022614 <MBX_MailboxWriteInd+0x60>
 80225ee:	2304      	movs	r3, #4
 80225f0:	8023      	strh	r3, [r4, #0]
 80225f2:	7963      	ldrb	r3, [r4, #5]
 80225f4:	8120      	strh	r0, [r4, #8]
 80225f6:	f023 030f 	bic.w	r3, r3, #15
 80225fa:	7163      	strb	r3, [r4, #5]
 80225fc:	2301      	movs	r3, #1
 80225fe:	80e3      	strh	r3, [r4, #6]
 8022600:	4620      	mov	r0, r4
 8022602:	2100      	movs	r1, #0
 8022604:	e8bd 4010 	ldmia.w	sp!, {r4, lr}
 8022608:	f7ff bf9a 	b.w	8022540 <MBX_MailboxSendReq>
 802260c:	e8bd 4010 	ldmia.w	sp!, {r4, lr}
 8022610:	f003 bac4 	b.w	8025b9c <free>
 8022614:	bd10      	pop	{r4, pc}
 8022616:	bf00      	nop
 8022618:	1ffea68c 	.word	0x1ffea68c
 802261c:	1ffea63c 	.word	0x1ffea63c

08022620 <MBX_CheckAndCopyMailbox>:
 8022620:	e92d 43f7 	stmdb	sp!, {r0, r1, r2, r4, r5, r6, r7, r8, r9, lr}
 8022624:	4f31      	ldr	r7, [pc, #196]	; (80226ec <MBX_CheckAndCopyMailbox+0xcc>)
 8022626:	883b      	ldrh	r3, [r7, #0]
 8022628:	085b      	lsrs	r3, r3, #1
 802262a:	005b      	lsls	r3, r3, #1
 802262c:	f103 43a8 	add.w	r3, r3, #1409286144	; 0x54000000
 8022630:	f503 3380 	add.w	r3, r3, #65536	; 0x10000
 8022634:	881c      	ldrh	r4, [r3, #0]
 8022636:	4b2e      	ldr	r3, [pc, #184]	; (80226f0 <MBX_CheckAndCopyMailbox+0xd0>)
 8022638:	781b      	ldrb	r3, [r3, #0]
 802263a:	b2a4      	uxth	r4, r4
 802263c:	b1cb      	cbz	r3, 8022672 <MBX_CheckAndCopyMailbox+0x52>
 802263e:	200a      	movs	r0, #10
 8022640:	f003 faa4 	bl	8025b8c <malloc>
 8022644:	4605      	mov	r5, r0
 8022646:	b1a0      	cbz	r0, 8022672 <MBX_CheckAndCopyMailbox+0x52>
 8022648:	2100      	movs	r1, #0
 802264a:	220a      	movs	r2, #10
 802264c:	f003 fac9 	bl	8025be2 <memset>
 8022650:	2304      	movs	r3, #4
 8022652:	802b      	strh	r3, [r5, #0]
 8022654:	796b      	ldrb	r3, [r5, #5]
 8022656:	f023 030f 	bic.w	r3, r3, #15
 802265a:	716b      	strb	r3, [r5, #5]
 802265c:	2301      	movs	r3, #1
 802265e:	80eb      	strh	r3, [r5, #6]
 8022660:	2307      	movs	r3, #7
 8022662:	812b      	strh	r3, [r5, #8]
 8022664:	4628      	mov	r0, r5
 8022666:	2100      	movs	r1, #0
 8022668:	f7ff ff6a 	bl	8022540 <MBX_MailboxSendReq>
 802266c:	4628      	mov	r0, r5
 802266e:	f003 fa95 	bl	8025b9c <free>
 8022672:	4b20      	ldr	r3, [pc, #128]	; (80226f4 <MBX_CheckAndCopyMailbox+0xd4>)
 8022674:	f8df 9098 	ldr.w	r9, [pc, #152]	; 8022710 <MBX_CheckAndCopyMailbox+0xf0>
 8022678:	781b      	ldrb	r3, [r3, #0]
 802267a:	b913      	cbnz	r3, 8022682 <MBX_CheckAndCopyMailbox+0x62>
 802267c:	4b1e      	ldr	r3, [pc, #120]	; (80226f8 <MBX_CheckAndCopyMailbox+0xd8>)
 802267e:	781e      	ldrb	r6, [r3, #0]
 8022680:	b11e      	cbz	r6, 802268a <MBX_CheckAndCopyMailbox+0x6a>
 8022682:	2301      	movs	r3, #1
 8022684:	f889 3000 	strb.w	r3, [r9]
 8022688:	e02d      	b.n	80226e6 <MBX_CheckAndCopyMailbox+0xc6>
 802268a:	4b1c      	ldr	r3, [pc, #112]	; (80226fc <MBX_CheckAndCopyMailbox+0xdc>)
 802268c:	f889 6000 	strb.w	r6, [r9]
 8022690:	881d      	ldrh	r5, [r3, #0]
 8022692:	3406      	adds	r4, #6
 8022694:	b2a4      	uxth	r4, r4
 8022696:	42ac      	cmp	r4, r5
 8022698:	4628      	mov	r0, r5
 802269a:	bf28      	it	cs
 802269c:	462c      	movcs	r4, r5
 802269e:	f003 fa75 	bl	8025b8c <malloc>
 80226a2:	4b17      	ldr	r3, [pc, #92]	; (8022700 <MBX_CheckAndCopyMailbox+0xe0>)
 80226a4:	4680      	mov	r8, r0
 80226a6:	6018      	str	r0, [r3, #0]
 80226a8:	2800      	cmp	r0, #0
 80226aa:	d0ea      	beq.n	8022682 <MBX_CheckAndCopyMailbox+0x62>
 80226ac:	883f      	ldrh	r7, [r7, #0]
 80226ae:	f107 41a8 	add.w	r1, r7, #1409286144	; 0x54000000
 80226b2:	f501 3180 	add.w	r1, r1, #65536	; 0x10000
 80226b6:	4622      	mov	r2, r4
 80226b8:	f003 fa88 	bl	8025bcc <memcpy>
 80226bc:	4b11      	ldr	r3, [pc, #68]	; (8022704 <MBX_CheckAndCopyMailbox+0xe4>)
 80226be:	f88d 6007 	strb.w	r6, [sp, #7]
 80226c2:	781b      	ldrb	r3, [r3, #0]
 80226c4:	b2db      	uxtb	r3, r3
 80226c6:	f88d 3007 	strb.w	r3, [sp, #7]
 80226ca:	f89d 3007 	ldrb.w	r3, [sp, #7]
 80226ce:	071b      	lsls	r3, r3, #28
 80226d0:	d506      	bpl.n	80226e0 <MBX_CheckAndCopyMailbox+0xc0>
 80226d2:	4a0d      	ldr	r2, [pc, #52]	; (8022708 <MBX_CheckAndCopyMailbox+0xe8>)
 80226d4:	4b0d      	ldr	r3, [pc, #52]	; (802270c <MBX_CheckAndCopyMailbox+0xec>)
 80226d6:	7016      	strb	r6, [r2, #0]
 80226d8:	443d      	add	r5, r7
 80226da:	5d5b      	ldrb	r3, [r3, r5]
 80226dc:	b2db      	uxtb	r3, r3
 80226de:	7013      	strb	r3, [r2, #0]
 80226e0:	4640      	mov	r0, r8
 80226e2:	f7ff ff67 	bl	80225b4 <MBX_MailboxWriteInd>
 80226e6:	b003      	add	sp, #12
 80226e8:	e8bd 83f0 	ldmia.w	sp!, {r4, r5, r6, r7, r8, r9, pc}
 80226ec:	1ffea674 	.word	0x1ffea674
 80226f0:	1ffea670 	.word	0x1ffea670
 80226f4:	1ffea671 	.word	0x1ffea671
 80226f8:	1ffea68d 	.word	0x1ffea68d
 80226fc:	1ffea68e 	.word	0x1ffea68e
 8022700:	1ffea688 	.word	0x1ffea688
 8022704:	54010805 	.word	0x54010805
 8022708:	1ffea5d8 	.word	0x1ffea5d8
 802270c:	5400ffff 	.word	0x5400ffff
 8022710:	1ffea684 	.word	0x1ffea684

08022714 <MBX_Main>:
 8022714:	b510      	push	{r4, lr}
 8022716:	480f      	ldr	r0, [pc, #60]	; (8022754 <MBX_Main+0x40>)
 8022718:	f7ff fd01 	bl	802211e <GetOutOfMbxQueue>
 802271c:	4604      	mov	r4, r0
 802271e:	b188      	cbz	r0, 8022744 <MBX_Main+0x30>
 8022720:	f7ff fe1e 	bl	8022360 <MailboxServiceInd>
 8022724:	2800      	cmp	r0, #0
 8022726:	d0f6      	beq.n	8022716 <MBX_Main+0x2>
 8022728:	2304      	movs	r3, #4
 802272a:	8023      	strh	r3, [r4, #0]
 802272c:	7963      	ldrb	r3, [r4, #5]
 802272e:	8120      	strh	r0, [r4, #8]
 8022730:	f023 030f 	bic.w	r3, r3, #15
 8022734:	7163      	strb	r3, [r4, #5]
 8022736:	2301      	movs	r3, #1
 8022738:	80e3      	strh	r3, [r4, #6]
 802273a:	4620      	mov	r0, r4
 802273c:	2100      	movs	r1, #0
 802273e:	f7ff feff 	bl	8022540 <MBX_MailboxSendReq>
 8022742:	e7e8      	b.n	8022716 <MBX_Main+0x2>
 8022744:	4b04      	ldr	r3, [pc, #16]	; (8022758 <MBX_Main+0x44>)
 8022746:	781b      	ldrb	r3, [r3, #0]
 8022748:	b11b      	cbz	r3, 8022752 <MBX_Main+0x3e>
 802274a:	e8bd 4010 	ldmia.w	sp!, {r4, lr}
 802274e:	f7ff bf67 	b.w	8022620 <MBX_CheckAndCopyMailbox>
 8022752:	bd10      	pop	{r4, pc}
 8022754:	1ffea63c 	.word	0x1ffea63c
 8022758:	1ffea684 	.word	0x1ffea684

0802275c <OBJ_GetObjectHandle>:
 802275c:	b510      	push	{r4, lr}
 802275e:	4604      	mov	r4, r0
 8022760:	f7fd fdb4 	bl	80202cc <COE_GetObjectDictionary>
 8022764:	b120      	cbz	r0, 8022770 <OBJ_GetObjectHandle+0x14>
 8022766:	8903      	ldrh	r3, [r0, #8]
 8022768:	42a3      	cmp	r3, r4
 802276a:	d001      	beq.n	8022770 <OBJ_GetObjectHandle+0x14>
 802276c:	6840      	ldr	r0, [r0, #4]
 802276e:	e7f9      	b.n	8022764 <OBJ_GetObjectHandle+0x8>
 8022770:	bd10      	pop	{r4, pc}

08022772 <OBJ_GetObjectLength>:
 8022772:	b570      	push	{r4, r5, r6, lr}
 8022774:	8994      	ldrh	r4, [r2, #12]
 8022776:	f3c4 2003 	ubfx	r0, r4, #8, #4
 802277a:	b1e3      	cbz	r3, 80227b6 <OBJ_GetObjectLength+0x44>
 802277c:	2807      	cmp	r0, #7
 802277e:	d031      	beq.n	80227e4 <OBJ_GetObjectLength+0x72>
 8022780:	2808      	cmp	r0, #8
 8022782:	d105      	bne.n	8022790 <OBJ_GetObjectLength+0x1e>
 8022784:	6913      	ldr	r3, [r2, #16]
 8022786:	8918      	ldrh	r0, [r3, #8]
 8022788:	6993      	ldr	r3, [r2, #24]
 802278a:	781b      	ldrb	r3, [r3, #0]
 802278c:	4358      	muls	r0, r3
 802278e:	e00d      	b.n	80227ac <OBJ_GetObjectLength+0x3a>
 8022790:	2301      	movs	r3, #1
 8022792:	2000      	movs	r0, #0
 8022794:	b2e5      	uxtb	r5, r4
 8022796:	42ab      	cmp	r3, r5
 8022798:	d808      	bhi.n	80227ac <OBJ_GetObjectLength+0x3a>
 802279a:	6916      	ldr	r6, [r2, #16]
 802279c:	2506      	movs	r5, #6
 802279e:	fb05 6503 	mla	r5, r5, r3, r6
 80227a2:	3301      	adds	r3, #1
 80227a4:	886d      	ldrh	r5, [r5, #2]
 80227a6:	b29b      	uxth	r3, r3
 80227a8:	4428      	add	r0, r5
 80227aa:	e7f3      	b.n	8022794 <OBJ_GetObjectLength+0x22>
 80227ac:	3007      	adds	r0, #7
 80227ae:	08c0      	lsrs	r0, r0, #3
 80227b0:	b9e9      	cbnz	r1, 80227ee <OBJ_GetObjectLength+0x7c>
 80227b2:	3002      	adds	r0, #2
 80227b4:	bd70      	pop	{r4, r5, r6, pc}
 80227b6:	2807      	cmp	r0, #7
 80227b8:	d102      	bne.n	80227c0 <OBJ_GetObjectLength+0x4e>
 80227ba:	6913      	ldr	r3, [r2, #16]
 80227bc:	8858      	ldrh	r0, [r3, #2]
 80227be:	e00e      	b.n	80227de <OBJ_GetObjectLength+0x6c>
 80227c0:	b191      	cbz	r1, 80227e8 <OBJ_GetObjectLength+0x76>
 80227c2:	2808      	cmp	r0, #8
 80227c4:	d102      	bne.n	80227cc <OBJ_GetObjectLength+0x5a>
 80227c6:	6913      	ldr	r3, [r2, #16]
 80227c8:	8918      	ldrh	r0, [r3, #8]
 80227ca:	e008      	b.n	80227de <OBJ_GetObjectLength+0x6c>
 80227cc:	b2e4      	uxtb	r4, r4
 80227ce:	428c      	cmp	r4, r1
 80227d0:	d30c      	bcc.n	80227ec <OBJ_GetObjectLength+0x7a>
 80227d2:	6913      	ldr	r3, [r2, #16]
 80227d4:	eb01 0141 	add.w	r1, r1, r1, lsl #1
 80227d8:	eb03 0141 	add.w	r1, r3, r1, lsl #1
 80227dc:	8848      	ldrh	r0, [r1, #2]
 80227de:	3007      	adds	r0, #7
 80227e0:	10c0      	asrs	r0, r0, #3
 80227e2:	bd70      	pop	{r4, r5, r6, pc}
 80227e4:	2000      	movs	r0, #0
 80227e6:	bd70      	pop	{r4, r5, r6, pc}
 80227e8:	2001      	movs	r0, #1
 80227ea:	bd70      	pop	{r4, r5, r6, pc}
 80227ec:	4618      	mov	r0, r3
 80227ee:	bd70      	pop	{r4, r5, r6, pc}

080227f0 <OBJ_CopyNumberToString>:
 80227f0:	7802      	ldrb	r2, [r0, #0]
 80227f2:	b510      	push	{r4, lr}
 80227f4:	2464      	movs	r4, #100	; 0x64
 80227f6:	fbb1 f3f4 	udiv	r3, r1, r4
 80227fa:	441a      	add	r2, r3
 80227fc:	fb04 1113 	mls	r1, r4, r3, r1
 8022800:	b2c9      	uxtb	r1, r1
 8022802:	240a      	movs	r4, #10
 8022804:	7002      	strb	r2, [r0, #0]
 8022806:	7842      	ldrb	r2, [r0, #1]
 8022808:	fbb1 f3f4 	udiv	r3, r1, r4
 802280c:	fb04 1113 	mls	r1, r4, r3, r1
 8022810:	441a      	add	r2, r3
 8022812:	3130      	adds	r1, #48	; 0x30
 8022814:	7042      	strb	r2, [r0, #1]
 8022816:	7081      	strb	r1, [r0, #2]
 8022818:	bd10      	pop	{r4, pc}
	...

0802281c <OBJ_GetDesc>:
 802281c:	e92d 41ff 	stmdb	sp!, {r0, r1, r2, r3, r4, r5, r6, r7, r8, lr}
 8022820:	461c      	mov	r4, r3
 8022822:	6956      	ldr	r6, [r2, #20]
 8022824:	8993      	ldrh	r3, [r2, #12]
 8022826:	460f      	mov	r7, r1
 8022828:	b119      	cbz	r1, 8022832 <OBJ_GetDesc+0x16>
 802282a:	f3c3 2303 	ubfx	r3, r3, #8, #4
 802282e:	2b07      	cmp	r3, #7
 8022830:	d105      	bne.n	802283e <OBJ_GetDesc+0x22>
 8022832:	4630      	mov	r0, r6
 8022834:	f003 fa88 	bl	8025d48 <strlen>
 8022838:	b285      	uxth	r5, r0
 802283a:	bb0c      	cbnz	r4, 8022880 <OBJ_GetDesc+0x64>
 802283c:	e051      	b.n	80228e2 <OBJ_GetDesc+0xc6>
 802283e:	2b09      	cmp	r3, #9
 8022840:	d128      	bne.n	8022894 <OBJ_GetDesc+0x78>
 8022842:	4630      	mov	r0, r6
 8022844:	fa1f f881 	uxth.w	r8, r1
 8022848:	f003 fa7e 	bl	8025d48 <strlen>
 802284c:	3001      	adds	r0, #1
 802284e:	4406      	add	r6, r0
 8022850:	2501      	movs	r5, #1
 8022852:	e008      	b.n	8022866 <OBJ_GetDesc+0x4a>
 8022854:	4630      	mov	r0, r6
 8022856:	f003 fa77 	bl	8025d48 <strlen>
 802285a:	3501      	adds	r5, #1
 802285c:	b2ad      	uxth	r5, r5
 802285e:	3001      	adds	r0, #1
 8022860:	4545      	cmp	r5, r8
 8022862:	4406      	add	r6, r0
 8022864:	d816      	bhi.n	8022894 <OBJ_GetDesc+0x78>
 8022866:	7833      	ldrb	r3, [r6, #0]
 8022868:	3302      	adds	r3, #2
 802286a:	b2db      	uxtb	r3, r3
 802286c:	2b01      	cmp	r3, #1
 802286e:	d911      	bls.n	8022894 <OBJ_GetDesc+0x78>
 8022870:	4545      	cmp	r5, r8
 8022872:	d1ef      	bne.n	8022854 <OBJ_GetDesc+0x38>
 8022874:	4630      	mov	r0, r6
 8022876:	f003 fa67 	bl	8025d48 <strlen>
 802287a:	b285      	uxth	r5, r0
 802287c:	b134      	cbz	r4, 802288c <OBJ_GetDesc+0x70>
 802287e:	b155      	cbz	r5, 8022896 <OBJ_GetDesc+0x7a>
 8022880:	4620      	mov	r0, r4
 8022882:	4631      	mov	r1, r6
 8022884:	462a      	mov	r2, r5
 8022886:	f003 f9a1 	bl	8025bcc <memcpy>
 802288a:	e02a      	b.n	80228e2 <OBJ_GetDesc+0xc6>
 802288c:	2d00      	cmp	r5, #0
 802288e:	bf08      	it	eq
 8022890:	250c      	moveq	r5, #12
 8022892:	e026      	b.n	80228e2 <OBJ_GetDesc+0xc6>
 8022894:	b324      	cbz	r4, 80228e0 <OBJ_GetDesc+0xc4>
 8022896:	4b15      	ldr	r3, [pc, #84]	; (80228ec <OBJ_GetDesc+0xd0>)
 8022898:	466a      	mov	r2, sp
 802289a:	f103 0e08 	add.w	lr, r3, #8
 802289e:	466d      	mov	r5, sp
 80228a0:	6818      	ldr	r0, [r3, #0]
 80228a2:	6859      	ldr	r1, [r3, #4]
 80228a4:	4616      	mov	r6, r2
 80228a6:	c603      	stmia	r6!, {r0, r1}
 80228a8:	3308      	adds	r3, #8
 80228aa:	4573      	cmp	r3, lr
 80228ac:	4632      	mov	r2, r6
 80228ae:	d1f7      	bne.n	80228a0 <OBJ_GetDesc+0x84>
 80228b0:	6818      	ldr	r0, [r3, #0]
 80228b2:	6030      	str	r0, [r6, #0]
 80228b4:	791b      	ldrb	r3, [r3, #4]
 80228b6:	7133      	strb	r3, [r6, #4]
 80228b8:	f10d 0009 	add.w	r0, sp, #9
 80228bc:	4639      	mov	r1, r7
 80228be:	f7ff ff97 	bl	80227f0 <OBJ_CopyNumberToString>
 80228c2:	462b      	mov	r3, r5
 80228c4:	ad02      	add	r5, sp, #8
 80228c6:	461a      	mov	r2, r3
 80228c8:	ca03      	ldmia	r2!, {r0, r1}
 80228ca:	42aa      	cmp	r2, r5
 80228cc:	6020      	str	r0, [r4, #0]
 80228ce:	6061      	str	r1, [r4, #4]
 80228d0:	4613      	mov	r3, r2
 80228d2:	f104 0408 	add.w	r4, r4, #8
 80228d6:	d1f6      	bne.n	80228c6 <OBJ_GetDesc+0xaa>
 80228d8:	6810      	ldr	r0, [r2, #0]
 80228da:	6020      	str	r0, [r4, #0]
 80228dc:	7913      	ldrb	r3, [r2, #4]
 80228de:	7123      	strb	r3, [r4, #4]
 80228e0:	250c      	movs	r5, #12
 80228e2:	4628      	mov	r0, r5
 80228e4:	b004      	add	sp, #16
 80228e6:	e8bd 81f0 	ldmia.w	sp!, {r4, r5, r6, r7, r8, pc}
 80228ea:	bf00      	nop
 80228ec:	1ffe9358 	.word	0x1ffe9358

080228f0 <OBJ_GetEntryDesc>:
 80228f0:	8983      	ldrh	r3, [r0, #12]
 80228f2:	6900      	ldr	r0, [r0, #16]
 80228f4:	f3c3 2303 	ubfx	r3, r3, #8, #4
 80228f8:	2b08      	cmp	r3, #8
 80228fa:	d102      	bne.n	8022902 <OBJ_GetEntryDesc+0x12>
 80228fc:	b129      	cbz	r1, 802290a <OBJ_GetEntryDesc+0x1a>
 80228fe:	3006      	adds	r0, #6
 8022900:	4770      	bx	lr
 8022902:	eb01 0141 	add.w	r1, r1, r1, lsl #1
 8022906:	eb00 0041 	add.w	r0, r0, r1, lsl #1
 802290a:	4770      	bx	lr

0802290c <OBJ_GetNoOfObjects>:
 802290c:	e92d 47f0 	stmdb	sp!, {r4, r5, r6, r7, r8, r9, sl, lr}
 8022910:	2620      	movs	r6, #32
 8022912:	4086      	lsls	r6, r0
 8022914:	4681      	mov	r9, r0
 8022916:	f7fd fcd9 	bl	80202cc <COE_GetObjectDictionary>
 802291a:	b2b6      	uxth	r6, r6
 802291c:	4604      	mov	r4, r0
 802291e:	2500      	movs	r5, #0
 8022920:	b304      	cbz	r4, 8022964 <OBJ_GetNoOfObjects+0x58>
 8022922:	8923      	ldrh	r3, [r4, #8]
 8022924:	f5b3 5f80 	cmp.w	r3, #4096	; 0x1000
 8022928:	d31a      	bcc.n	8022960 <OBJ_GetNoOfObjects+0x54>
 802292a:	f1b9 0f00 	cmp.w	r9, #0
 802292e:	d015      	beq.n	802295c <OBJ_GetNoOfObjects+0x50>
 8022930:	f8b4 a00c 	ldrh.w	sl, [r4, #12]
 8022934:	46c8      	mov	r8, r9
 8022936:	2700      	movs	r7, #0
 8022938:	b2bb      	uxth	r3, r7
 802293a:	fa5f f28a 	uxtb.w	r2, sl
 802293e:	4293      	cmp	r3, r2
 8022940:	d80e      	bhi.n	8022960 <OBJ_GetNoOfObjects+0x54>
 8022942:	b2f9      	uxtb	r1, r7
 8022944:	4620      	mov	r0, r4
 8022946:	f7ff ffd3 	bl	80228f0 <OBJ_GetEntryDesc>
 802294a:	8883      	ldrh	r3, [r0, #4]
 802294c:	421e      	tst	r6, r3
 802294e:	bf18      	it	ne
 8022950:	f04f 0800 	movne.w	r8, #0
 8022954:	3701      	adds	r7, #1
 8022956:	f1b8 0f00 	cmp.w	r8, #0
 802295a:	d1ed      	bne.n	8022938 <OBJ_GetNoOfObjects+0x2c>
 802295c:	3501      	adds	r5, #1
 802295e:	b2ad      	uxth	r5, r5
 8022960:	6864      	ldr	r4, [r4, #4]
 8022962:	e7dd      	b.n	8022920 <OBJ_GetNoOfObjects+0x14>
 8022964:	4628      	mov	r0, r5
 8022966:	e8bd 87f0 	ldmia.w	sp!, {r4, r5, r6, r7, r8, r9, sl, pc}
	...

0802296c <OBJ_GetObjectList>:
 802296c:	e92d 4ff7 	stmdb	sp!, {r0, r1, r2, r4, r5, r6, r7, r8, r9, sl, fp, lr}
 8022970:	469a      	mov	sl, r3
 8022972:	880b      	ldrh	r3, [r1, #0]
 8022974:	9f0c      	ldr	r7, [sp, #48]	; 0x30
 8022976:	2620      	movs	r6, #32
 8022978:	4086      	lsls	r6, r0
 802297a:	f5b3 5f80 	cmp.w	r3, #4096	; 0x1000
 802297e:	4681      	mov	r9, r0
 8022980:	4688      	mov	r8, r1
 8022982:	4615      	mov	r5, r2
 8022984:	b2b6      	uxth	r6, r6
 8022986:	d108      	bne.n	802299a <OBJ_GetObjectList+0x2e>
 8022988:	f7fd fca0 	bl	80202cc <COE_GetObjectDictionary>
 802298c:	4604      	mov	r4, r0
 802298e:	b938      	cbnz	r0, 80229a0 <OBJ_GetObjectList+0x34>
 8022990:	2f00      	cmp	r7, #0
 8022992:	d036      	beq.n	8022a02 <OBJ_GetObjectList+0x96>
 8022994:	231b      	movs	r3, #27
 8022996:	703b      	strb	r3, [r7, #0]
 8022998:	e033      	b.n	8022a02 <OBJ_GetObjectList+0x96>
 802299a:	4b1f      	ldr	r3, [pc, #124]	; (8022a18 <OBJ_GetObjectList+0xac>)
 802299c:	681c      	ldr	r4, [r3, #0]
 802299e:	e006      	b.n	80229ae <OBJ_GetObjectList+0x42>
 80229a0:	2d01      	cmp	r5, #1
 80229a2:	d925      	bls.n	80229f0 <OBJ_GetObjectList+0x84>
 80229a4:	8922      	ldrh	r2, [r4, #8]
 80229a6:	f5b2 5f80 	cmp.w	r2, #4096	; 0x1000
 80229aa:	d203      	bcs.n	80229b4 <OBJ_GetObjectList+0x48>
 80229ac:	6864      	ldr	r4, [r4, #4]
 80229ae:	2c00      	cmp	r4, #0
 80229b0:	d1f6      	bne.n	80229a0 <OBJ_GetObjectList+0x34>
 80229b2:	e026      	b.n	8022a02 <OBJ_GetObjectList+0x96>
 80229b4:	f1b9 0f00 	cmp.w	r9, #0
 80229b8:	d01e      	beq.n	80229f8 <OBJ_GetObjectList+0x8c>
 80229ba:	f8b4 c00c 	ldrh.w	ip, [r4, #12]
 80229be:	46cb      	mov	fp, r9
 80229c0:	2700      	movs	r7, #0
 80229c2:	b2bb      	uxth	r3, r7
 80229c4:	fa5f f18c 	uxtb.w	r1, ip
 80229c8:	428b      	cmp	r3, r1
 80229ca:	d8ef      	bhi.n	80229ac <OBJ_GetObjectList+0x40>
 80229cc:	b2f9      	uxtb	r1, r7
 80229ce:	4620      	mov	r0, r4
 80229d0:	e88d 1004 	stmia.w	sp, {r2, ip}
 80229d4:	f7ff ff8c 	bl	80228f0 <OBJ_GetEntryDesc>
 80229d8:	8883      	ldrh	r3, [r0, #4]
 80229da:	421e      	tst	r6, r3
 80229dc:	bf18      	it	ne
 80229de:	f04f 0b00 	movne.w	fp, #0
 80229e2:	3701      	adds	r7, #1
 80229e4:	e89d 1004 	ldmia.w	sp, {r2, ip}
 80229e8:	f1bb 0f00 	cmp.w	fp, #0
 80229ec:	d1e9      	bne.n	80229c2 <OBJ_GetObjectList+0x56>
 80229ee:	e003      	b.n	80229f8 <OBJ_GetObjectList+0x8c>
 80229f0:	8923      	ldrh	r3, [r4, #8]
 80229f2:	f8a8 3000 	strh.w	r3, [r8]
 80229f6:	e009      	b.n	8022a0c <OBJ_GetObjectList+0xa0>
 80229f8:	3d02      	subs	r5, #2
 80229fa:	f82a 2b02 	strh.w	r2, [sl], #2
 80229fe:	b2ad      	uxth	r5, r5
 8022a00:	e7d4      	b.n	80229ac <OBJ_GetObjectList+0x40>
 8022a02:	f64f 73ff 	movw	r3, #65535	; 0xffff
 8022a06:	f8a8 3000 	strh.w	r3, [r8]
 8022a0a:	2400      	movs	r4, #0
 8022a0c:	4b02      	ldr	r3, [pc, #8]	; (8022a18 <OBJ_GetObjectList+0xac>)
 8022a0e:	4628      	mov	r0, r5
 8022a10:	601c      	str	r4, [r3, #0]
 8022a12:	b003      	add	sp, #12
 8022a14:	e8bd 8ff0 	ldmia.w	sp!, {r4, r5, r6, r7, r8, r9, sl, fp, pc}
 8022a18:	1ffea740 	.word	0x1ffea740

08022a1c <OBJ_GetObjDesc>:
 8022a1c:	300a      	adds	r0, #10
 8022a1e:	4770      	bx	lr

08022a20 <OBJ_GetEntryOffset>:
 8022a20:	b5f0      	push	{r4, r5, r6, r7, lr}
 8022a22:	898f      	ldrh	r7, [r1, #12]
 8022a24:	f3c7 2703 	ubfx	r7, r7, #8, #4
 8022a28:	2800      	cmp	r0, #0
 8022a2a:	bf14      	ite	ne
 8022a2c:	2310      	movne	r3, #16
 8022a2e:	2300      	moveq	r3, #0
 8022a30:	2f07      	cmp	r7, #7
 8022a32:	d065      	beq.n	8022b00 <OBJ_GetEntryOffset+0xe0>
 8022a34:	2401      	movs	r4, #1
 8022a36:	b286      	uxth	r6, r0
 8022a38:	42b4      	cmp	r4, r6
 8022a3a:	d85f      	bhi.n	8022afc <OBJ_GetEntryOffset+0xdc>
 8022a3c:	2f08      	cmp	r7, #8
 8022a3e:	690d      	ldr	r5, [r1, #16]
 8022a40:	bf16      	itet	ne
 8022a42:	2206      	movne	r2, #6
 8022a44:	3506      	addeq	r5, #6
 8022a46:	fb02 5504 	mlane	r5, r2, r4, r5
 8022a4a:	882a      	ldrh	r2, [r5, #0]
 8022a4c:	2a15      	cmp	r2, #21
 8022a4e:	d043      	beq.n	8022ad8 <OBJ_GetEntryOffset+0xb8>
 8022a50:	d80e      	bhi.n	8022a70 <OBJ_GetEntryOffset+0x50>
 8022a52:	2a08      	cmp	r2, #8
 8022a54:	d808      	bhi.n	8022a68 <OBJ_GetEntryOffset+0x48>
 8022a56:	2a07      	cmp	r2, #7
 8022a58:	d230      	bcs.n	8022abc <OBJ_GetEntryOffset+0x9c>
 8022a5a:	2a04      	cmp	r2, #4
 8022a5c:	d02e      	beq.n	8022abc <OBJ_GetEntryOffset+0x9c>
 8022a5e:	2a06      	cmp	r2, #6
 8022a60:	d01d      	beq.n	8022a9e <OBJ_GetEntryOffset+0x7e>
 8022a62:	2a03      	cmp	r2, #3
 8022a64:	d142      	bne.n	8022aec <OBJ_GetEntryOffset+0xcc>
 8022a66:	e01a      	b.n	8022a9e <OBJ_GetEntryOffset+0x7e>
 8022a68:	2a0b      	cmp	r2, #11
 8022a6a:	d018      	beq.n	8022a9e <OBJ_GetEntryOffset+0x7e>
 8022a6c:	2a11      	cmp	r2, #17
 8022a6e:	e007      	b.n	8022a80 <OBJ_GetEntryOffset+0x60>
 8022a70:	2a2e      	cmp	r2, #46	; 0x2e
 8022a72:	d014      	beq.n	8022a9e <OBJ_GetEntryOffset+0x7e>
 8022a74:	d806      	bhi.n	8022a84 <OBJ_GetEntryOffset+0x64>
 8022a76:	2a1f      	cmp	r2, #31
 8022a78:	d011      	beq.n	8022a9e <OBJ_GetEntryOffset+0x7e>
 8022a7a:	2a20      	cmp	r2, #32
 8022a7c:	d01e      	beq.n	8022abc <OBJ_GetEntryOffset+0x9c>
 8022a7e:	2a1b      	cmp	r2, #27
 8022a80:	d134      	bne.n	8022aec <OBJ_GetEntryOffset+0xcc>
 8022a82:	e029      	b.n	8022ad8 <OBJ_GetEntryOffset+0xb8>
 8022a84:	f5b2 7f18 	cmp.w	r2, #608	; 0x260
 8022a88:	d009      	beq.n	8022a9e <OBJ_GetEntryOffset+0x7e>
 8022a8a:	d802      	bhi.n	8022a92 <OBJ_GetEntryOffset+0x72>
 8022a8c:	2a2f      	cmp	r2, #47	; 0x2f
 8022a8e:	d015      	beq.n	8022abc <OBJ_GetEntryOffset+0x9c>
 8022a90:	e02c      	b.n	8022aec <OBJ_GetEntryOffset+0xcc>
 8022a92:	f2a2 2e62 	subw	lr, r2, #610	; 0x262
 8022a96:	f1be 0f01 	cmp.w	lr, #1
 8022a9a:	d90f      	bls.n	8022abc <OBJ_GetEntryOffset+0x9c>
 8022a9c:	e026      	b.n	8022aec <OBJ_GetEntryOffset+0xcc>
 8022a9e:	f103 0e0f 	add.w	lr, r3, #15
 8022aa2:	42b4      	cmp	r4, r6
 8022aa4:	f64f 73f0 	movw	r3, #65520	; 0xfff0
 8022aa8:	ea0e 0303 	and.w	r3, lr, r3
 8022aac:	d223      	bcs.n	8022af6 <OBJ_GetEntryOffset+0xd6>
 8022aae:	2a0b      	cmp	r2, #11
 8022ab0:	d01e      	beq.n	8022af0 <OBJ_GetEntryOffset+0xd0>
 8022ab2:	f5b2 7f18 	cmp.w	r2, #608	; 0x260
 8022ab6:	d01b      	beq.n	8022af0 <OBJ_GetEntryOffset+0xd0>
 8022ab8:	3310      	adds	r3, #16
 8022aba:	e01b      	b.n	8022af4 <OBJ_GetEntryOffset+0xd4>
 8022abc:	f103 0e1f 	add.w	lr, r3, #31
 8022ac0:	42b4      	cmp	r4, r6
 8022ac2:	f64f 73e0 	movw	r3, #65504	; 0xffe0
 8022ac6:	ea0e 0303 	and.w	r3, lr, r3
 8022aca:	d214      	bcs.n	8022af6 <OBJ_GetEntryOffset+0xd6>
 8022acc:	f2a2 2262 	subw	r2, r2, #610	; 0x262
 8022ad0:	2a01      	cmp	r2, #1
 8022ad2:	d90d      	bls.n	8022af0 <OBJ_GetEntryOffset+0xd0>
 8022ad4:	3320      	adds	r3, #32
 8022ad6:	e00d      	b.n	8022af4 <OBJ_GetEntryOffset+0xd4>
 8022ad8:	f103 021f 	add.w	r2, r3, #31
 8022adc:	42b4      	cmp	r4, r6
 8022ade:	f64f 73e0 	movw	r3, #65504	; 0xffe0
 8022ae2:	ea03 0302 	and.w	r3, r3, r2
 8022ae6:	d206      	bcs.n	8022af6 <OBJ_GetEntryOffset+0xd6>
 8022ae8:	3340      	adds	r3, #64	; 0x40
 8022aea:	e003      	b.n	8022af4 <OBJ_GetEntryOffset+0xd4>
 8022aec:	42b4      	cmp	r4, r6
 8022aee:	d202      	bcs.n	8022af6 <OBJ_GetEntryOffset+0xd6>
 8022af0:	886a      	ldrh	r2, [r5, #2]
 8022af2:	4413      	add	r3, r2
 8022af4:	b29b      	uxth	r3, r3
 8022af6:	3401      	adds	r4, #1
 8022af8:	b2a4      	uxth	r4, r4
 8022afa:	e79c      	b.n	8022a36 <OBJ_GetEntryOffset+0x16>
 8022afc:	4618      	mov	r0, r3
 8022afe:	bdf0      	pop	{r4, r5, r6, r7, pc}
 8022b00:	2000      	movs	r0, #0
 8022b02:	bdf0      	pop	{r4, r5, r6, r7, pc}

08022b04 <CheckSyncTypeValue>:
 8022b04:	2902      	cmp	r1, #2
 8022b06:	d034      	beq.n	8022b72 <CheckSyncTypeValue+0x6e>
 8022b08:	d804      	bhi.n	8022b14 <CheckSyncTypeValue+0x10>
 8022b0a:	2900      	cmp	r1, #0
 8022b0c:	d052      	beq.n	8022bb4 <CheckSyncTypeValue+0xb0>
 8022b0e:	2901      	cmp	r1, #1
 8022b10:	d005      	beq.n	8022b1e <CheckSyncTypeValue+0x1a>
 8022b12:	e051      	b.n	8022bb8 <CheckSyncTypeValue+0xb4>
 8022b14:	2903      	cmp	r1, #3
 8022b16:	d03b      	beq.n	8022b90 <CheckSyncTypeValue+0x8c>
 8022b18:	2922      	cmp	r1, #34	; 0x22
 8022b1a:	d01b      	beq.n	8022b54 <CheckSyncTypeValue+0x50>
 8022b1c:	e04c      	b.n	8022bb8 <CheckSyncTypeValue+0xb4>
 8022b1e:	f641 4332 	movw	r3, #7218	; 0x1c32
 8022b22:	4298      	cmp	r0, r3
 8022b24:	d108      	bne.n	8022b38 <CheckSyncTypeValue+0x34>
 8022b26:	4b25      	ldr	r3, [pc, #148]	; (8022bbc <CheckSyncTypeValue+0xb8>)
 8022b28:	881b      	ldrh	r3, [r3, #0]
 8022b2a:	2b00      	cmp	r3, #0
 8022b2c:	d044      	beq.n	8022bb8 <CheckSyncTypeValue+0xb4>
 8022b2e:	4b24      	ldr	r3, [pc, #144]	; (8022bc0 <CheckSyncTypeValue+0xbc>)
 8022b30:	899b      	ldrh	r3, [r3, #12]
 8022b32:	f013 0f02 	tst.w	r3, #2
 8022b36:	e033      	b.n	8022ba0 <CheckSyncTypeValue+0x9c>
 8022b38:	f641 4333 	movw	r3, #7219	; 0x1c33
 8022b3c:	4298      	cmp	r0, r3
 8022b3e:	d13b      	bne.n	8022bb8 <CheckSyncTypeValue+0xb4>
 8022b40:	4b20      	ldr	r3, [pc, #128]	; (8022bc4 <CheckSyncTypeValue+0xc0>)
 8022b42:	899b      	ldrh	r3, [r3, #12]
 8022b44:	079a      	lsls	r2, r3, #30
 8022b46:	d537      	bpl.n	8022bb8 <CheckSyncTypeValue+0xb4>
 8022b48:	4b1c      	ldr	r3, [pc, #112]	; (8022bbc <CheckSyncTypeValue+0xb8>)
 8022b4a:	881b      	ldrh	r3, [r3, #0]
 8022b4c:	2b00      	cmp	r3, #0
 8022b4e:	d133      	bne.n	8022bb8 <CheckSyncTypeValue+0xb4>
 8022b50:	4b1d      	ldr	r3, [pc, #116]	; (8022bc8 <CheckSyncTypeValue+0xc4>)
 8022b52:	e008      	b.n	8022b66 <CheckSyncTypeValue+0x62>
 8022b54:	f641 4333 	movw	r3, #7219	; 0x1c33
 8022b58:	4298      	cmp	r0, r3
 8022b5a:	d12d      	bne.n	8022bb8 <CheckSyncTypeValue+0xb4>
 8022b5c:	4b19      	ldr	r3, [pc, #100]	; (8022bc4 <CheckSyncTypeValue+0xc0>)
 8022b5e:	899b      	ldrh	r3, [r3, #12]
 8022b60:	079b      	lsls	r3, r3, #30
 8022b62:	d529      	bpl.n	8022bb8 <CheckSyncTypeValue+0xb4>
 8022b64:	4b15      	ldr	r3, [pc, #84]	; (8022bbc <CheckSyncTypeValue+0xb8>)
 8022b66:	881b      	ldrh	r3, [r3, #0]
 8022b68:	2b00      	cmp	r3, #0
 8022b6a:	bf0c      	ite	eq
 8022b6c:	2012      	moveq	r0, #18
 8022b6e:	2000      	movne	r0, #0
 8022b70:	4770      	bx	lr
 8022b72:	f641 4332 	movw	r3, #7218	; 0x1c32
 8022b76:	4298      	cmp	r0, r3
 8022b78:	d101      	bne.n	8022b7e <CheckSyncTypeValue+0x7a>
 8022b7a:	4b11      	ldr	r3, [pc, #68]	; (8022bc0 <CheckSyncTypeValue+0xbc>)
 8022b7c:	e004      	b.n	8022b88 <CheckSyncTypeValue+0x84>
 8022b7e:	f641 4333 	movw	r3, #7219	; 0x1c33
 8022b82:	4298      	cmp	r0, r3
 8022b84:	d118      	bne.n	8022bb8 <CheckSyncTypeValue+0xb4>
 8022b86:	4b0f      	ldr	r3, [pc, #60]	; (8022bc4 <CheckSyncTypeValue+0xc0>)
 8022b88:	899b      	ldrh	r3, [r3, #12]
 8022b8a:	f013 0f04 	tst.w	r3, #4
 8022b8e:	e007      	b.n	8022ba0 <CheckSyncTypeValue+0x9c>
 8022b90:	f641 4332 	movw	r3, #7218	; 0x1c32
 8022b94:	4298      	cmp	r0, r3
 8022b96:	d107      	bne.n	8022ba8 <CheckSyncTypeValue+0xa4>
 8022b98:	4b09      	ldr	r3, [pc, #36]	; (8022bc0 <CheckSyncTypeValue+0xbc>)
 8022b9a:	899b      	ldrh	r3, [r3, #12]
 8022b9c:	f013 0f08 	tst.w	r3, #8
 8022ba0:	bf0c      	ite	eq
 8022ba2:	2012      	moveq	r0, #18
 8022ba4:	2000      	movne	r0, #0
 8022ba6:	4770      	bx	lr
 8022ba8:	f641 4333 	movw	r3, #7219	; 0x1c33
 8022bac:	4298      	cmp	r0, r3
 8022bae:	d103      	bne.n	8022bb8 <CheckSyncTypeValue+0xb4>
 8022bb0:	4b04      	ldr	r3, [pc, #16]	; (8022bc4 <CheckSyncTypeValue+0xc0>)
 8022bb2:	e7f2      	b.n	8022b9a <CheckSyncTypeValue+0x96>
 8022bb4:	4608      	mov	r0, r1
 8022bb6:	4770      	bx	lr
 8022bb8:	2012      	movs	r0, #18
 8022bba:	4770      	bx	lr
 8022bbc:	1ffea5c2 	.word	0x1ffea5c2
 8022bc0:	1ffea6dc 	.word	0x1ffea6dc
 8022bc4:	1ffea698 	.word	0x1ffea698
 8022bc8:	1ffea5ea 	.word	0x1ffea5ea

08022bcc <OBJ_Read>:
 8022bcc:	e92d 4ff0 	stmdb	sp!, {r4, r5, r6, r7, r8, r9, sl, fp, lr}
 8022bd0:	899e      	ldrh	r6, [r3, #12]
 8022bd2:	b087      	sub	sp, #28
 8022bd4:	461f      	mov	r7, r3
 8022bd6:	f3c6 2303 	ubfx	r3, r6, #8, #4
 8022bda:	2b07      	cmp	r3, #7
 8022bdc:	4682      	mov	sl, r0
 8022bde:	468b      	mov	fp, r1
 8022be0:	9201      	str	r2, [sp, #4]
 8022be2:	9c10      	ldr	r4, [sp, #64]	; 0x40
 8022be4:	f89d 8044 	ldrb.w	r8, [sp, #68]	; 0x44
 8022be8:	9302      	str	r3, [sp, #8]
 8022bea:	b2f6      	uxtb	r6, r6
 8022bec:	fa1f f981 	uxth.w	r9, r1
 8022bf0:	f000 8187 	beq.w	8022f02 <OBJ_Read+0x336>
 8022bf4:	f5b0 5f80 	cmp.w	r0, #4096	; 0x1000
 8022bf8:	f0c0 8183 	bcc.w	8022f02 <OBJ_Read+0x336>
 8022bfc:	69bb      	ldr	r3, [r7, #24]
 8022bfe:	781e      	ldrb	r6, [r3, #0]
 8022c00:	f1b8 0f00 	cmp.w	r8, #0
 8022c04:	d116      	bne.n	8022c34 <OBJ_Read+0x68>
 8022c06:	45b1      	cmp	r9, r6
 8022c08:	f200 8177 	bhi.w	8022efa <OBJ_Read+0x32e>
 8022c0c:	4638      	mov	r0, r7
 8022c0e:	4659      	mov	r1, fp
 8022c10:	f7ff fe6e 	bl	80228f0 <OBJ_GetEntryDesc>
 8022c14:	8883      	ldrh	r3, [r0, #4]
 8022c16:	b90b      	cbnz	r3, 8022c1c <OBJ_Read+0x50>
 8022c18:	2005      	movs	r0, #5
 8022c1a:	e177      	b.n	8022f0c <OBJ_Read+0x340>
 8022c1c:	4ab1      	ldr	r2, [pc, #708]	; (8022ee4 <OBJ_Read+0x318>)
 8022c1e:	7812      	ldrb	r2, [r2, #0]
 8022c20:	f003 0307 	and.w	r3, r3, #7
 8022c24:	ea12 0243 	ands.w	r2, r2, r3, lsl #1
 8022c28:	d106      	bne.n	8022c38 <OBJ_Read+0x6c>
 8022c2a:	2b00      	cmp	r3, #0
 8022c2c:	bf0c      	ite	eq
 8022c2e:	2006      	moveq	r0, #6
 8022c30:	201a      	movne	r0, #26
 8022c32:	e16b      	b.n	8022f0c <OBJ_Read+0x340>
 8022c34:	9603      	str	r6, [sp, #12]
 8022c36:	e001      	b.n	8022c3c <OBJ_Read+0x70>
 8022c38:	9603      	str	r6, [sp, #12]
 8022c3a:	464e      	mov	r6, r9
 8022c3c:	4baa      	ldr	r3, [pc, #680]	; (8022ee8 <OBJ_Read+0x31c>)
 8022c3e:	681b      	ldr	r3, [r3, #0]
 8022c40:	b133      	cbz	r3, 8022c50 <OBJ_Read+0x84>
 8022c42:	f118 0200 	adds.w	r2, r8, #0
 8022c46:	4650      	mov	r0, sl
 8022c48:	4659      	mov	r1, fp
 8022c4a:	bf18      	it	ne
 8022c4c:	2201      	movne	r2, #1
 8022c4e:	4798      	blx	r3
 8022c50:	69fd      	ldr	r5, [r7, #28]
 8022c52:	b155      	cbz	r5, 8022c6a <OBJ_Read+0x9e>
 8022c54:	9a01      	ldr	r2, [sp, #4]
 8022c56:	f8cd 8040 	str.w	r8, [sp, #64]	; 0x40
 8022c5a:	4650      	mov	r0, sl
 8022c5c:	4659      	mov	r1, fp
 8022c5e:	4623      	mov	r3, r4
 8022c60:	46ac      	mov	ip, r5
 8022c62:	b007      	add	sp, #28
 8022c64:	e8bd 4ff0 	ldmia.w	sp!, {r4, r5, r6, r7, r8, r9, sl, fp, lr}
 8022c68:	4760      	bx	ip
 8022c6a:	f5ba 5f80 	cmp.w	sl, #4096	; 0x1000
 8022c6e:	d202      	bcs.n	8022c76 <OBJ_Read+0xaa>
 8022c70:	f1bb 0f00 	cmp.w	fp, #0
 8022c74:	d103      	bne.n	8022c7e <OBJ_Read+0xb2>
 8022c76:	2300      	movs	r3, #0
 8022c78:	46cb      	mov	fp, r9
 8022c7a:	9301      	str	r3, [sp, #4]
 8022c7c:	e046      	b.n	8022d0c <OBJ_Read+0x140>
 8022c7e:	4659      	mov	r1, fp
 8022c80:	4638      	mov	r0, r7
 8022c82:	f7ff fe35 	bl	80228f0 <OBJ_GetEntryDesc>
 8022c86:	f10b 4c80 	add.w	ip, fp, #1073741824	; 0x40000000
 8022c8a:	69bb      	ldr	r3, [r7, #24]
 8022c8c:	8842      	ldrh	r2, [r0, #2]
 8022c8e:	f10c 3cff 	add.w	ip, ip, #4294967295
 8022c92:	3207      	adds	r2, #7
 8022c94:	f853 102c 	ldr.w	r1, [r3, ip, lsl #2]
 8022c98:	880b      	ldrh	r3, [r1, #0]
 8022c9a:	8023      	strh	r3, [r4, #0]
 8022c9c:	884b      	ldrh	r3, [r1, #2]
 8022c9e:	8063      	strh	r3, [r4, #2]
 8022ca0:	10d2      	asrs	r2, r2, #3
 8022ca2:	1d20      	adds	r0, r4, #4
 8022ca4:	3104      	adds	r1, #4
 8022ca6:	3a04      	subs	r2, #4
 8022ca8:	f002 ff90 	bl	8025bcc <memcpy>
 8022cac:	4628      	mov	r0, r5
 8022cae:	e12d      	b.n	8022f0c <OBJ_Read+0x340>
 8022cb0:	69ba      	ldr	r2, [r7, #24]
 8022cb2:	f1bb 0f00 	cmp.w	fp, #0
 8022cb6:	d02c      	beq.n	8022d12 <OBJ_Read+0x146>
 8022cb8:	f5ba 5f80 	cmp.w	sl, #4096	; 0x1000
 8022cbc:	d32b      	bcc.n	8022d16 <OBJ_Read+0x14a>
 8022cbe:	fa5f f08b 	uxtb.w	r0, fp
 8022cc2:	4639      	mov	r1, r7
 8022cc4:	9205      	str	r2, [sp, #20]
 8022cc6:	9304      	str	r3, [sp, #16]
 8022cc8:	f7ff feaa 	bl	8022a20 <OBJ_GetEntryOffset>
 8022ccc:	9b04      	ldr	r3, [sp, #16]
 8022cce:	9a05      	ldr	r2, [sp, #20]
 8022cd0:	4605      	mov	r5, r0
 8022cd2:	fa5f f18b 	uxtb.w	r1, fp
 8022cd6:	4638      	mov	r0, r7
 8022cd8:	9304      	str	r3, [sp, #16]
 8022cda:	9205      	str	r2, [sp, #20]
 8022cdc:	f7ff fe08 	bl	80228f0 <OBJ_GetEntryDesc>
 8022ce0:	4980      	ldr	r1, [pc, #512]	; (8022ee4 <OBJ_Read+0x318>)
 8022ce2:	9a05      	ldr	r2, [sp, #20]
 8022ce4:	4684      	mov	ip, r0
 8022ce6:	7808      	ldrb	r0, [r1, #0]
 8022ce8:	f89c 1004 	ldrb.w	r1, [ip, #4]
 8022cec:	f001 0107 	and.w	r1, r1, #7
 8022cf0:	ea10 0341 	ands.w	r3, r0, r1, lsl #1
 8022cf4:	9b04      	ldr	r3, [sp, #16]
 8022cf6:	f000 80ce 	beq.w	8022e96 <OBJ_Read+0x2ca>
 8022cfa:	45cb      	cmp	fp, r9
 8022cfc:	d00f      	beq.n	8022d1e <OBJ_Read+0x152>
 8022cfe:	f1b8 0f00 	cmp.w	r8, #0
 8022d02:	d10a      	bne.n	8022d1a <OBJ_Read+0x14e>
 8022d04:	f10b 0b01 	add.w	fp, fp, #1
 8022d08:	fa1f fb8b 	uxth.w	fp, fp
 8022d0c:	45b3      	cmp	fp, r6
 8022d0e:	d9cf      	bls.n	8022cb0 <OBJ_Read+0xe4>
 8022d10:	e0ee      	b.n	8022ef0 <OBJ_Read+0x324>
 8022d12:	465d      	mov	r5, fp
 8022d14:	e7dd      	b.n	8022cd2 <OBJ_Read+0x106>
 8022d16:	2500      	movs	r5, #0
 8022d18:	e7db      	b.n	8022cd2 <OBJ_Read+0x106>
 8022d1a:	45cb      	cmp	fp, r9
 8022d1c:	d3f2      	bcc.n	8022d04 <OBJ_Read+0x138>
 8022d1e:	f1bb 0f00 	cmp.w	fp, #0
 8022d22:	d107      	bne.n	8022d34 <OBJ_Read+0x168>
 8022d24:	9902      	ldr	r1, [sp, #8]
 8022d26:	2907      	cmp	r1, #7
 8022d28:	d004      	beq.n	8022d34 <OBJ_Read+0x168>
 8022d2a:	f8bd 200c 	ldrh.w	r2, [sp, #12]
 8022d2e:	f824 2b02 	strh.w	r2, [r4], #2
 8022d32:	e7e7      	b.n	8022d04 <OBJ_Read+0x138>
 8022d34:	f8bc 3000 	ldrh.w	r3, [ip]
 8022d38:	f3c5 100f 	ubfx	r0, r5, #4, #16
 8022d3c:	f5b3 6fe0 	cmp.w	r3, #1792	; 0x700
 8022d40:	eb02 0140 	add.w	r1, r2, r0, lsl #1
 8022d44:	d30e      	bcc.n	8022d64 <OBJ_Read+0x198>
 8022d46:	f8bc e002 	ldrh.w	lr, [ip, #2]
 8022d4a:	f1be 0f08 	cmp.w	lr, #8
 8022d4e:	d803      	bhi.n	8022d58 <OBJ_Read+0x18c>
 8022d50:	f10e 032f 	add.w	r3, lr, #47	; 0x2f
 8022d54:	b29b      	uxth	r3, r3
 8022d56:	e005      	b.n	8022d64 <OBJ_Read+0x198>
 8022d58:	f1be 0f10 	cmp.w	lr, #16
 8022d5c:	d063      	beq.n	8022e26 <OBJ_Read+0x25a>
 8022d5e:	f1be 0f20 	cmp.w	lr, #32
 8022d62:	d068      	beq.n	8022e36 <OBJ_Read+0x26a>
 8022d64:	2b11      	cmp	r3, #17
 8022d66:	d070      	beq.n	8022e4a <OBJ_Read+0x27e>
 8022d68:	d813      	bhi.n	8022d92 <OBJ_Read+0x1c6>
 8022d6a:	2b05      	cmp	r3, #5
 8022d6c:	d03f      	beq.n	8022dee <OBJ_Read+0x222>
 8022d6e:	d807      	bhi.n	8022d80 <OBJ_Read+0x1b4>
 8022d70:	2b02      	cmp	r3, #2
 8022d72:	d801      	bhi.n	8022d78 <OBJ_Read+0x1ac>
 8022d74:	b353      	cbz	r3, 8022dcc <OBJ_Read+0x200>
 8022d76:	e03a      	b.n	8022dee <OBJ_Read+0x222>
 8022d78:	2b03      	cmp	r3, #3
 8022d7a:	d054      	beq.n	8022e26 <OBJ_Read+0x25a>
 8022d7c:	2b04      	cmp	r3, #4
 8022d7e:	e01e      	b.n	8022dbe <OBJ_Read+0x1f2>
 8022d80:	2b08      	cmp	r3, #8
 8022d82:	d802      	bhi.n	8022d8a <OBJ_Read+0x1be>
 8022d84:	2b07      	cmp	r3, #7
 8022d86:	d34e      	bcc.n	8022e26 <OBJ_Read+0x25a>
 8022d88:	e055      	b.n	8022e36 <OBJ_Read+0x26a>
 8022d8a:	2b09      	cmp	r3, #9
 8022d8c:	d06b      	beq.n	8022e66 <OBJ_Read+0x29a>
 8022d8e:	2b0b      	cmp	r3, #11
 8022d90:	e01a      	b.n	8022dc8 <OBJ_Read+0x1fc>
 8022d92:	2b2d      	cmp	r3, #45	; 0x2d
 8022d94:	d02b      	beq.n	8022dee <OBJ_Read+0x222>
 8022d96:	d80b      	bhi.n	8022db0 <OBJ_Read+0x1e4>
 8022d98:	2b1e      	cmp	r3, #30
 8022d9a:	d028      	beq.n	8022dee <OBJ_Read+0x222>
 8022d9c:	d804      	bhi.n	8022da8 <OBJ_Read+0x1dc>
 8022d9e:	2b15      	cmp	r3, #21
 8022da0:	d053      	beq.n	8022e4a <OBJ_Read+0x27e>
 8022da2:	2b1b      	cmp	r3, #27
 8022da4:	d051      	beq.n	8022e4a <OBJ_Read+0x27e>
 8022da6:	e0aa      	b.n	8022efe <OBJ_Read+0x332>
 8022da8:	2b1f      	cmp	r3, #31
 8022daa:	d03c      	beq.n	8022e26 <OBJ_Read+0x25a>
 8022dac:	2b20      	cmp	r3, #32
 8022dae:	e006      	b.n	8022dbe <OBJ_Read+0x1f2>
 8022db0:	2b37      	cmp	r3, #55	; 0x37
 8022db2:	d806      	bhi.n	8022dc2 <OBJ_Read+0x1f6>
 8022db4:	2b30      	cmp	r3, #48	; 0x30
 8022db6:	d21a      	bcs.n	8022dee <OBJ_Read+0x222>
 8022db8:	2b2e      	cmp	r3, #46	; 0x2e
 8022dba:	d034      	beq.n	8022e26 <OBJ_Read+0x25a>
 8022dbc:	2b2f      	cmp	r3, #47	; 0x2f
 8022dbe:	d03a      	beq.n	8022e36 <OBJ_Read+0x26a>
 8022dc0:	e09d      	b.n	8022efe <OBJ_Read+0x332>
 8022dc2:	f5a3 7318 	sub.w	r3, r3, #608	; 0x260
 8022dc6:	2b03      	cmp	r3, #3
 8022dc8:	d94d      	bls.n	8022e66 <OBJ_Read+0x29a>
 8022dca:	e098      	b.n	8022efe <OBJ_Read+0x332>
 8022dcc:	f1b8 0f00 	cmp.w	r8, #0
 8022dd0:	f000 8095 	beq.w	8022efe <OBJ_Read+0x332>
 8022dd4:	f8bc 3002 	ldrh.w	r3, [ip, #2]
 8022dd8:	0718      	lsls	r0, r3, #28
 8022dda:	d003      	beq.n	8022de4 <OBJ_Read+0x218>
 8022ddc:	441d      	add	r5, r3
 8022dde:	0729      	lsls	r1, r5, #28
 8022de0:	bf08      	it	eq
 8022de2:	3402      	addeq	r4, #2
 8022de4:	f3c3 1303 	ubfx	r3, r3, #4, #4
 8022de8:	eb04 0443 	add.w	r4, r4, r3, lsl #1
 8022dec:	e078      	b.n	8022ee0 <OBJ_Read+0x314>
 8022dee:	f8bc e002 	ldrh.w	lr, [ip, #2]
 8022df2:	493e      	ldr	r1, [pc, #248]	; (8022eec <OBJ_Read+0x320>)
 8022df4:	f832 0010 	ldrh.w	r0, [r2, r0, lsl #1]
 8022df8:	f831 101e 	ldrh.w	r1, [r1, lr, lsl #1]
 8022dfc:	f005 030f 	and.w	r3, r5, #15
 8022e00:	4099      	lsls	r1, r3
 8022e02:	b289      	uxth	r1, r1
 8022e04:	b903      	cbnz	r3, 8022e08 <OBJ_Read+0x23c>
 8022e06:	8023      	strh	r3, [r4, #0]
 8022e08:	8822      	ldrh	r2, [r4, #0]
 8022e0a:	4001      	ands	r1, r0
 8022e0c:	f1b8 0f00 	cmp.w	r8, #0
 8022e10:	d100      	bne.n	8022e14 <OBJ_Read+0x248>
 8022e12:	4119      	asrs	r1, r3
 8022e14:	4311      	orrs	r1, r2
 8022e16:	8021      	strh	r1, [r4, #0]
 8022e18:	f8bc 3002 	ldrh.w	r3, [ip, #2]
 8022e1c:	441d      	add	r5, r3
 8022e1e:	072a      	lsls	r2, r5, #28
 8022e20:	d15e      	bne.n	8022ee0 <OBJ_Read+0x314>
 8022e22:	3402      	adds	r4, #2
 8022e24:	e05c      	b.n	8022ee0 <OBJ_Read+0x314>
 8022e26:	072b      	lsls	r3, r5, #28
 8022e28:	f47f aef6 	bne.w	8022c18 <OBJ_Read+0x4c>
 8022e2c:	f832 3010 	ldrh.w	r3, [r2, r0, lsl #1]
 8022e30:	f824 3b02 	strh.w	r3, [r4], #2
 8022e34:	e054      	b.n	8022ee0 <OBJ_Read+0x314>
 8022e36:	072d      	lsls	r5, r5, #28
 8022e38:	f47f aeee 	bne.w	8022c18 <OBJ_Read+0x4c>
 8022e3c:	f832 3010 	ldrh.w	r3, [r2, r0, lsl #1]
 8022e40:	8023      	strh	r3, [r4, #0]
 8022e42:	884b      	ldrh	r3, [r1, #2]
 8022e44:	8063      	strh	r3, [r4, #2]
 8022e46:	3404      	adds	r4, #4
 8022e48:	e04a      	b.n	8022ee0 <OBJ_Read+0x314>
 8022e4a:	072b      	lsls	r3, r5, #28
 8022e4c:	f47f aee4 	bne.w	8022c18 <OBJ_Read+0x4c>
 8022e50:	f832 3010 	ldrh.w	r3, [r2, r0, lsl #1]
 8022e54:	8023      	strh	r3, [r4, #0]
 8022e56:	884b      	ldrh	r3, [r1, #2]
 8022e58:	8063      	strh	r3, [r4, #2]
 8022e5a:	888b      	ldrh	r3, [r1, #4]
 8022e5c:	80a3      	strh	r3, [r4, #4]
 8022e5e:	88cb      	ldrh	r3, [r1, #6]
 8022e60:	80e3      	strh	r3, [r4, #6]
 8022e62:	3408      	adds	r4, #8
 8022e64:	e03c      	b.n	8022ee0 <OBJ_Read+0x314>
 8022e66:	072d      	lsls	r5, r5, #28
 8022e68:	f47f aed6 	bne.w	8022c18 <OBJ_Read+0x4c>
 8022e6c:	f8bc 2002 	ldrh.w	r2, [ip, #2]
 8022e70:	f8cd c010 	str.w	ip, [sp, #16]
 8022e74:	3207      	adds	r2, #7
 8022e76:	4620      	mov	r0, r4
 8022e78:	10d2      	asrs	r2, r2, #3
 8022e7a:	f002 fea7 	bl	8025bcc <memcpy>
 8022e7e:	f8dd c010 	ldr.w	ip, [sp, #16]
 8022e82:	f8bc 3002 	ldrh.w	r3, [ip, #2]
 8022e86:	091a      	lsrs	r2, r3, #4
 8022e88:	0718      	lsls	r0, r3, #28
 8022e8a:	eb04 0442 	add.w	r4, r4, r2, lsl #1
 8022e8e:	d027      	beq.n	8022ee0 <OBJ_Read+0x314>
 8022e90:	7823      	ldrb	r3, [r4, #0]
 8022e92:	8023      	strh	r3, [r4, #0]
 8022e94:	e024      	b.n	8022ee0 <OBJ_Read+0x314>
 8022e96:	f015 020f 	ands.w	r2, r5, #15
 8022e9a:	bf08      	it	eq
 8022e9c:	8022      	strheq	r2, [r4, #0]
 8022e9e:	f8bc 2002 	ldrh.w	r2, [ip, #2]
 8022ea2:	0711      	lsls	r1, r2, #28
 8022ea4:	d005      	beq.n	8022eb2 <OBJ_Read+0x2e6>
 8022ea6:	4415      	add	r5, r2
 8022ea8:	f015 050f 	ands.w	r5, r5, #15
 8022eac:	bf04      	itt	eq
 8022eae:	8065      	strheq	r5, [r4, #2]
 8022eb0:	3402      	addeq	r4, #2
 8022eb2:	2200      	movs	r2, #0
 8022eb4:	f8bc 1002 	ldrh.w	r1, [ip, #2]
 8022eb8:	b2d0      	uxtb	r0, r2
 8022eba:	f3c1 1103 	ubfx	r1, r1, #4, #4
 8022ebe:	4288      	cmp	r0, r1
 8022ec0:	f102 0201 	add.w	r2, r2, #1
 8022ec4:	da03      	bge.n	8022ece <OBJ_Read+0x302>
 8022ec6:	2100      	movs	r1, #0
 8022ec8:	f824 1f02 	strh.w	r1, [r4, #2]!
 8022ecc:	e7f2      	b.n	8022eb4 <OBJ_Read+0x2e8>
 8022ece:	f8bc 2004 	ldrh.w	r2, [ip, #4]
 8022ed2:	f012 0f07 	tst.w	r2, #7
 8022ed6:	bf0c      	ite	eq
 8022ed8:	2206      	moveq	r2, #6
 8022eda:	221a      	movne	r2, #26
 8022edc:	9201      	str	r2, [sp, #4]
 8022ede:	e711      	b.n	8022d04 <OBJ_Read+0x138>
 8022ee0:	2301      	movs	r3, #1
 8022ee2:	e70f      	b.n	8022d04 <OBJ_Read+0x138>
 8022ee4:	1ffea5c1 	.word	0x1ffea5c1
 8022ee8:	1ffea4e8 	.word	0x1ffea4e8
 8022eec:	080262b2 	.word	0x080262b2
 8022ef0:	2b00      	cmp	r3, #0
 8022ef2:	9801      	ldr	r0, [sp, #4]
 8022ef4:	bf18      	it	ne
 8022ef6:	2000      	movne	r0, #0
 8022ef8:	e008      	b.n	8022f0c <OBJ_Read+0x340>
 8022efa:	2011      	movs	r0, #17
 8022efc:	e006      	b.n	8022f0c <OBJ_Read+0x340>
 8022efe:	2018      	movs	r0, #24
 8022f00:	e004      	b.n	8022f0c <OBJ_Read+0x340>
 8022f02:	f1b8 0f00 	cmp.w	r8, #0
 8022f06:	f47f ae87 	bne.w	8022c18 <OBJ_Read+0x4c>
 8022f0a:	e67c      	b.n	8022c06 <OBJ_Read+0x3a>
 8022f0c:	b007      	add	sp, #28
 8022f0e:	e8bd 8ff0 	ldmia.w	sp!, {r4, r5, r6, r7, r8, r9, sl, fp, pc}
 8022f12:	bf00      	nop

08022f14 <OBJ_Write>:
 8022f14:	e92d 4ff0 	stmdb	sp!, {r4, r5, r6, r7, r8, r9, sl, fp, lr}
 8022f18:	469a      	mov	sl, r3
 8022f1a:	899b      	ldrh	r3, [r3, #12]
 8022f1c:	b08b      	sub	sp, #44	; 0x2c
 8022f1e:	4617      	mov	r7, r2
 8022f20:	f3c3 2203 	ubfx	r2, r3, #8, #4
 8022f24:	b2db      	uxtb	r3, r3
 8022f26:	9305      	str	r3, [sp, #20]
 8022f28:	2a07      	cmp	r2, #7
 8022f2a:	b28b      	uxth	r3, r1
 8022f2c:	4606      	mov	r6, r0
 8022f2e:	4689      	mov	r9, r1
 8022f30:	9c14      	ldr	r4, [sp, #80]	; 0x50
 8022f32:	f89d 8054 	ldrb.w	r8, [sp, #84]	; 0x54
 8022f36:	9206      	str	r2, [sp, #24]
 8022f38:	9302      	str	r3, [sp, #8]
 8022f3a:	d01d      	beq.n	8022f78 <OBJ_Write+0x64>
 8022f3c:	f8da 3018 	ldr.w	r3, [sl, #24]
 8022f40:	f893 b000 	ldrb.w	fp, [r3]
 8022f44:	f1bb 0f00 	cmp.w	fp, #0
 8022f48:	d157      	bne.n	8022ffa <OBJ_Write+0xe6>
 8022f4a:	f5a0 53e0 	sub.w	r3, r0, #7168	; 0x1c00
 8022f4e:	3b10      	subs	r3, #16
 8022f50:	2b1f      	cmp	r3, #31
 8022f52:	d950      	bls.n	8022ff6 <OBJ_Write+0xe2>
 8022f54:	f5a0 53b0 	sub.w	r3, r0, #5632	; 0x1600
 8022f58:	f5b3 7f00 	cmp.w	r3, #512	; 0x200
 8022f5c:	d34b      	bcc.n	8022ff6 <OBJ_Write+0xe2>
 8022f5e:	f5a0 53d0 	sub.w	r3, r0, #6656	; 0x1a00
 8022f62:	f5b3 7f00 	cmp.w	r3, #512	; 0x200
 8022f66:	d346      	bcc.n	8022ff6 <OBJ_Write+0xe2>
 8022f68:	9b05      	ldr	r3, [sp, #20]
 8022f6a:	f24f 0b30 	movw	fp, #61488	; 0xf030
 8022f6e:	4558      	cmp	r0, fp
 8022f70:	bf18      	it	ne
 8022f72:	2300      	movne	r3, #0
 8022f74:	469b      	mov	fp, r3
 8022f76:	e040      	b.n	8022ffa <OBJ_Write+0xe6>
 8022f78:	f1b8 0f00 	cmp.w	r8, #0
 8022f7c:	d001      	beq.n	8022f82 <OBJ_Write+0x6e>
 8022f7e:	2005      	movs	r0, #5
 8022f80:	e1e6      	b.n	8023350 <OBJ_Write+0x43c>
 8022f82:	46c3      	mov	fp, r8
 8022f84:	9b02      	ldr	r3, [sp, #8]
 8022f86:	455b      	cmp	r3, fp
 8022f88:	f200 81cf 	bhi.w	802332a <OBJ_Write+0x416>
 8022f8c:	4649      	mov	r1, r9
 8022f8e:	4650      	mov	r0, sl
 8022f90:	f7ff fcae 	bl	80228f0 <OBJ_GetEntryDesc>
 8022f94:	49b3      	ldr	r1, [pc, #716]	; (8023264 <OBJ_Write+0x350>)
 8022f96:	8883      	ldrh	r3, [r0, #4]
 8022f98:	7809      	ldrb	r1, [r1, #0]
 8022f9a:	f003 0238 	and.w	r2, r3, #56	; 0x38
 8022f9e:	ea11 0192 	ands.w	r1, r1, r2, lsr #2
 8022fa2:	d106      	bne.n	8022fb2 <OBJ_Write+0x9e>
 8022fa4:	2a00      	cmp	r2, #0
 8022fa6:	f040 81c2 	bne.w	802332e <OBJ_Write+0x41a>
 8022faa:	2b00      	cmp	r3, #0
 8022fac:	d0e7      	beq.n	8022f7e <OBJ_Write+0x6a>
 8022fae:	2007      	movs	r0, #7
 8022fb0:	e1ce      	b.n	8023350 <OBJ_Write+0x43c>
 8022fb2:	f8dd b008 	ldr.w	fp, [sp, #8]
 8022fb6:	f1b9 0f00 	cmp.w	r9, #0
 8022fba:	d019      	beq.n	8022ff0 <OBJ_Write+0xdc>
 8022fbc:	f5a6 53e0 	sub.w	r3, r6, #7168	; 0x1c00
 8022fc0:	3b10      	subs	r3, #16
 8022fc2:	2b1f      	cmp	r3, #31
 8022fc4:	d90d      	bls.n	8022fe2 <OBJ_Write+0xce>
 8022fc6:	f5a6 53b0 	sub.w	r3, r6, #5632	; 0x1600
 8022fca:	f5b3 7f00 	cmp.w	r3, #512	; 0x200
 8022fce:	d308      	bcc.n	8022fe2 <OBJ_Write+0xce>
 8022fd0:	f5a6 53d0 	sub.w	r3, r6, #6656	; 0x1a00
 8022fd4:	f5b3 7f00 	cmp.w	r3, #512	; 0x200
 8022fd8:	d303      	bcc.n	8022fe2 <OBJ_Write+0xce>
 8022fda:	f24f 0330 	movw	r3, #61488	; 0xf030
 8022fde:	429e      	cmp	r6, r3
 8022fe0:	d114      	bne.n	802300c <OBJ_Write+0xf8>
 8022fe2:	f8da 3018 	ldr.w	r3, [sl, #24]
 8022fe6:	781b      	ldrb	r3, [r3, #0]
 8022fe8:	3300      	adds	r3, #0
 8022fea:	bf18      	it	ne
 8022fec:	2301      	movne	r3, #1
 8022fee:	e00e      	b.n	802300e <OBJ_Write+0xfa>
 8022ff0:	f8cd 9010 	str.w	r9, [sp, #16]
 8022ff4:	e00c      	b.n	8023010 <OBJ_Write+0xfc>
 8022ff6:	f8dd b014 	ldr.w	fp, [sp, #20]
 8022ffa:	f1b8 0f00 	cmp.w	r8, #0
 8022ffe:	d0c1      	beq.n	8022f84 <OBJ_Write+0x70>
 8023000:	f1b9 0f00 	cmp.w	r9, #0
 8023004:	d1da      	bne.n	8022fbc <OBJ_Write+0xa8>
 8023006:	b10f      	cbz	r7, 802300c <OBJ_Write+0xf8>
 8023008:	f894 b000 	ldrb.w	fp, [r4]
 802300c:	2300      	movs	r3, #0
 802300e:	9304      	str	r3, [sp, #16]
 8023010:	f8da 5020 	ldr.w	r5, [sl, #32]
 8023014:	b155      	cbz	r5, 802302c <OBJ_Write+0x118>
 8023016:	f8cd 8000 	str.w	r8, [sp]
 802301a:	4630      	mov	r0, r6
 802301c:	4649      	mov	r1, r9
 802301e:	463a      	mov	r2, r7
 8023020:	4623      	mov	r3, r4
 8023022:	47a8      	blx	r5
 8023024:	2800      	cmp	r0, #0
 8023026:	f000 8174 	beq.w	8023312 <OBJ_Write+0x3fe>
 802302a:	e191      	b.n	8023350 <OBJ_Write+0x43c>
 802302c:	2f00      	cmp	r7, #0
 802302e:	f000 817a 	beq.w	8023326 <OBJ_Write+0x412>
 8023032:	2307      	movs	r3, #7
 8023034:	9f02      	ldr	r7, [sp, #8]
 8023036:	9303      	str	r3, [sp, #12]
 8023038:	462b      	mov	r3, r5
 802303a:	455f      	cmp	r7, fp
 802303c:	f200 8168 	bhi.w	8023310 <OBJ_Write+0x3fc>
 8023040:	b2fa      	uxtb	r2, r7
 8023042:	4611      	mov	r1, r2
 8023044:	4650      	mov	r0, sl
 8023046:	9309      	str	r3, [sp, #36]	; 0x24
 8023048:	9208      	str	r2, [sp, #32]
 802304a:	f7ff fc51 	bl	80228f0 <OBJ_GetEntryDesc>
 802304e:	9a08      	ldr	r2, [sp, #32]
 8023050:	9007      	str	r0, [sp, #28]
 8023052:	4651      	mov	r1, sl
 8023054:	4610      	mov	r0, r2
 8023056:	f7ff fce3 	bl	8022a20 <OBJ_GetEntryOffset>
 802305a:	f8dd c01c 	ldr.w	ip, [sp, #28]
 802305e:	4981      	ldr	r1, [pc, #516]	; (8023264 <OBJ_Write+0x350>)
 8023060:	f8bc 2004 	ldrh.w	r2, [ip, #4]
 8023064:	7809      	ldrb	r1, [r1, #0]
 8023066:	f8da 5018 	ldr.w	r5, [sl, #24]
 802306a:	f002 0238 	and.w	r2, r2, #56	; 0x38
 802306e:	ea11 0392 	ands.w	r3, r1, r2, lsr #2
 8023072:	9b09      	ldr	r3, [sp, #36]	; 0x24
 8023074:	f000 8137 	beq.w	80232e6 <OBJ_Write+0x3d2>
 8023078:	2f00      	cmp	r7, #0
 802307a:	f000 8164 	beq.w	8023346 <OBJ_Write+0x432>
 802307e:	f3c0 120f 	ubfx	r2, r0, #4, #16
 8023082:	eb05 0542 	add.w	r5, r5, r2, lsl #1
 8023086:	9a02      	ldr	r2, [sp, #8]
 8023088:	4297      	cmp	r7, r2
 802308a:	d013      	beq.n	80230b4 <OBJ_Write+0x1a0>
 802308c:	f1b8 0f00 	cmp.w	r8, #0
 8023090:	f000 813b 	beq.w	802330a <OBJ_Write+0x3f6>
 8023094:	9a02      	ldr	r2, [sp, #8]
 8023096:	4297      	cmp	r7, r2
 8023098:	f0c0 8137 	bcc.w	802330a <OBJ_Write+0x3f6>
 802309c:	b957      	cbnz	r7, 80230b4 <OBJ_Write+0x1a0>
 802309e:	9b06      	ldr	r3, [sp, #24]
 80230a0:	2b07      	cmp	r3, #7
 80230a2:	d007      	beq.n	80230b4 <OBJ_Write+0x1a0>
 80230a4:	8823      	ldrh	r3, [r4, #0]
 80230a6:	9905      	ldr	r1, [sp, #20]
 80230a8:	b2da      	uxtb	r2, r3
 80230aa:	4291      	cmp	r1, r2
 80230ac:	f0c0 8141 	bcc.w	8023332 <OBJ_Write+0x41e>
 80230b0:	802b      	strh	r3, [r5, #0]
 80230b2:	e0d4      	b.n	802325e <OBJ_Write+0x34a>
 80230b4:	f8bc 3000 	ldrh.w	r3, [ip]
 80230b8:	f5b3 6fe0 	cmp.w	r3, #1792	; 0x700
 80230bc:	d30c      	bcc.n	80230d8 <OBJ_Write+0x1c4>
 80230be:	f8bc 2002 	ldrh.w	r2, [ip, #2]
 80230c2:	2a08      	cmp	r2, #8
 80230c4:	d803      	bhi.n	80230ce <OBJ_Write+0x1ba>
 80230c6:	f102 032f 	add.w	r3, r2, #47	; 0x2f
 80230ca:	b29b      	uxth	r3, r3
 80230cc:	e004      	b.n	80230d8 <OBJ_Write+0x1c4>
 80230ce:	2a10      	cmp	r2, #16
 80230d0:	d075      	beq.n	80231be <OBJ_Write+0x2aa>
 80230d2:	2a20      	cmp	r2, #32
 80230d4:	f000 80d2 	beq.w	802327c <OBJ_Write+0x368>
 80230d8:	2b11      	cmp	r3, #17
 80230da:	f000 80e2 	beq.w	80232a2 <OBJ_Write+0x38e>
 80230de:	d814      	bhi.n	802310a <OBJ_Write+0x1f6>
 80230e0:	2b05      	cmp	r3, #5
 80230e2:	d042      	beq.n	802316a <OBJ_Write+0x256>
 80230e4:	d807      	bhi.n	80230f6 <OBJ_Write+0x1e2>
 80230e6:	2b02      	cmp	r3, #2
 80230e8:	d801      	bhi.n	80230ee <OBJ_Write+0x1da>
 80230ea:	b37b      	cbz	r3, 802314c <OBJ_Write+0x238>
 80230ec:	e03d      	b.n	802316a <OBJ_Write+0x256>
 80230ee:	2b03      	cmp	r3, #3
 80230f0:	d065      	beq.n	80231be <OBJ_Write+0x2aa>
 80230f2:	2b04      	cmp	r3, #4
 80230f4:	e021      	b.n	802313a <OBJ_Write+0x226>
 80230f6:	2b08      	cmp	r3, #8
 80230f8:	d802      	bhi.n	8023100 <OBJ_Write+0x1ec>
 80230fa:	2b07      	cmp	r3, #7
 80230fc:	d35f      	bcc.n	80231be <OBJ_Write+0x2aa>
 80230fe:	e0bd      	b.n	802327c <OBJ_Write+0x368>
 8023100:	2b09      	cmp	r3, #9
 8023102:	f000 80db 	beq.w	80232bc <OBJ_Write+0x3a8>
 8023106:	2b0b      	cmp	r3, #11
 8023108:	e01d      	b.n	8023146 <OBJ_Write+0x232>
 802310a:	2b2d      	cmp	r3, #45	; 0x2d
 802310c:	d02d      	beq.n	802316a <OBJ_Write+0x256>
 802310e:	d80d      	bhi.n	802312c <OBJ_Write+0x218>
 8023110:	2b1e      	cmp	r3, #30
 8023112:	d02a      	beq.n	802316a <OBJ_Write+0x256>
 8023114:	d806      	bhi.n	8023124 <OBJ_Write+0x210>
 8023116:	2b15      	cmp	r3, #21
 8023118:	f000 80c3 	beq.w	80232a2 <OBJ_Write+0x38e>
 802311c:	2b1b      	cmp	r3, #27
 802311e:	f000 80c0 	beq.w	80232a2 <OBJ_Write+0x38e>
 8023122:	e108      	b.n	8023336 <OBJ_Write+0x422>
 8023124:	2b1f      	cmp	r3, #31
 8023126:	d04a      	beq.n	80231be <OBJ_Write+0x2aa>
 8023128:	2b20      	cmp	r3, #32
 802312a:	e006      	b.n	802313a <OBJ_Write+0x226>
 802312c:	2b37      	cmp	r3, #55	; 0x37
 802312e:	d807      	bhi.n	8023140 <OBJ_Write+0x22c>
 8023130:	2b30      	cmp	r3, #48	; 0x30
 8023132:	d21a      	bcs.n	802316a <OBJ_Write+0x256>
 8023134:	2b2e      	cmp	r3, #46	; 0x2e
 8023136:	d042      	beq.n	80231be <OBJ_Write+0x2aa>
 8023138:	2b2f      	cmp	r3, #47	; 0x2f
 802313a:	f000 809f 	beq.w	802327c <OBJ_Write+0x368>
 802313e:	e0fa      	b.n	8023336 <OBJ_Write+0x422>
 8023140:	f5a3 7318 	sub.w	r3, r3, #608	; 0x260
 8023144:	2b03      	cmp	r3, #3
 8023146:	f240 80b9 	bls.w	80232bc <OBJ_Write+0x3a8>
 802314a:	e0f4      	b.n	8023336 <OBJ_Write+0x422>
 802314c:	f1b8 0f00 	cmp.w	r8, #0
 8023150:	f000 80f1 	beq.w	8023336 <OBJ_Write+0x422>
 8023154:	f8bc 3002 	ldrh.w	r3, [ip, #2]
 8023158:	071d      	lsls	r5, r3, #28
 802315a:	d003      	beq.n	8023164 <OBJ_Write+0x250>
 802315c:	4418      	add	r0, r3
 802315e:	0701      	lsls	r1, r0, #28
 8023160:	bf08      	it	eq
 8023162:	3402      	addeq	r4, #2
 8023164:	f3c3 1303 	ubfx	r3, r3, #4, #4
 8023168:	e0ba      	b.n	80232e0 <OBJ_Write+0x3cc>
 802316a:	f8bc 2002 	ldrh.w	r2, [ip, #2]
 802316e:	4b3e      	ldr	r3, [pc, #248]	; (8023268 <OBJ_Write+0x354>)
 8023170:	f833 3012 	ldrh.w	r3, [r3, r2, lsl #1]
 8023174:	882a      	ldrh	r2, [r5, #0]
 8023176:	f000 010f 	and.w	r1, r0, #15
 802317a:	fa03 fe01 	lsl.w	lr, r3, r1
 802317e:	ea22 020e 	bic.w	r2, r2, lr
 8023182:	9207      	str	r2, [sp, #28]
 8023184:	f1b8 0f00 	cmp.w	r8, #0
 8023188:	d005      	beq.n	8023196 <OBJ_Write+0x282>
 802318a:	8823      	ldrh	r3, [r4, #0]
 802318c:	ea0e 0e03 	and.w	lr, lr, r3
 8023190:	ea42 020e 	orr.w	r2, r2, lr
 8023194:	e00a      	b.n	80231ac <OBJ_Write+0x298>
 8023196:	f8b4 e000 	ldrh.w	lr, [r4]
 802319a:	ea3e 0203 	bics.w	r2, lr, r3
 802319e:	f040 80cc 	bne.w	802333a <OBJ_Write+0x426>
 80231a2:	ea0e 0303 	and.w	r3, lr, r3
 80231a6:	9a07      	ldr	r2, [sp, #28]
 80231a8:	408b      	lsls	r3, r1
 80231aa:	431a      	orrs	r2, r3
 80231ac:	b292      	uxth	r2, r2
 80231ae:	802a      	strh	r2, [r5, #0]
 80231b0:	f8bc 3002 	ldrh.w	r3, [ip, #2]
 80231b4:	4418      	add	r0, r3
 80231b6:	0702      	lsls	r2, r0, #28
 80231b8:	f040 80a6 	bne.w	8023308 <OBJ_Write+0x3f4>
 80231bc:	e04f      	b.n	802325e <OBJ_Write+0x34a>
 80231be:	0703      	lsls	r3, r0, #28
 80231c0:	f47f aedd 	bne.w	8022f7e <OBJ_Write+0x6a>
 80231c4:	9b04      	ldr	r3, [sp, #16]
 80231c6:	8822      	ldrh	r2, [r4, #0]
 80231c8:	b11b      	cbz	r3, 80231d2 <OBJ_Write+0x2be>
 80231ca:	882b      	ldrh	r3, [r5, #0]
 80231cc:	4293      	cmp	r3, r2
 80231ce:	f040 80b6 	bne.w	802333e <OBJ_Write+0x42a>
 80231d2:	f5a6 53e0 	sub.w	r3, r6, #7168	; 0x1c00
 80231d6:	3b10      	subs	r3, #16
 80231d8:	2b1f      	cmp	r3, #31
 80231da:	d80c      	bhi.n	80231f6 <OBJ_Write+0x2e2>
 80231dc:	f5a2 53b0 	sub.w	r3, r2, #5632	; 0x1600
 80231e0:	f5b3 7f00 	cmp.w	r3, #512	; 0x200
 80231e4:	d307      	bcc.n	80231f6 <OBJ_Write+0x2e2>
 80231e6:	f5a2 53d0 	sub.w	r3, r2, #6656	; 0x1a00
 80231ea:	f5b3 7f00 	cmp.w	r3, #512	; 0x200
 80231ee:	d302      	bcc.n	80231f6 <OBJ_Write+0x2e2>
 80231f0:	2a00      	cmp	r2, #0
 80231f2:	f040 80a2 	bne.w	802333a <OBJ_Write+0x426>
 80231f6:	f5a6 53e1 	sub.w	r3, r6, #7200	; 0x1c20
 80231fa:	3b12      	subs	r3, #18
 80231fc:	2b01      	cmp	r3, #1
 80231fe:	d82d      	bhi.n	802325c <OBJ_Write+0x348>
 8023200:	2f01      	cmp	r7, #1
 8023202:	d110      	bne.n	8023226 <OBJ_Write+0x312>
 8023204:	882b      	ldrh	r3, [r5, #0]
 8023206:	4293      	cmp	r3, r2
 8023208:	d009      	beq.n	802321e <OBJ_Write+0x30a>
 802320a:	4611      	mov	r1, r2
 802320c:	4630      	mov	r0, r6
 802320e:	9207      	str	r2, [sp, #28]
 8023210:	f7ff fc78 	bl	8022b04 <CheckSyncTypeValue>
 8023214:	9a07      	ldr	r2, [sp, #28]
 8023216:	9003      	str	r0, [sp, #12]
 8023218:	2800      	cmp	r0, #0
 802321a:	f040 8092 	bne.w	8023342 <OBJ_Write+0x42e>
 802321e:	4b13      	ldr	r3, [pc, #76]	; (802326c <OBJ_Write+0x358>)
 8023220:	2101      	movs	r1, #1
 8023222:	7019      	strb	r1, [r3, #0]
 8023224:	e01a      	b.n	802325c <OBJ_Write+0x348>
 8023226:	2f08      	cmp	r7, #8
 8023228:	d118      	bne.n	802325c <OBJ_Write+0x348>
 802322a:	4811      	ldr	r0, [pc, #68]	; (8023270 <OBJ_Write+0x35c>)
 802322c:	4911      	ldr	r1, [pc, #68]	; (8023274 <OBJ_Write+0x360>)
 802322e:	f8df e048 	ldr.w	lr, [pc, #72]	; 8023278 <OBJ_Write+0x364>
 8023232:	f8c0 e010 	str.w	lr, [r0, #16]
 8023236:	2300      	movs	r3, #0
 8023238:	f012 0f02 	tst.w	r2, #2
 802323c:	6143      	str	r3, [r0, #20]
 802323e:	6043      	str	r3, [r0, #4]
 8023240:	614b      	str	r3, [r1, #20]
 8023242:	f8c1 e010 	str.w	lr, [r1, #16]
 8023246:	604b      	str	r3, [r1, #4]
 8023248:	bf1f      	itttt	ne
 802324a:	8543      	strhne	r3, [r0, #42]	; 0x2a
 802324c:	8503      	strhne	r3, [r0, #40]	; 0x28
 802324e:	f880 3040 	strbne.w	r3, [r0, #64]	; 0x40
 8023252:	854b      	strhne	r3, [r1, #42]	; 0x2a
 8023254:	bf1c      	itt	ne
 8023256:	850b      	strhne	r3, [r1, #40]	; 0x28
 8023258:	f881 3040 	strbne.w	r3, [r1, #64]	; 0x40
 802325c:	802a      	strh	r2, [r5, #0]
 802325e:	3402      	adds	r4, #2
 8023260:	e052      	b.n	8023308 <OBJ_Write+0x3f4>
 8023262:	bf00      	nop
 8023264:	1ffea5c1 	.word	0x1ffea5c1
 8023268:	080262b2 	.word	0x080262b2
 802326c:	1ffea720 	.word	0x1ffea720
 8023270:	1ffea6dc 	.word	0x1ffea6dc
 8023274:	1ffea698 	.word	0x1ffea698
 8023278:	0001e848 	.word	0x0001e848
 802327c:	0701      	lsls	r1, r0, #28
 802327e:	f47f ae7e 	bne.w	8022f7e <OBJ_Write+0x6a>
 8023282:	9b04      	ldr	r3, [sp, #16]
 8023284:	b13b      	cbz	r3, 8023296 <OBJ_Write+0x382>
 8023286:	882a      	ldrh	r2, [r5, #0]
 8023288:	8823      	ldrh	r3, [r4, #0]
 802328a:	429a      	cmp	r2, r3
 802328c:	d157      	bne.n	802333e <OBJ_Write+0x42a>
 802328e:	886a      	ldrh	r2, [r5, #2]
 8023290:	8863      	ldrh	r3, [r4, #2]
 8023292:	429a      	cmp	r2, r3
 8023294:	d153      	bne.n	802333e <OBJ_Write+0x42a>
 8023296:	8823      	ldrh	r3, [r4, #0]
 8023298:	802b      	strh	r3, [r5, #0]
 802329a:	8863      	ldrh	r3, [r4, #2]
 802329c:	806b      	strh	r3, [r5, #2]
 802329e:	3404      	adds	r4, #4
 80232a0:	e032      	b.n	8023308 <OBJ_Write+0x3f4>
 80232a2:	0702      	lsls	r2, r0, #28
 80232a4:	f47f ae6b 	bne.w	8022f7e <OBJ_Write+0x6a>
 80232a8:	8823      	ldrh	r3, [r4, #0]
 80232aa:	802b      	strh	r3, [r5, #0]
 80232ac:	8863      	ldrh	r3, [r4, #2]
 80232ae:	806b      	strh	r3, [r5, #2]
 80232b0:	88a3      	ldrh	r3, [r4, #4]
 80232b2:	80ab      	strh	r3, [r5, #4]
 80232b4:	88e3      	ldrh	r3, [r4, #6]
 80232b6:	80eb      	strh	r3, [r5, #6]
 80232b8:	3408      	adds	r4, #8
 80232ba:	e025      	b.n	8023308 <OBJ_Write+0x3f4>
 80232bc:	0703      	lsls	r3, r0, #28
 80232be:	f47f ae5e 	bne.w	8022f7e <OBJ_Write+0x6a>
 80232c2:	f8bc 2002 	ldrh.w	r2, [ip, #2]
 80232c6:	f8cd c01c 	str.w	ip, [sp, #28]
 80232ca:	3207      	adds	r2, #7
 80232cc:	4628      	mov	r0, r5
 80232ce:	4621      	mov	r1, r4
 80232d0:	10d2      	asrs	r2, r2, #3
 80232d2:	f002 fc7b 	bl	8025bcc <memcpy>
 80232d6:	f8dd c01c 	ldr.w	ip, [sp, #28]
 80232da:	f8bc 3002 	ldrh.w	r3, [ip, #2]
 80232de:	091b      	lsrs	r3, r3, #4
 80232e0:	eb04 0443 	add.w	r4, r4, r3, lsl #1
 80232e4:	e010      	b.n	8023308 <OBJ_Write+0x3f4>
 80232e6:	b90f      	cbnz	r7, 80232ec <OBJ_Write+0x3d8>
 80232e8:	3402      	adds	r4, #2
 80232ea:	e00a      	b.n	8023302 <OBJ_Write+0x3ee>
 80232ec:	f8bc 2002 	ldrh.w	r2, [ip, #2]
 80232f0:	0715      	lsls	r5, r2, #28
 80232f2:	d003      	beq.n	80232fc <OBJ_Write+0x3e8>
 80232f4:	4410      	add	r0, r2
 80232f6:	0701      	lsls	r1, r0, #28
 80232f8:	bf08      	it	eq
 80232fa:	3402      	addeq	r4, #2
 80232fc:	0912      	lsrs	r2, r2, #4
 80232fe:	eb04 0442 	add.w	r4, r4, r2, lsl #1
 8023302:	2218      	movs	r2, #24
 8023304:	9203      	str	r2, [sp, #12]
 8023306:	e000      	b.n	802330a <OBJ_Write+0x3f6>
 8023308:	2301      	movs	r3, #1
 802330a:	3701      	adds	r7, #1
 802330c:	b2bf      	uxth	r7, r7
 802330e:	e694      	b.n	802303a <OBJ_Write+0x126>
 8023310:	b1bb      	cbz	r3, 8023342 <OBJ_Write+0x42e>
 8023312:	4b11      	ldr	r3, [pc, #68]	; (8023358 <OBJ_Write+0x444>)
 8023314:	681b      	ldr	r3, [r3, #0]
 8023316:	b133      	cbz	r3, 8023326 <OBJ_Write+0x412>
 8023318:	f118 0200 	adds.w	r2, r8, #0
 802331c:	4630      	mov	r0, r6
 802331e:	4649      	mov	r1, r9
 8023320:	bf18      	it	ne
 8023322:	2201      	movne	r2, #1
 8023324:	4798      	blx	r3
 8023326:	2000      	movs	r0, #0
 8023328:	e012      	b.n	8023350 <OBJ_Write+0x43c>
 802332a:	2011      	movs	r0, #17
 802332c:	e010      	b.n	8023350 <OBJ_Write+0x43c>
 802332e:	201a      	movs	r0, #26
 8023330:	e00e      	b.n	8023350 <OBJ_Write+0x43c>
 8023332:	2013      	movs	r0, #19
 8023334:	e00c      	b.n	8023350 <OBJ_Write+0x43c>
 8023336:	2018      	movs	r0, #24
 8023338:	e00a      	b.n	8023350 <OBJ_Write+0x43c>
 802333a:	2012      	movs	r0, #18
 802333c:	e008      	b.n	8023350 <OBJ_Write+0x43c>
 802333e:	201c      	movs	r0, #28
 8023340:	e006      	b.n	8023350 <OBJ_Write+0x43c>
 8023342:	9803      	ldr	r0, [sp, #12]
 8023344:	e004      	b.n	8023350 <OBJ_Write+0x43c>
 8023346:	9a02      	ldr	r2, [sp, #8]
 8023348:	2a00      	cmp	r2, #0
 802334a:	f47f ae9f 	bne.w	802308c <OBJ_Write+0x178>
 802334e:	e6a6      	b.n	802309e <OBJ_Write+0x18a>
 8023350:	b00b      	add	sp, #44	; 0x2c
 8023352:	e8bd 8ff0 	ldmia.w	sp!, {r4, r5, r6, r7, r8, r9, sl, fp, pc}
 8023356:	bf00      	nop
 8023358:	1ffea554 	.word	0x1ffea554

0802335c <SdoRes>:
 802335c:	b5f8      	push	{r3, r4, r5, r6, r7, lr}
 802335e:	9c07      	ldr	r4, [sp, #28]
 8023360:	9e06      	ldr	r6, [sp, #24]
 8023362:	88e5      	ldrh	r5, [r4, #6]
 8023364:	2960      	cmp	r1, #96	; 0x60
 8023366:	d04e      	beq.n	8023406 <SdoRes+0xaa>
 8023368:	2900      	cmp	r1, #0
 802336a:	d03e      	beq.n	80233ea <SdoRes+0x8e>
 802336c:	2700      	movs	r7, #0
 802336e:	7227      	strb	r7, [r4, #8]
 8023370:	bb20      	cbnz	r0, 80233bc <SdoRes+0x60>
 8023372:	f3c5 050b 	ubfx	r5, r5, #0, #12
 8023376:	f445 5540 	orr.w	r5, r5, #12288	; 0x3000
 802337a:	2940      	cmp	r1, #64	; 0x40
 802337c:	80e5      	strh	r5, [r4, #6]
 802337e:	d119      	bne.n	80233b4 <SdoRes+0x58>
 8023380:	1e71      	subs	r1, r6, #1
 8023382:	2903      	cmp	r1, #3
 8023384:	d809      	bhi.n	802339a <SdoRes+0x3e>
 8023386:	f042 0243 	orr.w	r2, r2, #67	; 0x43
 802338a:	f1c6 0604 	rsb	r6, r6, #4
 802338e:	230a      	movs	r3, #10
 8023390:	ea42 0686 	orr.w	r6, r2, r6, lsl #2
 8023394:	8023      	strh	r3, [r4, #0]
 8023396:	7226      	strb	r6, [r4, #8]
 8023398:	e01f      	b.n	80233da <SdoRes+0x7e>
 802339a:	42b3      	cmp	r3, r6
 802339c:	bf2c      	ite	cs
 802339e:	f106 030a 	addcs.w	r3, r6, #10
 80233a2:	330a      	addcc	r3, #10
 80233a4:	81a6      	strh	r6, [r4, #12]
 80233a6:	f042 0241 	orr.w	r2, r2, #65	; 0x41
 80233aa:	0c36      	lsrs	r6, r6, #16
 80233ac:	8023      	strh	r3, [r4, #0]
 80233ae:	81e6      	strh	r6, [r4, #14]
 80233b0:	7222      	strb	r2, [r4, #8]
 80233b2:	e012      	b.n	80233da <SdoRes+0x7e>
 80233b4:	230a      	movs	r3, #10
 80233b6:	8023      	strh	r3, [r4, #0]
 80233b8:	2360      	movs	r3, #96	; 0x60
 80233ba:	e022      	b.n	8023402 <SdoRes+0xa6>
 80233bc:	230a      	movs	r3, #10
 80233be:	8023      	strh	r3, [r4, #0]
 80233c0:	7a23      	ldrb	r3, [r4, #8]
 80233c2:	f063 037f 	orn	r3, r3, #127	; 0x7f
 80233c6:	7223      	strb	r3, [r4, #8]
 80233c8:	4b13      	ldr	r3, [pc, #76]	; (8023418 <SdoRes+0xbc>)
 80233ca:	f3c5 050b 	ubfx	r5, r5, #0, #12
 80233ce:	f445 5500 	orr.w	r5, r5, #8192	; 0x2000
 80233d2:	f853 3020 	ldr.w	r3, [r3, r0, lsl #2]
 80233d6:	80e5      	strh	r5, [r4, #6]
 80233d8:	60e3      	str	r3, [r4, #12]
 80233da:	4620      	mov	r0, r4
 80233dc:	2102      	movs	r1, #2
 80233de:	f7ff f8af 	bl	8022540 <MBX_MailboxSendReq>
 80233e2:	b1c0      	cbz	r0, 8023416 <SdoRes+0xba>
 80233e4:	4b0d      	ldr	r3, [pc, #52]	; (802341c <SdoRes+0xc0>)
 80233e6:	601c      	str	r4, [r3, #0]
 80233e8:	bdf8      	pop	{r3, r4, r5, r6, r7, pc}
 80233ea:	2800      	cmp	r0, #0
 80233ec:	d1e6      	bne.n	80233bc <SdoRes+0x60>
 80233ee:	230a      	movs	r3, #10
 80233f0:	f3c5 050b 	ubfx	r5, r5, #0, #12
 80233f4:	8023      	strh	r3, [r4, #0]
 80233f6:	7a23      	ldrb	r3, [r4, #8]
 80233f8:	f445 5540 	orr.w	r5, r5, #12288	; 0x3000
 80233fc:	80e5      	strh	r5, [r4, #6]
 80233fe:	f043 0320 	orr.w	r3, r3, #32
 8023402:	7223      	strb	r3, [r4, #8]
 8023404:	e7e9      	b.n	80233da <SdoRes+0x7e>
 8023406:	2800      	cmp	r0, #0
 8023408:	d1d8      	bne.n	80233bc <SdoRes+0x60>
 802340a:	f3c5 050b 	ubfx	r5, r5, #0, #12
 802340e:	f445 5540 	orr.w	r5, r5, #12288	; 0x3000
 8023412:	80e5      	strh	r5, [r4, #6]
 8023414:	e7e1      	b.n	80233da <SdoRes+0x7e>
 8023416:	bdf8      	pop	{r3, r4, r5, r6, r7, pc}
 8023418:	080262d4 	.word	0x080262d4
 802341c:	1ffea5b8 	.word	0x1ffea5b8

08023420 <SDOS_SdoInd>:
 8023420:	e92d 4ff0 	stmdb	sp!, {r4, r5, r6, r7, r8, r9, sl, fp, lr}
 8023424:	b089      	sub	sp, #36	; 0x24
 8023426:	7a03      	ldrb	r3, [r0, #8]
 8023428:	9303      	str	r3, [sp, #12]
 802342a:	8803      	ldrh	r3, [r0, #0]
 802342c:	9305      	str	r3, [sp, #20]
 802342e:	4b98      	ldr	r3, [pc, #608]	; (8023690 <SDOS_SdoInd+0x270>)
 8023430:	9306      	str	r3, [sp, #24]
 8023432:	781a      	ldrb	r2, [r3, #0]
 8023434:	4605      	mov	r5, r0
 8023436:	2a00      	cmp	r2, #0
 8023438:	f040 810e 	bne.w	8023658 <SDOS_SdoInd+0x238>
 802343c:	9b03      	ldr	r3, [sp, #12]
 802343e:	f003 07e0 	and.w	r7, r3, #224	; 0xe0
 8023442:	f003 0310 	and.w	r3, r3, #16
 8023446:	b2db      	uxtb	r3, r3
 8023448:	2f20      	cmp	r7, #32
 802344a:	9304      	str	r3, [sp, #16]
 802344c:	d008      	beq.n	8023460 <SDOS_SdoInd+0x40>
 802344e:	d802      	bhi.n	8023456 <SDOS_SdoInd+0x36>
 8023450:	2f00      	cmp	r7, #0
 8023452:	d069      	beq.n	8023528 <SDOS_SdoInd+0x108>
 8023454:	e1b7      	b.n	80237c6 <SDOS_SdoInd+0x3a6>
 8023456:	2f40      	cmp	r7, #64	; 0x40
 8023458:	d002      	beq.n	8023460 <SDOS_SdoInd+0x40>
 802345a:	2f60      	cmp	r7, #96	; 0x60
 802345c:	d064      	beq.n	8023528 <SDOS_SdoInd+0x108>
 802345e:	e1b2      	b.n	80237c6 <SDOS_SdoInd+0x3a6>
 8023460:	7aaa      	ldrb	r2, [r5, #10]
 8023462:	7a6b      	ldrb	r3, [r5, #9]
 8023464:	f895 800b 	ldrb.w	r8, [r5, #11]
 8023468:	eb03 2302 	add.w	r3, r3, r2, lsl #8
 802346c:	fa1f fa83 	uxth.w	sl, r3
 8023470:	4650      	mov	r0, sl
 8023472:	f7ff f973 	bl	802275c <OBJ_GetObjectHandle>
 8023476:	4681      	mov	r9, r0
 8023478:	2800      	cmp	r0, #0
 802347a:	f000 81a0 	beq.w	80237be <SDOS_SdoInd+0x39e>
 802347e:	7b03      	ldrb	r3, [r0, #12]
 8023480:	4598      	cmp	r8, r3
 8023482:	f200 80ed 	bhi.w	8023660 <SDOS_SdoInd+0x240>
 8023486:	9b04      	ldr	r3, [sp, #16]
 8023488:	4650      	mov	r0, sl
 802348a:	f113 0b00 	adds.w	fp, r3, #0
 802348e:	4641      	mov	r1, r8
 8023490:	464a      	mov	r2, r9
 8023492:	bf18      	it	ne
 8023494:	f04f 0b01 	movne.w	fp, #1
 8023498:	f7ff f96b 	bl	8022772 <OBJ_GetObjectLength>
 802349c:	2f40      	cmp	r7, #64	; 0x40
 802349e:	4606      	mov	r6, r0
 80234a0:	d117      	bne.n	80234d2 <SDOS_SdoInd+0xb2>
 80234a2:	9b05      	ldr	r3, [sp, #20]
 80234a4:	2b0a      	cmp	r3, #10
 80234a6:	f040 80d9 	bne.w	802365c <SDOS_SdoInd+0x23c>
 80234aa:	1e43      	subs	r3, r0, #1
 80234ac:	2b03      	cmp	r3, #3
 80234ae:	d806      	bhi.n	80234be <SDOS_SdoInd+0x9e>
 80234b0:	2300      	movs	r3, #0
 80234b2:	f105 0c0c 	add.w	ip, r5, #12
 80234b6:	81ab      	strh	r3, [r5, #12]
 80234b8:	81eb      	strh	r3, [r5, #14]
 80234ba:	4604      	mov	r4, r0
 80234bc:	e197      	b.n	80237ee <SDOS_SdoInd+0x3ce>
 80234be:	4b75      	ldr	r3, [pc, #468]	; (8023694 <SDOS_SdoInd+0x274>)
 80234c0:	881c      	ldrh	r4, [r3, #0]
 80234c2:	3c10      	subs	r4, #16
 80234c4:	4284      	cmp	r4, r0
 80234c6:	f0c0 818f 	bcc.w	80237e8 <SDOS_SdoInd+0x3c8>
 80234ca:	f105 0c10 	add.w	ip, r5, #16
 80234ce:	2300      	movs	r3, #0
 80234d0:	e18d      	b.n	80237ee <SDOS_SdoInd+0x3ce>
 80234d2:	2f20      	cmp	r7, #32
 80234d4:	f040 82a4 	bne.w	8023a20 <SDOS_SdoInd+0x600>
 80234d8:	9b03      	ldr	r3, [sp, #12]
 80234da:	079b      	lsls	r3, r3, #30
 80234dc:	d50b      	bpl.n	80234f6 <SDOS_SdoInd+0xd6>
 80234de:	9b05      	ldr	r3, [sp, #20]
 80234e0:	2b0a      	cmp	r3, #10
 80234e2:	f040 80bb 	bne.w	802365c <SDOS_SdoInd+0x23c>
 80234e6:	9b03      	ldr	r3, [sp, #12]
 80234e8:	f3c3 0481 	ubfx	r4, r3, #2, #2
 80234ec:	f1c4 0404 	rsb	r4, r4, #4
 80234f0:	f105 0c0c 	add.w	ip, r5, #12
 80234f4:	e297      	b.n	8023a26 <SDOS_SdoInd+0x606>
 80234f6:	89ab      	ldrh	r3, [r5, #12]
 80234f8:	89ec      	ldrh	r4, [r5, #14]
 80234fa:	eb03 4404 	add.w	r4, r3, r4, lsl #16
 80234fe:	4b66      	ldr	r3, [pc, #408]	; (8023698 <SDOS_SdoInd+0x278>)
 8023500:	881b      	ldrh	r3, [r3, #0]
 8023502:	f104 0210 	add.w	r2, r4, #16
 8023506:	429a      	cmp	r2, r3
 8023508:	9a05      	ldr	r2, [sp, #20]
 802350a:	bf8c      	ite	hi
 802350c:	3b06      	subhi	r3, #6
 802350e:	f104 030a 	addls.w	r3, r4, #10
 8023512:	429a      	cmp	r2, r3
 8023514:	f040 80a2 	bne.w	802365c <SDOS_SdoInd+0x23c>
 8023518:	9b05      	ldr	r3, [sp, #20]
 802351a:	3b0a      	subs	r3, #10
 802351c:	429c      	cmp	r4, r3
 802351e:	f105 0c10 	add.w	ip, r5, #16
 8023522:	f200 824c 	bhi.w	80239be <SDOS_SdoInd+0x59e>
 8023526:	e27e      	b.n	8023a26 <SDOS_SdoInd+0x606>
 8023528:	4b5c      	ldr	r3, [pc, #368]	; (802369c <SDOS_SdoInd+0x27c>)
 802352a:	781a      	ldrb	r2, [r3, #0]
 802352c:	42ba      	cmp	r2, r7
 802352e:	4698      	mov	r8, r3
 8023530:	f040 8149 	bne.w	80237c6 <SDOS_SdoInd+0x3a6>
 8023534:	4b5a      	ldr	r3, [pc, #360]	; (80236a0 <SDOS_SdoInd+0x280>)
 8023536:	9904      	ldr	r1, [sp, #16]
 8023538:	781a      	ldrb	r2, [r3, #0]
 802353a:	2f00      	cmp	r7, #0
 802353c:	d137      	bne.n	80235ae <SDOS_SdoInd+0x18e>
 802353e:	428a      	cmp	r2, r1
 8023540:	f000 8139 	beq.w	80237b6 <SDOS_SdoInd+0x396>
 8023544:	4a54      	ldr	r2, [pc, #336]	; (8023698 <SDOS_SdoInd+0x278>)
 8023546:	8816      	ldrh	r6, [r2, #0]
 8023548:	f89d 2010 	ldrb.w	r2, [sp, #16]
 802354c:	701a      	strb	r2, [r3, #0]
 802354e:	4b55      	ldr	r3, [pc, #340]	; (80236a4 <SDOS_SdoInd+0x284>)
 8023550:	6818      	ldr	r0, [r3, #0]
 8023552:	3e09      	subs	r6, #9
 8023554:	b2b6      	uxth	r6, r6
 8023556:	469c      	mov	ip, r3
 8023558:	2800      	cmp	r0, #0
 802355a:	f000 812e 	beq.w	80237ba <SDOS_SdoInd+0x39a>
 802355e:	4b52      	ldr	r3, [pc, #328]	; (80236a8 <SDOS_SdoInd+0x288>)
 8023560:	9c03      	ldr	r4, [sp, #12]
 8023562:	6819      	ldr	r1, [r3, #0]
 8023564:	4b51      	ldr	r3, [pc, #324]	; (80236ac <SDOS_SdoInd+0x28c>)
 8023566:	681a      	ldr	r2, [r3, #0]
 8023568:	f014 0f01 	tst.w	r4, #1
 802356c:	eba2 0201 	sub.w	r2, r2, r1
 8023570:	4c4f      	ldr	r4, [pc, #316]	; (80236b0 <SDOS_SdoInd+0x290>)
 8023572:	d015      	beq.n	80235a0 <SDOS_SdoInd+0x180>
 8023574:	42b2      	cmp	r2, r6
 8023576:	d877      	bhi.n	8023668 <SDOS_SdoInd+0x248>
 8023578:	9e05      	ldr	r6, [sp, #20]
 802357a:	f1a6 0a03 	sub.w	sl, r6, #3
 802357e:	4552      	cmp	r2, sl
 8023580:	d806      	bhi.n	8023590 <SDOS_SdoInd+0x170>
 8023582:	9e03      	ldr	r6, [sp, #12]
 8023584:	f086 060e 	eor.w	r6, r6, #14
 8023588:	f3c6 0642 	ubfx	r6, r6, #1, #3
 802358c:	42b2      	cmp	r2, r6
 802358e:	d003      	beq.n	8023598 <SDOS_SdoInd+0x178>
 8023590:	2a07      	cmp	r2, #7
 8023592:	d969      	bls.n	8023668 <SDOS_SdoInd+0x248>
 8023594:	4552      	cmp	r2, sl
 8023596:	d167      	bne.n	8023668 <SDOS_SdoInd+0x248>
 8023598:	2600      	movs	r6, #0
 802359a:	7026      	strb	r6, [r4, #0]
 802359c:	4616      	mov	r6, r2
 802359e:	e089      	b.n	80236b4 <SDOS_SdoInd+0x294>
 80235a0:	f04f 0e01 	mov.w	lr, #1
 80235a4:	42b2      	cmp	r2, r6
 80235a6:	f884 e000 	strb.w	lr, [r4]
 80235aa:	d95d      	bls.n	8023668 <SDOS_SdoInd+0x248>
 80235ac:	e082      	b.n	80236b4 <SDOS_SdoInd+0x294>
 80235ae:	428a      	cmp	r2, r1
 80235b0:	f000 810d 	beq.w	80237ce <SDOS_SdoInd+0x3ae>
 80235b4:	4a37      	ldr	r2, [pc, #220]	; (8023694 <SDOS_SdoInd+0x274>)
 80235b6:	4e3c      	ldr	r6, [pc, #240]	; (80236a8 <SDOS_SdoInd+0x288>)
 80235b8:	8814      	ldrh	r4, [r2, #0]
 80235ba:	f89d 2010 	ldrb.w	r2, [sp, #16]
 80235be:	701a      	strb	r2, [r3, #0]
 80235c0:	4b3a      	ldr	r3, [pc, #232]	; (80236ac <SDOS_SdoInd+0x28c>)
 80235c2:	f8df 90e0 	ldr.w	r9, [pc, #224]	; 80236a4 <SDOS_SdoInd+0x284>
 80235c6:	681a      	ldr	r2, [r3, #0]
 80235c8:	6833      	ldr	r3, [r6, #0]
 80235ca:	f8df a0e4 	ldr.w	sl, [pc, #228]	; 80236b0 <SDOS_SdoInd+0x290>
 80235ce:	3c09      	subs	r4, #9
 80235d0:	b2a4      	uxth	r4, r4
 80235d2:	18e1      	adds	r1, r4, r3
 80235d4:	428a      	cmp	r2, r1
 80235d6:	f8d9 1000 	ldr.w	r1, [r9]
 80235da:	bf36      	itet	cc
 80235dc:	1ad4      	subcc	r4, r2, r3
 80235de:	2201      	movcs	r2, #1
 80235e0:	2200      	movcc	r2, #0
 80235e2:	4419      	add	r1, r3
 80235e4:	f88a 2000 	strb.w	r2, [sl]
 80235e8:	f105 0009 	add.w	r0, r5, #9
 80235ec:	4622      	mov	r2, r4
 80235ee:	f002 faed 	bl	8025bcc <memcpy>
 80235f2:	88eb      	ldrh	r3, [r5, #6]
 80235f4:	f89a 1000 	ldrb.w	r1, [sl]
 80235f8:	f3c3 030b 	ubfx	r3, r3, #0, #12
 80235fc:	f443 5340 	orr.w	r3, r3, #12288	; 0x3000
 8023600:	80eb      	strh	r3, [r5, #6]
 8023602:	2300      	movs	r3, #0
 8023604:	722b      	strb	r3, [r5, #8]
 8023606:	b111      	cbz	r1, 802360e <SDOS_SdoInd+0x1ee>
 8023608:	f89d 3010 	ldrb.w	r3, [sp, #16]
 802360c:	e002      	b.n	8023614 <SDOS_SdoInd+0x1f4>
 802360e:	9b04      	ldr	r3, [sp, #16]
 8023610:	f043 0301 	orr.w	r3, r3, #1
 8023614:	2c06      	cmp	r4, #6
 8023616:	722b      	strb	r3, [r5, #8]
 8023618:	bf9f      	itttt	ls
 802361a:	7a2a      	ldrbls	r2, [r5, #8]
 802361c:	230a      	movls	r3, #10
 802361e:	802b      	strhls	r3, [r5, #0]
 8023620:	f1c4 0307 	rsbls	r3, r4, #7
 8023624:	bf95      	itete	ls
 8023626:	ea42 0343 	orrls.w	r3, r2, r3, lsl #1
 802362a:	1ce3      	addhi	r3, r4, #3
 802362c:	722b      	strbls	r3, [r5, #8]
 802362e:	802b      	strhhi	r3, [r5, #0]
 8023630:	2901      	cmp	r1, #1
 8023632:	d106      	bne.n	8023642 <SDOS_SdoInd+0x222>
 8023634:	6833      	ldr	r3, [r6, #0]
 8023636:	441c      	add	r4, r3
 8023638:	6034      	str	r4, [r6, #0]
 802363a:	2400      	movs	r4, #0
 802363c:	4626      	mov	r6, r4
 802363e:	4623      	mov	r3, r4
 8023640:	e0c8      	b.n	80237d4 <SDOS_SdoInd+0x3b4>
 8023642:	2400      	movs	r4, #0
 8023644:	f8d9 0000 	ldr.w	r0, [r9]
 8023648:	f002 faa8 	bl	8025b9c <free>
 802364c:	f8c9 4000 	str.w	r4, [r9]
 8023650:	6034      	str	r4, [r6, #0]
 8023652:	f888 4000 	strb.w	r4, [r8]
 8023656:	e7f1      	b.n	802363c <SDOS_SdoInd+0x21c>
 8023658:	2409      	movs	r4, #9
 802365a:	e1ea      	b.n	8023a32 <SDOS_SdoInd+0x612>
 802365c:	2408      	movs	r4, #8
 802365e:	e1e8      	b.n	8023a32 <SDOS_SdoInd+0x612>
 8023660:	2400      	movs	r4, #0
 8023662:	4626      	mov	r6, r4
 8023664:	2311      	movs	r3, #17
 8023666:	e0b5      	b.n	80237d4 <SDOS_SdoInd+0x3b4>
 8023668:	230e      	movs	r3, #14
 802366a:	4a11      	ldr	r2, [pc, #68]	; (80236b0 <SDOS_SdoInd+0x290>)
 802366c:	4e0d      	ldr	r6, [pc, #52]	; (80236a4 <SDOS_SdoInd+0x284>)
 802366e:	2400      	movs	r4, #0
 8023670:	7014      	strb	r4, [r2, #0]
 8023672:	6830      	ldr	r0, [r6, #0]
 8023674:	4a09      	ldr	r2, [pc, #36]	; (802369c <SDOS_SdoInd+0x27c>)
 8023676:	7014      	strb	r4, [r2, #0]
 8023678:	b120      	cbz	r0, 8023684 <SDOS_SdoInd+0x264>
 802367a:	9303      	str	r3, [sp, #12]
 802367c:	f002 fa8e 	bl	8025b9c <free>
 8023680:	9b03      	ldr	r3, [sp, #12]
 8023682:	6034      	str	r4, [r6, #0]
 8023684:	4a08      	ldr	r2, [pc, #32]	; (80236a8 <SDOS_SdoInd+0x288>)
 8023686:	2400      	movs	r4, #0
 8023688:	6014      	str	r4, [r2, #0]
 802368a:	4626      	mov	r6, r4
 802368c:	e0a2      	b.n	80237d4 <SDOS_SdoInd+0x3b4>
 802368e:	bf00      	nop
 8023690:	1ffe94b1 	.word	0x1ffe94b1
 8023694:	1ffea67c 	.word	0x1ffea67c
 8023698:	1ffea68e 	.word	0x1ffea68e
 802369c:	1ffea73f 	.word	0x1ffea73f
 80236a0:	1ffea73e 	.word	0x1ffea73e
 80236a4:	1ffea750 	.word	0x1ffea750
 80236a8:	1ffea72c 	.word	0x1ffea72c
 80236ac:	1ffea734 	.word	0x1ffea734
 80236b0:	1ffea731 	.word	0x1ffea731
 80236b4:	4408      	add	r0, r1
 80236b6:	4632      	mov	r2, r6
 80236b8:	f105 0109 	add.w	r1, r5, #9
 80236bc:	9305      	str	r3, [sp, #20]
 80236be:	f8cd c00c 	str.w	ip, [sp, #12]
 80236c2:	f002 fa83 	bl	8025bcc <memcpy>
 80236c6:	7824      	ldrb	r4, [r4, #0]
 80236c8:	f8dd c00c 	ldr.w	ip, [sp, #12]
 80236cc:	9b05      	ldr	r3, [sp, #20]
 80236ce:	2c00      	cmp	r4, #0
 80236d0:	d154      	bne.n	802377c <SDOS_SdoInd+0x35c>
 80236d2:	f8df a33c 	ldr.w	sl, [pc, #828]	; 8023a10 <SDOS_SdoInd+0x5f0>
 80236d6:	f8df b33c 	ldr.w	fp, [pc, #828]	; 8023a14 <SDOS_SdoInd+0x5f4>
 80236da:	f8dc 2000 	ldr.w	r2, [ip]
 80236de:	f8df c32c 	ldr.w	ip, [pc, #812]	; 8023a0c <SDOS_SdoInd+0x5ec>
 80236e2:	f8ba 0000 	ldrh.w	r0, [sl]
 80236e6:	f89b 1000 	ldrb.w	r1, [fp]
 80236ea:	9200      	str	r2, [sp, #0]
 80236ec:	f89c 2000 	ldrb.w	r2, [ip]
 80236f0:	f8df 9324 	ldr.w	r9, [pc, #804]	; 8023a18 <SDOS_SdoInd+0x5f8>
 80236f4:	9201      	str	r2, [sp, #4]
 80236f6:	681a      	ldr	r2, [r3, #0]
 80236f8:	f8d9 3000 	ldr.w	r3, [r9]
 80236fc:	f8cd c00c 	str.w	ip, [sp, #12]
 8023700:	f7ff fc08 	bl	8022f14 <OBJ_Write>
 8023704:	28ff      	cmp	r0, #255	; 0xff
 8023706:	f8df 8314 	ldr.w	r8, [pc, #788]	; 8023a1c <SDOS_SdoInd+0x5fc>
 802370a:	d12c      	bne.n	8023766 <SDOS_SdoInd+0x346>
 802370c:	4bb1      	ldr	r3, [pc, #708]	; (80239d4 <SDOS_SdoInd+0x5b4>)
 802370e:	f8dd c00c 	ldr.w	ip, [sp, #12]
 8023712:	2202      	movs	r2, #2
 8023714:	701a      	strb	r2, [r3, #0]
 8023716:	f89c 3000 	ldrb.w	r3, [ip]
 802371a:	4aaf      	ldr	r2, [pc, #700]	; (80239d8 <SDOS_SdoInd+0x5b8>)
 802371c:	3300      	adds	r3, #0
 802371e:	bf18      	it	ne
 8023720:	2301      	movne	r3, #1
 8023722:	7013      	strb	r3, [r2, #0]
 8023724:	4bad      	ldr	r3, [pc, #692]	; (80239dc <SDOS_SdoInd+0x5bc>)
 8023726:	f89b 2000 	ldrb.w	r2, [fp]
 802372a:	701a      	strb	r2, [r3, #0]
 802372c:	4bac      	ldr	r3, [pc, #688]	; (80239e0 <SDOS_SdoInd+0x5c0>)
 802372e:	f8ba 2000 	ldrh.w	r2, [sl]
 8023732:	801a      	strh	r2, [r3, #0]
 8023734:	4bab      	ldr	r3, [pc, #684]	; (80239e4 <SDOS_SdoInd+0x5c4>)
 8023736:	681a      	ldr	r2, [r3, #0]
 8023738:	4bab      	ldr	r3, [pc, #684]	; (80239e8 <SDOS_SdoInd+0x5c8>)
 802373a:	601a      	str	r2, [r3, #0]
 802373c:	4bab      	ldr	r3, [pc, #684]	; (80239ec <SDOS_SdoInd+0x5cc>)
 802373e:	f8d8 2000 	ldr.w	r2, [r8]
 8023742:	601a      	str	r2, [r3, #0]
 8023744:	f8d9 3000 	ldr.w	r3, [r9]
 8023748:	6a1a      	ldr	r2, [r3, #32]
 802374a:	4ba9      	ldr	r3, [pc, #676]	; (80239f0 <SDOS_SdoInd+0x5d0>)
 802374c:	601a      	str	r2, [r3, #0]
 802374e:	4ba9      	ldr	r3, [pc, #676]	; (80239f4 <SDOS_SdoInd+0x5d4>)
 8023750:	2201      	movs	r2, #1
 8023752:	701a      	strb	r2, [r3, #0]
 8023754:	4ba8      	ldr	r3, [pc, #672]	; (80239f8 <SDOS_SdoInd+0x5d8>)
 8023756:	601d      	str	r5, [r3, #0]
 8023758:	4ba8      	ldr	r3, [pc, #672]	; (80239fc <SDOS_SdoInd+0x5dc>)
 802375a:	701c      	strb	r4, [r3, #0]
 802375c:	4ba8      	ldr	r3, [pc, #672]	; (8023a00 <SDOS_SdoInd+0x5e0>)
 802375e:	701c      	strb	r4, [r3, #0]
 8023760:	4ba8      	ldr	r3, [pc, #672]	; (8023a04 <SDOS_SdoInd+0x5e4>)
 8023762:	601c      	str	r4, [r3, #0]
 8023764:	e165      	b.n	8023a32 <SDOS_SdoInd+0x612>
 8023766:	9003      	str	r0, [sp, #12]
 8023768:	f8d8 0000 	ldr.w	r0, [r8]
 802376c:	f002 fa16 	bl	8025b9c <free>
 8023770:	9b03      	ldr	r3, [sp, #12]
 8023772:	f8c8 4000 	str.w	r4, [r8]
 8023776:	2b00      	cmp	r3, #0
 8023778:	f47f af77 	bne.w	802366a <SDOS_SdoInd+0x24a>
 802377c:	230a      	movs	r3, #10
 802377e:	802b      	strh	r3, [r5, #0]
 8023780:	88eb      	ldrh	r3, [r5, #6]
 8023782:	f3c3 030b 	ubfx	r3, r3, #0, #12
 8023786:	f443 5340 	orr.w	r3, r3, #12288	; 0x3000
 802378a:	80eb      	strh	r3, [r5, #6]
 802378c:	4b9e      	ldr	r3, [pc, #632]	; (8023a08 <SDOS_SdoInd+0x5e8>)
 802378e:	781b      	ldrb	r3, [r3, #0]
 8023790:	b10b      	cbz	r3, 8023796 <SDOS_SdoInd+0x376>
 8023792:	2330      	movs	r3, #48	; 0x30
 8023794:	e000      	b.n	8023798 <SDOS_SdoInd+0x378>
 8023796:	2320      	movs	r3, #32
 8023798:	722b      	strb	r3, [r5, #8]
 802379a:	4b98      	ldr	r3, [pc, #608]	; (80239fc <SDOS_SdoInd+0x5dc>)
 802379c:	781b      	ldrb	r3, [r3, #0]
 802379e:	2b01      	cmp	r3, #1
 80237a0:	4b98      	ldr	r3, [pc, #608]	; (8023a04 <SDOS_SdoInd+0x5e4>)
 80237a2:	d103      	bne.n	80237ac <SDOS_SdoInd+0x38c>
 80237a4:	681a      	ldr	r2, [r3, #0]
 80237a6:	4416      	add	r6, r2
 80237a8:	601e      	str	r6, [r3, #0]
 80237aa:	e746      	b.n	802363a <SDOS_SdoInd+0x21a>
 80237ac:	2400      	movs	r4, #0
 80237ae:	601c      	str	r4, [r3, #0]
 80237b0:	4b93      	ldr	r3, [pc, #588]	; (8023a00 <SDOS_SdoInd+0x5e0>)
 80237b2:	701c      	strb	r4, [r3, #0]
 80237b4:	e742      	b.n	802363c <SDOS_SdoInd+0x21c>
 80237b6:	2301      	movs	r3, #1
 80237b8:	e757      	b.n	802366a <SDOS_SdoInd+0x24a>
 80237ba:	2303      	movs	r3, #3
 80237bc:	e755      	b.n	802366a <SDOS_SdoInd+0x24a>
 80237be:	4604      	mov	r4, r0
 80237c0:	4606      	mov	r6, r0
 80237c2:	2308      	movs	r3, #8
 80237c4:	e006      	b.n	80237d4 <SDOS_SdoInd+0x3b4>
 80237c6:	2400      	movs	r4, #0
 80237c8:	4626      	mov	r6, r4
 80237ca:	2303      	movs	r3, #3
 80237cc:	e002      	b.n	80237d4 <SDOS_SdoInd+0x3b4>
 80237ce:	2400      	movs	r4, #0
 80237d0:	4626      	mov	r6, r4
 80237d2:	2301      	movs	r3, #1
 80237d4:	4618      	mov	r0, r3
 80237d6:	9600      	str	r6, [sp, #0]
 80237d8:	9501      	str	r5, [sp, #4]
 80237da:	4639      	mov	r1, r7
 80237dc:	9a04      	ldr	r2, [sp, #16]
 80237de:	b2a3      	uxth	r3, r4
 80237e0:	f7ff fdbc 	bl	802335c <SdoRes>
 80237e4:	2400      	movs	r4, #0
 80237e6:	e124      	b.n	8023a32 <SDOS_SdoInd+0x612>
 80237e8:	2301      	movs	r3, #1
 80237ea:	f04f 0c00 	mov.w	ip, #0
 80237ee:	f1bb 0f00 	cmp.w	fp, #0
 80237f2:	d003      	beq.n	80237fc <SDOS_SdoInd+0x3dc>
 80237f4:	f1b8 0f01 	cmp.w	r8, #1
 80237f8:	f200 80e9 	bhi.w	80239ce <SDOS_SdoInd+0x5ae>
 80237fc:	2b00      	cmp	r3, #0
 80237fe:	f000 8081 	beq.w	8023904 <SDOS_SdoInd+0x4e4>
 8023802:	4a7e      	ldr	r2, [pc, #504]	; (80239fc <SDOS_SdoInd+0x5dc>)
 8023804:	2301      	movs	r3, #1
 8023806:	7013      	strb	r3, [r2, #0]
 8023808:	4a7f      	ldr	r2, [pc, #508]	; (8023a08 <SDOS_SdoInd+0x5e8>)
 802380a:	7013      	strb	r3, [r2, #0]
 802380c:	4b7f      	ldr	r3, [pc, #508]	; (8023a0c <SDOS_SdoInd+0x5ec>)
 802380e:	f883 b000 	strb.w	fp, [r3]
 8023812:	4b7f      	ldr	r3, [pc, #508]	; (8023a10 <SDOS_SdoInd+0x5f0>)
 8023814:	f8a3 a000 	strh.w	sl, [r3]
 8023818:	4b7e      	ldr	r3, [pc, #504]	; (8023a14 <SDOS_SdoInd+0x5f4>)
 802381a:	f883 8000 	strb.w	r8, [r3]
 802381e:	4b7e      	ldr	r3, [pc, #504]	; (8023a18 <SDOS_SdoInd+0x5f8>)
 8023820:	f8c3 9000 	str.w	r9, [r3]
 8023824:	4b6f      	ldr	r3, [pc, #444]	; (80239e4 <SDOS_SdoInd+0x5c4>)
 8023826:	2f40      	cmp	r7, #64	; 0x40
 8023828:	bf14      	ite	ne
 802382a:	4622      	movne	r2, r4
 802382c:	4632      	moveq	r2, r6
 802382e:	601a      	str	r2, [r3, #0]
 8023830:	4a7a      	ldr	r2, [pc, #488]	; (8023a1c <SDOS_SdoInd+0x5fc>)
 8023832:	9206      	str	r2, [sp, #24]
 8023834:	6810      	ldr	r0, [r2, #0]
 8023836:	b118      	cbz	r0, 8023840 <SDOS_SdoInd+0x420>
 8023838:	9307      	str	r3, [sp, #28]
 802383a:	f002 f9af 	bl	8025b9c <free>
 802383e:	9b07      	ldr	r3, [sp, #28]
 8023840:	6818      	ldr	r0, [r3, #0]
 8023842:	3001      	adds	r0, #1
 8023844:	f020 0001 	bic.w	r0, r0, #1
 8023848:	f002 f9a0 	bl	8025b8c <malloc>
 802384c:	9a06      	ldr	r2, [sp, #24]
 802384e:	f8df c1cc 	ldr.w	ip, [pc, #460]	; 8023a1c <SDOS_SdoInd+0x5fc>
 8023852:	6010      	str	r0, [r2, #0]
 8023854:	4603      	mov	r3, r0
 8023856:	b928      	cbnz	r0, 8023864 <SDOS_SdoInd+0x444>
 8023858:	f1bb 0f00 	cmp.w	fp, #0
 802385c:	bf14      	ite	ne
 802385e:	2305      	movne	r3, #5
 8023860:	2304      	moveq	r3, #4
 8023862:	e7b7      	b.n	80237d4 <SDOS_SdoInd+0x3b4>
 8023864:	2f40      	cmp	r7, #64	; 0x40
 8023866:	d13f      	bne.n	80238e8 <SDOS_SdoInd+0x4c8>
 8023868:	e88d 0808 	stmia.w	sp, {r3, fp}
 802386c:	4650      	mov	r0, sl
 802386e:	464b      	mov	r3, r9
 8023870:	4641      	mov	r1, r8
 8023872:	4632      	mov	r2, r6
 8023874:	f8cd c014 	str.w	ip, [sp, #20]
 8023878:	f7ff f9a8 	bl	8022bcc <OBJ_Read>
 802387c:	f8dd c014 	ldr.w	ip, [sp, #20]
 8023880:	4603      	mov	r3, r0
 8023882:	b960      	cbnz	r0, 802389e <SDOS_SdoInd+0x47e>
 8023884:	9003      	str	r0, [sp, #12]
 8023886:	f8dc 1000 	ldr.w	r1, [ip]
 802388a:	4622      	mov	r2, r4
 802388c:	f105 0010 	add.w	r0, r5, #16
 8023890:	f002 f99c 	bl	8025bcc <memcpy>
 8023894:	4a5a      	ldr	r2, [pc, #360]	; (8023a00 <SDOS_SdoInd+0x5e0>)
 8023896:	9b03      	ldr	r3, [sp, #12]
 8023898:	2160      	movs	r1, #96	; 0x60
 802389a:	7011      	strb	r1, [r2, #0]
 802389c:	e02f      	b.n	80238fe <SDOS_SdoInd+0x4de>
 802389e:	28ff      	cmp	r0, #255	; 0xff
 80238a0:	d12d      	bne.n	80238fe <SDOS_SdoInd+0x4de>
 80238a2:	4b4c      	ldr	r3, [pc, #304]	; (80239d4 <SDOS_SdoInd+0x5b4>)
 80238a4:	2204      	movs	r2, #4
 80238a6:	701a      	strb	r2, [r3, #0]
 80238a8:	4b4b      	ldr	r3, [pc, #300]	; (80239d8 <SDOS_SdoInd+0x5b8>)
 80238aa:	f8dc 2000 	ldr.w	r2, [ip]
 80238ae:	f883 b000 	strb.w	fp, [r3]
 80238b2:	4b4a      	ldr	r3, [pc, #296]	; (80239dc <SDOS_SdoInd+0x5bc>)
 80238b4:	f883 8000 	strb.w	r8, [r3]
 80238b8:	4b49      	ldr	r3, [pc, #292]	; (80239e0 <SDOS_SdoInd+0x5c0>)
 80238ba:	f8a3 a000 	strh.w	sl, [r3]
 80238be:	4b4a      	ldr	r3, [pc, #296]	; (80239e8 <SDOS_SdoInd+0x5c8>)
 80238c0:	601e      	str	r6, [r3, #0]
 80238c2:	4b4a      	ldr	r3, [pc, #296]	; (80239ec <SDOS_SdoInd+0x5cc>)
 80238c4:	601a      	str	r2, [r3, #0]
 80238c6:	4b4a      	ldr	r3, [pc, #296]	; (80239f0 <SDOS_SdoInd+0x5d0>)
 80238c8:	f8d9 201c 	ldr.w	r2, [r9, #28]
 80238cc:	601a      	str	r2, [r3, #0]
 80238ce:	4b49      	ldr	r3, [pc, #292]	; (80239f4 <SDOS_SdoInd+0x5d4>)
 80238d0:	2201      	movs	r2, #1
 80238d2:	701a      	strb	r2, [r3, #0]
 80238d4:	4b48      	ldr	r3, [pc, #288]	; (80239f8 <SDOS_SdoInd+0x5d8>)
 80238d6:	601d      	str	r5, [r3, #0]
 80238d8:	9b03      	ldr	r3, [sp, #12]
 80238da:	f023 030f 	bic.w	r3, r3, #15
 80238de:	722b      	strb	r3, [r5, #8]
 80238e0:	4b47      	ldr	r3, [pc, #284]	; (8023a00 <SDOS_SdoInd+0x5e0>)
 80238e2:	2260      	movs	r2, #96	; 0x60
 80238e4:	701a      	strb	r2, [r3, #0]
 80238e6:	e77d      	b.n	80237e4 <SDOS_SdoInd+0x3c4>
 80238e8:	9b05      	ldr	r3, [sp, #20]
 80238ea:	f1a3 040a 	sub.w	r4, r3, #10
 80238ee:	4622      	mov	r2, r4
 80238f0:	f105 0110 	add.w	r1, r5, #16
 80238f4:	f002 f96a 	bl	8025bcc <memcpy>
 80238f8:	4a41      	ldr	r2, [pc, #260]	; (8023a00 <SDOS_SdoInd+0x5e0>)
 80238fa:	2300      	movs	r3, #0
 80238fc:	7013      	strb	r3, [r2, #0]
 80238fe:	4a41      	ldr	r2, [pc, #260]	; (8023a04 <SDOS_SdoInd+0x5e4>)
 8023900:	6014      	str	r4, [r2, #0]
 8023902:	e767      	b.n	80237d4 <SDOS_SdoInd+0x3b4>
 8023904:	b946      	cbnz	r6, 8023918 <SDOS_SdoInd+0x4f8>
 8023906:	4b42      	ldr	r3, [pc, #264]	; (8023a10 <SDOS_SdoInd+0x5f0>)
 8023908:	f8a3 a000 	strh.w	sl, [r3]
 802390c:	4b41      	ldr	r3, [pc, #260]	; (8023a14 <SDOS_SdoInd+0x5f4>)
 802390e:	f883 8000 	strb.w	r8, [r3]
 8023912:	4b41      	ldr	r3, [pc, #260]	; (8023a18 <SDOS_SdoInd+0x5f8>)
 8023914:	f8c3 9000 	str.w	r9, [r3]
 8023918:	2f40      	cmp	r7, #64	; 0x40
 802391a:	f8cd c000 	str.w	ip, [sp]
 802391e:	f8cd c014 	str.w	ip, [sp, #20]
 8023922:	f8cd b004 	str.w	fp, [sp, #4]
 8023926:	4650      	mov	r0, sl
 8023928:	4641      	mov	r1, r8
 802392a:	d120      	bne.n	802396e <SDOS_SdoInd+0x54e>
 802392c:	464b      	mov	r3, r9
 802392e:	4632      	mov	r2, r6
 8023930:	f7ff f94c 	bl	8022bcc <OBJ_Read>
 8023934:	28ff      	cmp	r0, #255	; 0xff
 8023936:	4603      	mov	r3, r0
 8023938:	f8dd c014 	ldr.w	ip, [sp, #20]
 802393c:	f47f af4a 	bne.w	80237d4 <SDOS_SdoInd+0x3b4>
 8023940:	4b24      	ldr	r3, [pc, #144]	; (80239d4 <SDOS_SdoInd+0x5b4>)
 8023942:	2203      	movs	r2, #3
 8023944:	701a      	strb	r2, [r3, #0]
 8023946:	4b24      	ldr	r3, [pc, #144]	; (80239d8 <SDOS_SdoInd+0x5b8>)
 8023948:	f8d9 201c 	ldr.w	r2, [r9, #28]
 802394c:	f883 b000 	strb.w	fp, [r3]
 8023950:	4b22      	ldr	r3, [pc, #136]	; (80239dc <SDOS_SdoInd+0x5bc>)
 8023952:	f883 8000 	strb.w	r8, [r3]
 8023956:	4b22      	ldr	r3, [pc, #136]	; (80239e0 <SDOS_SdoInd+0x5c0>)
 8023958:	f8a3 a000 	strh.w	sl, [r3]
 802395c:	4b22      	ldr	r3, [pc, #136]	; (80239e8 <SDOS_SdoInd+0x5c8>)
 802395e:	601e      	str	r6, [r3, #0]
 8023960:	4b22      	ldr	r3, [pc, #136]	; (80239ec <SDOS_SdoInd+0x5cc>)
 8023962:	f8c3 c000 	str.w	ip, [r3]
 8023966:	4b22      	ldr	r3, [pc, #136]	; (80239f0 <SDOS_SdoInd+0x5d0>)
 8023968:	601a      	str	r2, [r3, #0]
 802396a:	2301      	movs	r3, #1
 802396c:	e01e      	b.n	80239ac <SDOS_SdoInd+0x58c>
 802396e:	464b      	mov	r3, r9
 8023970:	4622      	mov	r2, r4
 8023972:	f7ff facf 	bl	8022f14 <OBJ_Write>
 8023976:	28ff      	cmp	r0, #255	; 0xff
 8023978:	4603      	mov	r3, r0
 802397a:	f8dd c014 	ldr.w	ip, [sp, #20]
 802397e:	f47f af29 	bne.w	80237d4 <SDOS_SdoInd+0x3b4>
 8023982:	4a14      	ldr	r2, [pc, #80]	; (80239d4 <SDOS_SdoInd+0x5b4>)
 8023984:	f8d9 1020 	ldr.w	r1, [r9, #32]
 8023988:	2301      	movs	r3, #1
 802398a:	7013      	strb	r3, [r2, #0]
 802398c:	4a12      	ldr	r2, [pc, #72]	; (80239d8 <SDOS_SdoInd+0x5b8>)
 802398e:	f882 b000 	strb.w	fp, [r2]
 8023992:	4a12      	ldr	r2, [pc, #72]	; (80239dc <SDOS_SdoInd+0x5bc>)
 8023994:	f882 8000 	strb.w	r8, [r2]
 8023998:	4a11      	ldr	r2, [pc, #68]	; (80239e0 <SDOS_SdoInd+0x5c0>)
 802399a:	f8a2 a000 	strh.w	sl, [r2]
 802399e:	4a12      	ldr	r2, [pc, #72]	; (80239e8 <SDOS_SdoInd+0x5c8>)
 80239a0:	6014      	str	r4, [r2, #0]
 80239a2:	4a12      	ldr	r2, [pc, #72]	; (80239ec <SDOS_SdoInd+0x5cc>)
 80239a4:	f8c2 c000 	str.w	ip, [r2]
 80239a8:	4a11      	ldr	r2, [pc, #68]	; (80239f0 <SDOS_SdoInd+0x5d0>)
 80239aa:	6011      	str	r1, [r2, #0]
 80239ac:	9a06      	ldr	r2, [sp, #24]
 80239ae:	7013      	strb	r3, [r2, #0]
 80239b0:	4b11      	ldr	r3, [pc, #68]	; (80239f8 <SDOS_SdoInd+0x5d8>)
 80239b2:	601d      	str	r5, [r3, #0]
 80239b4:	9b03      	ldr	r3, [sp, #12]
 80239b6:	f023 030f 	bic.w	r3, r3, #15
 80239ba:	722b      	strb	r3, [r5, #8]
 80239bc:	e712      	b.n	80237e4 <SDOS_SdoInd+0x3c4>
 80239be:	f1bb 0f00 	cmp.w	fp, #0
 80239c2:	f43f af1e 	beq.w	8023802 <SDOS_SdoInd+0x3e2>
 80239c6:	f1b8 0f01 	cmp.w	r8, #1
 80239ca:	f67f af1a 	bls.w	8023802 <SDOS_SdoInd+0x3e2>
 80239ce:	2305      	movs	r3, #5
 80239d0:	e700      	b.n	80237d4 <SDOS_SdoInd+0x3b4>
 80239d2:	bf00      	nop
 80239d4:	1ffea73c 	.word	0x1ffea73c
 80239d8:	1ffea73d 	.word	0x1ffea73d
 80239dc:	1ffea770 	.word	0x1ffea770
 80239e0:	1ffea76e 	.word	0x1ffea76e
 80239e4:	1ffea734 	.word	0x1ffea734
 80239e8:	1ffea74c 	.word	0x1ffea74c
 80239ec:	1ffea728 	.word	0x1ffea728
 80239f0:	1ffea738 	.word	0x1ffea738
 80239f4:	1ffe94b1 	.word	0x1ffe94b1
 80239f8:	1ffea748 	.word	0x1ffea748
 80239fc:	1ffea731 	.word	0x1ffea731
 8023a00:	1ffea73f 	.word	0x1ffea73f
 8023a04:	1ffea72c 	.word	0x1ffea72c
 8023a08:	1ffea73e 	.word	0x1ffea73e
 8023a0c:	1ffea730 	.word	0x1ffea730
 8023a10:	1ffea754 	.word	0x1ffea754
 8023a14:	1ffea76c 	.word	0x1ffea76c
 8023a18:	1ffea768 	.word	0x1ffea768
 8023a1c:	1ffea750 	.word	0x1ffea750
 8023a20:	4604      	mov	r4, r0
 8023a22:	f04f 0c00 	mov.w	ip, #0
 8023a26:	f1bb 0f00 	cmp.w	fp, #0
 8023a2a:	f43f af6b 	beq.w	8023904 <SDOS_SdoInd+0x4e4>
 8023a2e:	2300      	movs	r3, #0
 8023a30:	e6e0      	b.n	80237f4 <SDOS_SdoInd+0x3d4>
 8023a32:	4620      	mov	r0, r4
 8023a34:	b009      	add	sp, #36	; 0x24
 8023a36:	e8bd 8ff0 	ldmia.w	sp!, {r4, r5, r6, r7, r8, r9, sl, fp, pc}
 8023a3a:	bf00      	nop

08023a3c <SDOS_SdoRes>:
 8023a3c:	e92d 47f3 	stmdb	sp!, {r0, r1, r4, r5, r6, r7, r8, r9, sl, lr}
 8023a40:	4e26      	ldr	r6, [pc, #152]	; (8023adc <SDOS_SdoRes+0xa0>)
 8023a42:	7833      	ldrb	r3, [r6, #0]
 8023a44:	468a      	mov	sl, r1
 8023a46:	4680      	mov	r8, r0
 8023a48:	4611      	mov	r1, r2
 8023a4a:	2b00      	cmp	r3, #0
 8023a4c:	d043      	beq.n	8023ad6 <SDOS_SdoRes+0x9a>
 8023a4e:	4b24      	ldr	r3, [pc, #144]	; (8023ae0 <SDOS_SdoRes+0xa4>)
 8023a50:	f8d3 9000 	ldr.w	r9, [r3]
 8023a54:	f899 3008 	ldrb.w	r3, [r9, #8]
 8023a58:	f003 07e0 	and.w	r7, r3, #224	; 0xe0
 8023a5c:	2f40      	cmp	r7, #64	; 0x40
 8023a5e:	f003 0310 	and.w	r3, r3, #16
 8023a62:	b2dd      	uxtb	r5, r3
 8023a64:	d12a      	bne.n	8023abc <SDOS_SdoRes+0x80>
 8023a66:	4b1f      	ldr	r3, [pc, #124]	; (8023ae4 <SDOS_SdoRes+0xa8>)
 8023a68:	881c      	ldrh	r4, [r3, #0]
 8023a6a:	3c10      	subs	r4, #16
 8023a6c:	b2a4      	uxth	r4, r4
 8023a6e:	4554      	cmp	r4, sl
 8023a70:	d216      	bcs.n	8023aa0 <SDOS_SdoRes+0x64>
 8023a72:	4a1d      	ldr	r2, [pc, #116]	; (8023ae8 <SDOS_SdoRes+0xac>)
 8023a74:	2301      	movs	r3, #1
 8023a76:	7013      	strb	r3, [r2, #0]
 8023a78:	4a1c      	ldr	r2, [pc, #112]	; (8023aec <SDOS_SdoRes+0xb0>)
 8023a7a:	7013      	strb	r3, [r2, #0]
 8023a7c:	4b1c      	ldr	r3, [pc, #112]	; (8023af0 <SDOS_SdoRes+0xb4>)
 8023a7e:	701d      	strb	r5, [r3, #0]
 8023a80:	4b1c      	ldr	r3, [pc, #112]	; (8023af4 <SDOS_SdoRes+0xb8>)
 8023a82:	f8c3 a000 	str.w	sl, [r3]
 8023a86:	4b1c      	ldr	r3, [pc, #112]	; (8023af8 <SDOS_SdoRes+0xbc>)
 8023a88:	2260      	movs	r2, #96	; 0x60
 8023a8a:	701a      	strb	r2, [r3, #0]
 8023a8c:	4b1b      	ldr	r3, [pc, #108]	; (8023afc <SDOS_SdoRes+0xc0>)
 8023a8e:	f109 0010 	add.w	r0, r9, #16
 8023a92:	4622      	mov	r2, r4
 8023a94:	6019      	str	r1, [r3, #0]
 8023a96:	f002 f899 	bl	8025bcc <memcpy>
 8023a9a:	4b19      	ldr	r3, [pc, #100]	; (8023b00 <SDOS_SdoRes+0xc4>)
 8023a9c:	601c      	str	r4, [r3, #0]
 8023a9e:	e00e      	b.n	8023abe <SDOS_SdoRes+0x82>
 8023aa0:	f10a 33ff 	add.w	r3, sl, #4294967295
 8023aa4:	2b03      	cmp	r3, #3
 8023aa6:	bf94      	ite	ls
 8023aa8:	f109 000c 	addls.w	r0, r9, #12
 8023aac:	f109 0010 	addhi.w	r0, r9, #16
 8023ab0:	4282      	cmp	r2, r0
 8023ab2:	d004      	beq.n	8023abe <SDOS_SdoRes+0x82>
 8023ab4:	4652      	mov	r2, sl
 8023ab6:	f002 f889 	bl	8025bcc <memcpy>
 8023aba:	e000      	b.n	8023abe <SDOS_SdoRes+0x82>
 8023abc:	2400      	movs	r4, #0
 8023abe:	2300      	movs	r3, #0
 8023ac0:	7033      	strb	r3, [r6, #0]
 8023ac2:	f8cd a000 	str.w	sl, [sp]
 8023ac6:	f8cd 9004 	str.w	r9, [sp, #4]
 8023aca:	4640      	mov	r0, r8
 8023acc:	4639      	mov	r1, r7
 8023ace:	462a      	mov	r2, r5
 8023ad0:	4623      	mov	r3, r4
 8023ad2:	f7ff fc43 	bl	802335c <SdoRes>
 8023ad6:	b002      	add	sp, #8
 8023ad8:	e8bd 87f0 	ldmia.w	sp!, {r4, r5, r6, r7, r8, r9, sl, pc}
 8023adc:	1ffe94b1 	.word	0x1ffe94b1
 8023ae0:	1ffea748 	.word	0x1ffea748
 8023ae4:	1ffea67c 	.word	0x1ffea67c
 8023ae8:	1ffea731 	.word	0x1ffea731
 8023aec:	1ffea73e 	.word	0x1ffea73e
 8023af0:	1ffea730 	.word	0x1ffea730
 8023af4:	1ffea734 	.word	0x1ffea734
 8023af8:	1ffea73f 	.word	0x1ffea73f
 8023afc:	1ffea750 	.word	0x1ffea750
 8023b00:	1ffea72c 	.word	0x1ffea72c

08023b04 <SDOS_ClearPendingResponse>:
 8023b04:	b538      	push	{r3, r4, r5, lr}
 8023b06:	4b17      	ldr	r3, [pc, #92]	; (8023b64 <SDOS_ClearPendingResponse+0x60>)
 8023b08:	781a      	ldrb	r2, [r3, #0]
 8023b0a:	461d      	mov	r5, r3
 8023b0c:	b172      	cbz	r2, 8023b2c <SDOS_ClearPendingResponse+0x28>
 8023b0e:	4c16      	ldr	r4, [pc, #88]	; (8023b68 <SDOS_ClearPendingResponse+0x64>)
 8023b10:	6820      	ldr	r0, [r4, #0]
 8023b12:	b158      	cbz	r0, 8023b2c <SDOS_ClearPendingResponse+0x28>
 8023b14:	4b15      	ldr	r3, [pc, #84]	; (8023b6c <SDOS_ClearPendingResponse+0x68>)
 8023b16:	681b      	ldr	r3, [r3, #0]
 8023b18:	4298      	cmp	r0, r3
 8023b1a:	d007      	beq.n	8023b2c <SDOS_ClearPendingResponse+0x28>
 8023b1c:	4b14      	ldr	r3, [pc, #80]	; (8023b70 <SDOS_ClearPendingResponse+0x6c>)
 8023b1e:	681b      	ldr	r3, [r3, #0]
 8023b20:	4298      	cmp	r0, r3
 8023b22:	d003      	beq.n	8023b2c <SDOS_ClearPendingResponse+0x28>
 8023b24:	f002 f83a 	bl	8025b9c <free>
 8023b28:	2300      	movs	r3, #0
 8023b2a:	6023      	str	r3, [r4, #0]
 8023b2c:	4b11      	ldr	r3, [pc, #68]	; (8023b74 <SDOS_ClearPendingResponse+0x70>)
 8023b2e:	2400      	movs	r4, #0
 8023b30:	701c      	strb	r4, [r3, #0]
 8023b32:	4b11      	ldr	r3, [pc, #68]	; (8023b78 <SDOS_ClearPendingResponse+0x74>)
 8023b34:	702c      	strb	r4, [r5, #0]
 8023b36:	701c      	strb	r4, [r3, #0]
 8023b38:	4b10      	ldr	r3, [pc, #64]	; (8023b7c <SDOS_ClearPendingResponse+0x78>)
 8023b3a:	4d11      	ldr	r5, [pc, #68]	; (8023b80 <SDOS_ClearPendingResponse+0x7c>)
 8023b3c:	801c      	strh	r4, [r3, #0]
 8023b3e:	4b11      	ldr	r3, [pc, #68]	; (8023b84 <SDOS_ClearPendingResponse+0x80>)
 8023b40:	6828      	ldr	r0, [r5, #0]
 8023b42:	701c      	strb	r4, [r3, #0]
 8023b44:	4b10      	ldr	r3, [pc, #64]	; (8023b88 <SDOS_ClearPendingResponse+0x84>)
 8023b46:	601c      	str	r4, [r3, #0]
 8023b48:	4b10      	ldr	r3, [pc, #64]	; (8023b8c <SDOS_ClearPendingResponse+0x88>)
 8023b4a:	601c      	str	r4, [r3, #0]
 8023b4c:	4b10      	ldr	r3, [pc, #64]	; (8023b90 <SDOS_ClearPendingResponse+0x8c>)
 8023b4e:	601c      	str	r4, [r3, #0]
 8023b50:	b110      	cbz	r0, 8023b58 <SDOS_ClearPendingResponse+0x54>
 8023b52:	f002 f823 	bl	8025b9c <free>
 8023b56:	602c      	str	r4, [r5, #0]
 8023b58:	4a0e      	ldr	r2, [pc, #56]	; (8023b94 <SDOS_ClearPendingResponse+0x90>)
 8023b5a:	2300      	movs	r3, #0
 8023b5c:	6013      	str	r3, [r2, #0]
 8023b5e:	4a0e      	ldr	r2, [pc, #56]	; (8023b98 <SDOS_ClearPendingResponse+0x94>)
 8023b60:	7013      	strb	r3, [r2, #0]
 8023b62:	bd38      	pop	{r3, r4, r5, pc}
 8023b64:	1ffe94b1 	.word	0x1ffe94b1
 8023b68:	1ffea748 	.word	0x1ffea748
 8023b6c:	1ffea694 	.word	0x1ffea694
 8023b70:	1ffea678 	.word	0x1ffea678
 8023b74:	1ffea73c 	.word	0x1ffea73c
 8023b78:	1ffea73d 	.word	0x1ffea73d
 8023b7c:	1ffea76e 	.word	0x1ffea76e
 8023b80:	1ffea750 	.word	0x1ffea750
 8023b84:	1ffea770 	.word	0x1ffea770
 8023b88:	1ffea74c 	.word	0x1ffea74c
 8023b8c:	1ffea728 	.word	0x1ffea728
 8023b90:	1ffea738 	.word	0x1ffea738
 8023b94:	1ffea72c 	.word	0x1ffea72c
 8023b98:	1ffea73f 	.word	0x1ffea73f

08023b9c <SDOS_SdoInfoInd>:
 8023b9c:	e92d 43f0 	stmdb	sp!, {r4, r5, r6, r7, r8, r9, lr}
 8023ba0:	7a05      	ldrb	r5, [r0, #8]
 8023ba2:	b085      	sub	sp, #20
 8023ba4:	f005 057f 	and.w	r5, r5, #127	; 0x7f
 8023ba8:	2300      	movs	r3, #0
 8023baa:	2d05      	cmp	r5, #5
 8023bac:	f88d 300d 	strb.w	r3, [sp, #13]
 8023bb0:	4604      	mov	r4, r0
 8023bb2:	8803      	ldrh	r3, [r0, #0]
 8023bb4:	d103      	bne.n	8023bbe <SDOS_SdoInfoInd+0x22>
 8023bb6:	2b09      	cmp	r3, #9
 8023bb8:	f240 812f 	bls.w	8023e1a <SDOS_SdoInfoInd+0x27e>
 8023bbc:	e08a      	b.n	8023cd4 <SDOS_SdoInfoInd+0x138>
 8023bbe:	2b07      	cmp	r3, #7
 8023bc0:	f240 812b 	bls.w	8023e1a <SDOS_SdoInfoInd+0x27e>
 8023bc4:	2d03      	cmp	r5, #3
 8023bc6:	f000 8085 	beq.w	8023cd4 <SDOS_SdoInfoInd+0x138>
 8023bca:	2d05      	cmp	r5, #5
 8023bcc:	f000 8082 	beq.w	8023cd4 <SDOS_SdoInfoInd+0x138>
 8023bd0:	2d01      	cmp	r5, #1
 8023bd2:	f040 8103 	bne.w	8023ddc <SDOS_SdoInfoInd+0x240>
 8023bd6:	8983      	ldrh	r3, [r0, #12]
 8023bd8:	2b05      	cmp	r3, #5
 8023bda:	f200 8102 	bhi.w	8023de2 <SDOS_SdoInfoInd+0x246>
 8023bde:	4d91      	ldr	r5, [pc, #580]	; (8023e24 <SDOS_SdoInfoInd+0x288>)
 8023be0:	4602      	mov	r2, r0
 8023be2:	f100 0708 	add.w	r7, r0, #8
 8023be6:	6810      	ldr	r0, [r2, #0]
 8023be8:	6851      	ldr	r1, [r2, #4]
 8023bea:	462e      	mov	r6, r5
 8023bec:	c603      	stmia	r6!, {r0, r1}
 8023bee:	3208      	adds	r2, #8
 8023bf0:	42ba      	cmp	r2, r7
 8023bf2:	4635      	mov	r5, r6
 8023bf4:	d1f7      	bne.n	8023be6 <SDOS_SdoInfoInd+0x4a>
 8023bf6:	6810      	ldr	r0, [r2, #0]
 8023bf8:	6030      	str	r0, [r6, #0]
 8023bfa:	8892      	ldrh	r2, [r2, #4]
 8023bfc:	80b2      	strh	r2, [r6, #4]
 8023bfe:	4e8a      	ldr	r6, [pc, #552]	; (8023e28 <SDOS_SdoInfoInd+0x28c>)
 8023c00:	b96b      	cbnz	r3, 8023c1e <SDOS_SdoInfoInd+0x82>
 8023c02:	8033      	strh	r3, [r6, #0]
 8023c04:	f104 070c 	add.w	r7, r4, #12
 8023c08:	461d      	mov	r5, r3
 8023c0a:	b2e8      	uxtb	r0, r5
 8023c0c:	f7fe fe7e 	bl	802290c <OBJ_GetNoOfObjects>
 8023c10:	3501      	adds	r5, #1
 8023c12:	2d05      	cmp	r5, #5
 8023c14:	f827 0f02 	strh.w	r0, [r7, #2]!
 8023c18:	d1f7      	bne.n	8023c0a <SDOS_SdoInfoInd+0x6e>
 8023c1a:	2012      	movs	r0, #18
 8023c1c:	e042      	b.n	8023ca4 <SDOS_SdoInfoInd+0x108>
 8023c1e:	f8b6 9000 	ldrh.w	r9, [r6]
 8023c22:	4f82      	ldr	r7, [pc, #520]	; (8023e2c <SDOS_SdoInfoInd+0x290>)
 8023c24:	f8df 8214 	ldr.w	r8, [pc, #532]	; 8023e3c <SDOS_SdoInfoInd+0x2a0>
 8023c28:	3b01      	subs	r3, #1
 8023c2a:	f003 05ff 	and.w	r5, r3, #255	; 0xff
 8023c2e:	f1b9 0f00 	cmp.w	r9, #0
 8023c32:	d00b      	beq.n	8023c4c <SDOS_SdoInfoInd+0xb0>
 8023c34:	883a      	ldrh	r2, [r7, #0]
 8023c36:	f8b8 1000 	ldrh.w	r1, [r8]
 8023c3a:	f8ad 100e 	strh.w	r1, [sp, #14]
 8023c3e:	3a0c      	subs	r2, #12
 8023c40:	b292      	uxth	r2, r2
 8023c42:	f104 030c 	add.w	r3, r4, #12
 8023c46:	f109 39ff 	add.w	r9, r9, #4294967295
 8023c4a:	e019      	b.n	8023c80 <SDOS_SdoInfoInd+0xe4>
 8023c4c:	4628      	mov	r0, r5
 8023c4e:	f7fe fe5d 	bl	802290c <OBJ_GetNoOfObjects>
 8023c52:	8839      	ldrh	r1, [r7, #0]
 8023c54:	f1a1 020e 	sub.w	r2, r1, #14
 8023c58:	b292      	uxth	r2, r2
 8023c5a:	0040      	lsls	r0, r0, #1
 8023c5c:	f44f 5380 	mov.w	r3, #4096	; 0x1000
 8023c60:	4290      	cmp	r0, r2
 8023c62:	f8ad 300e 	strh.w	r3, [sp, #14]
 8023c66:	f104 030e 	add.w	r3, r4, #14
 8023c6a:	dd09      	ble.n	8023c80 <SDOS_SdoInfoInd+0xe4>
 8023c6c:	390c      	subs	r1, #12
 8023c6e:	b289      	uxth	r1, r1
 8023c70:	f101 3eff 	add.w	lr, r1, #4294967295
 8023c74:	1a80      	subs	r0, r0, r2
 8023c76:	4470      	add	r0, lr
 8023c78:	fb90 f1f1 	sdiv	r1, r0, r1
 8023c7c:	8031      	strh	r1, [r6, #0]
 8023c7e:	e001      	b.n	8023c84 <SDOS_SdoInfoInd+0xe8>
 8023c80:	f8a6 9000 	strh.w	r9, [r6]
 8023c84:	f10d 010d 	add.w	r1, sp, #13
 8023c88:	9100      	str	r1, [sp, #0]
 8023c8a:	4628      	mov	r0, r5
 8023c8c:	f10d 010e 	add.w	r1, sp, #14
 8023c90:	f7fe fe6c 	bl	802296c <OBJ_GetObjectList>
 8023c94:	f8bd 300e 	ldrh.w	r3, [sp, #14]
 8023c98:	f8a8 3000 	strh.w	r3, [r8]
 8023c9c:	883b      	ldrh	r3, [r7, #0]
 8023c9e:	3b06      	subs	r3, #6
 8023ca0:	1a18      	subs	r0, r3, r0
 8023ca2:	b280      	uxth	r0, r0
 8023ca4:	f89d 300d 	ldrb.w	r3, [sp, #13]
 8023ca8:	8020      	strh	r0, [r4, #0]
 8023caa:	2b00      	cmp	r3, #0
 8023cac:	f040 8099 	bne.w	8023de2 <SDOS_SdoInfoInd+0x246>
 8023cb0:	8923      	ldrh	r3, [r4, #8]
 8023cb2:	f023 027f 	bic.w	r2, r3, #127	; 0x7f
 8023cb6:	f042 0202 	orr.w	r2, r2, #2
 8023cba:	8122      	strh	r2, [r4, #8]
 8023cbc:	8832      	ldrh	r2, [r6, #0]
 8023cbe:	8162      	strh	r2, [r4, #10]
 8023cc0:	2a00      	cmp	r2, #0
 8023cc2:	f000 808e 	beq.w	8023de2 <SDOS_SdoInfoInd+0x246>
 8023cc6:	f023 03ff 	bic.w	r3, r3, #255	; 0xff
 8023cca:	f043 0382 	orr.w	r3, r3, #130	; 0x82
 8023cce:	8123      	strh	r3, [r4, #8]
 8023cd0:	2182      	movs	r1, #130	; 0x82
 8023cd2:	e087      	b.n	8023de4 <SDOS_SdoInfoInd+0x248>
 8023cd4:	89a0      	ldrh	r0, [r4, #12]
 8023cd6:	f8ad 000e 	strh.w	r0, [sp, #14]
 8023cda:	f5b0 5f80 	cmp.w	r0, #4096	; 0x1000
 8023cde:	d201      	bcs.n	8023ce4 <SDOS_SdoInfoInd+0x148>
 8023ce0:	2305      	movs	r3, #5
 8023ce2:	e07c      	b.n	8023dde <SDOS_SdoInfoInd+0x242>
 8023ce4:	f7fe fd3a 	bl	802275c <OBJ_GetObjectHandle>
 8023ce8:	4606      	mov	r6, r0
 8023cea:	2800      	cmp	r0, #0
 8023cec:	d074      	beq.n	8023dd8 <SDOS_SdoInfoInd+0x23c>
 8023cee:	2d03      	cmp	r5, #3
 8023cf0:	d11c      	bne.n	8023d2c <SDOS_SdoInfoInd+0x190>
 8023cf2:	f7fe fe93 	bl	8022a1c <OBJ_GetObjDesc>
 8023cf6:	2100      	movs	r1, #0
 8023cf8:	6803      	ldr	r3, [r0, #0]
 8023cfa:	f8c4 300e 	str.w	r3, [r4, #14]
 8023cfe:	f8bd 000e 	ldrh.w	r0, [sp, #14]
 8023d02:	460b      	mov	r3, r1
 8023d04:	4632      	mov	r2, r6
 8023d06:	f7fe fd89 	bl	802281c <OBJ_GetDesc>
 8023d0a:	4b48      	ldr	r3, [pc, #288]	; (8023e2c <SDOS_SdoInfoInd+0x290>)
 8023d0c:	881b      	ldrh	r3, [r3, #0]
 8023d0e:	300c      	adds	r0, #12
 8023d10:	3b05      	subs	r3, #5
 8023d12:	b280      	uxth	r0, r0
 8023d14:	4283      	cmp	r3, r0
 8023d16:	dd50      	ble.n	8023dba <SDOS_SdoInfoInd+0x21e>
 8023d18:	f8bd 000e 	ldrh.w	r0, [sp, #14]
 8023d1c:	2100      	movs	r1, #0
 8023d1e:	4632      	mov	r2, r6
 8023d20:	f104 0312 	add.w	r3, r4, #18
 8023d24:	f7fe fd7a 	bl	802281c <OBJ_GetDesc>
 8023d28:	300c      	adds	r0, #12
 8023d2a:	e03f      	b.n	8023dac <SDOS_SdoInfoInd+0x210>
 8023d2c:	7ba7      	ldrb	r7, [r4, #14]
 8023d2e:	f7fe fe75 	bl	8022a1c <OBJ_GetObjDesc>
 8023d32:	7883      	ldrb	r3, [r0, #2]
 8023d34:	429f      	cmp	r7, r3
 8023d36:	d83b      	bhi.n	8023db0 <SDOS_SdoInfoInd+0x214>
 8023d38:	4639      	mov	r1, r7
 8023d3a:	4630      	mov	r0, r6
 8023d3c:	f7fe fdd8 	bl	80228f0 <OBJ_GetEntryDesc>
 8023d40:	6803      	ldr	r3, [r0, #0]
 8023d42:	6123      	str	r3, [r4, #16]
 8023d44:	8883      	ldrh	r3, [r0, #4]
 8023d46:	82a3      	strh	r3, [r4, #20]
 8023d48:	7ba3      	ldrb	r3, [r4, #14]
 8023d4a:	81e3      	strh	r3, [r4, #14]
 8023d4c:	4630      	mov	r0, r6
 8023d4e:	f7fe fe65 	bl	8022a1c <OBJ_GetObjDesc>
 8023d52:	8843      	ldrh	r3, [r0, #2]
 8023d54:	f3c3 2303 	ubfx	r3, r3, #8, #4
 8023d58:	3b08      	subs	r3, #8
 8023d5a:	2b01      	cmp	r3, #1
 8023d5c:	d80f      	bhi.n	8023d7e <SDOS_SdoInfoInd+0x1e2>
 8023d5e:	b977      	cbnz	r7, 8023d7e <SDOS_SdoInfoInd+0x1e2>
 8023d60:	4b33      	ldr	r3, [pc, #204]	; (8023e30 <SDOS_SdoInfoInd+0x294>)
 8023d62:	f104 0216 	add.w	r2, r4, #22
 8023d66:	f103 010c 	add.w	r1, r3, #12
 8023d6a:	f853 0b04 	ldr.w	r0, [r3], #4
 8023d6e:	f842 0b04 	str.w	r0, [r2], #4
 8023d72:	428b      	cmp	r3, r1
 8023d74:	d1f9      	bne.n	8023d6a <SDOS_SdoInfoInd+0x1ce>
 8023d76:	781b      	ldrb	r3, [r3, #0]
 8023d78:	7013      	strb	r3, [r2, #0]
 8023d7a:	201c      	movs	r0, #28
 8023d7c:	e020      	b.n	8023dc0 <SDOS_SdoInfoInd+0x224>
 8023d7e:	2300      	movs	r3, #0
 8023d80:	f8bd 000e 	ldrh.w	r0, [sp, #14]
 8023d84:	4639      	mov	r1, r7
 8023d86:	4632      	mov	r2, r6
 8023d88:	f7fe fd48 	bl	802281c <OBJ_GetDesc>
 8023d8c:	4b27      	ldr	r3, [pc, #156]	; (8023e2c <SDOS_SdoInfoInd+0x290>)
 8023d8e:	881b      	ldrh	r3, [r3, #0]
 8023d90:	3010      	adds	r0, #16
 8023d92:	3b05      	subs	r3, #5
 8023d94:	b280      	uxth	r0, r0
 8023d96:	4283      	cmp	r3, r0
 8023d98:	dd11      	ble.n	8023dbe <SDOS_SdoInfoInd+0x222>
 8023d9a:	f8bd 000e 	ldrh.w	r0, [sp, #14]
 8023d9e:	4639      	mov	r1, r7
 8023da0:	4632      	mov	r2, r6
 8023da2:	f104 0316 	add.w	r3, r4, #22
 8023da6:	f7fe fd39 	bl	802281c <OBJ_GetDesc>
 8023daa:	3010      	adds	r0, #16
 8023dac:	b280      	uxth	r0, r0
 8023dae:	e007      	b.n	8023dc0 <SDOS_SdoInfoInd+0x224>
 8023db0:	2311      	movs	r3, #17
 8023db2:	f88d 300d 	strb.w	r3, [sp, #13]
 8023db6:	2000      	movs	r0, #0
 8023db8:	e002      	b.n	8023dc0 <SDOS_SdoInfoInd+0x224>
 8023dba:	200c      	movs	r0, #12
 8023dbc:	e000      	b.n	8023dc0 <SDOS_SdoInfoInd+0x224>
 8023dbe:	2010      	movs	r0, #16
 8023dc0:	f89d 300d 	ldrb.w	r3, [sp, #13]
 8023dc4:	b96b      	cbnz	r3, 8023de2 <SDOS_SdoInfoInd+0x246>
 8023dc6:	8163      	strh	r3, [r4, #10]
 8023dc8:	8923      	ldrh	r3, [r4, #8]
 8023dca:	8020      	strh	r0, [r4, #0]
 8023dcc:	3501      	adds	r5, #1
 8023dce:	f023 037f 	bic.w	r3, r3, #127	; 0x7f
 8023dd2:	431d      	orrs	r5, r3
 8023dd4:	8125      	strh	r5, [r4, #8]
 8023dd6:	e004      	b.n	8023de2 <SDOS_SdoInfoInd+0x246>
 8023dd8:	2308      	movs	r3, #8
 8023dda:	e000      	b.n	8023dde <SDOS_SdoInfoInd+0x242>
 8023ddc:	2303      	movs	r3, #3
 8023dde:	f88d 300d 	strb.w	r3, [sp, #13]
 8023de2:	2102      	movs	r1, #2
 8023de4:	f89d 200d 	ldrb.w	r2, [sp, #13]
 8023de8:	b17a      	cbz	r2, 8023e0a <SDOS_SdoInfoInd+0x26e>
 8023dea:	230a      	movs	r3, #10
 8023dec:	8023      	strh	r3, [r4, #0]
 8023dee:	4811      	ldr	r0, [pc, #68]	; (8023e34 <SDOS_SdoInfoInd+0x298>)
 8023df0:	8923      	ldrh	r3, [r4, #8]
 8023df2:	f850 2022 	ldr.w	r2, [r0, r2, lsl #2]
 8023df6:	60e2      	str	r2, [r4, #12]
 8023df8:	f023 037f 	bic.w	r3, r3, #127	; 0x7f
 8023dfc:	f043 0307 	orr.w	r3, r3, #7
 8023e00:	4a09      	ldr	r2, [pc, #36]	; (8023e28 <SDOS_SdoInfoInd+0x28c>)
 8023e02:	8123      	strh	r3, [r4, #8]
 8023e04:	2300      	movs	r3, #0
 8023e06:	8163      	strh	r3, [r4, #10]
 8023e08:	8013      	strh	r3, [r2, #0]
 8023e0a:	4620      	mov	r0, r4
 8023e0c:	f7fe fb98 	bl	8022540 <MBX_MailboxSendReq>
 8023e10:	b120      	cbz	r0, 8023e1c <SDOS_SdoInfoInd+0x280>
 8023e12:	4b09      	ldr	r3, [pc, #36]	; (8023e38 <SDOS_SdoInfoInd+0x29c>)
 8023e14:	2000      	movs	r0, #0
 8023e16:	601c      	str	r4, [r3, #0]
 8023e18:	e000      	b.n	8023e1c <SDOS_SdoInfoInd+0x280>
 8023e1a:	2006      	movs	r0, #6
 8023e1c:	b005      	add	sp, #20
 8023e1e:	e8bd 83f0 	ldmia.w	sp!, {r4, r5, r6, r7, r8, r9, pc}
 8023e22:	bf00      	nop
 8023e24:	1ffea758 	.word	0x1ffea758
 8023e28:	1ffea744 	.word	0x1ffea744
 8023e2c:	1ffea67c 	.word	0x1ffea67c
 8023e30:	1ffe9358 	.word	0x1ffe9358
 8023e34:	080262d4 	.word	0x080262d4
 8023e38:	1ffea5b8 	.word	0x1ffea5b8
 8023e3c:	1ffea724 	.word	0x1ffea724

08023e40 <XMC_ERU_Enable>:
 8023e40:	b508      	push	{r3, lr}
 8023e42:	4b07      	ldr	r3, [pc, #28]	; (8023e60 <XMC_ERU_Enable+0x20>)
 8023e44:	4298      	cmp	r0, r3
 8023e46:	d109      	bne.n	8023e5c <XMC_ERU_Enable+0x1c>
 8023e48:	f44f 3080 	mov.w	r0, #65536	; 0x10000
 8023e4c:	f000 f988 	bl	8024160 <XMC_SCU_CLOCK_UngatePeripheralClock>
 8023e50:	f44f 3080 	mov.w	r0, #65536	; 0x10000
 8023e54:	e8bd 4008 	ldmia.w	sp!, {r3, lr}
 8023e58:	f000 b8c4 	b.w	8023fe4 <XMC_SCU_RESET_DeassertPeripheralReset>
 8023e5c:	bd08      	pop	{r3, pc}
 8023e5e:	bf00      	nop
 8023e60:	40044000 	.word	0x40044000

08023e64 <XMC_FLASH_lWritePageCommand>:
 8023e64:	b510      	push	{r4, lr}
 8023e66:	4a05      	ldr	r2, [pc, #20]	; (8023e7c <XMC_FLASH_lWritePageCommand+0x18>)
 8023e68:	4905      	ldr	r1, [pc, #20]	; (8023e80 <XMC_FLASH_lWritePageCommand+0x1c>)
 8023e6a:	23aa      	movs	r3, #170	; 0xaa
 8023e6c:	2455      	movs	r4, #85	; 0x55
 8023e6e:	6013      	str	r3, [r2, #0]
 8023e70:	600c      	str	r4, [r1, #0]
 8023e72:	21a0      	movs	r1, #160	; 0xa0
 8023e74:	6011      	str	r1, [r2, #0]
 8023e76:	6003      	str	r3, [r0, #0]
 8023e78:	bd10      	pop	{r4, pc}
 8023e7a:	bf00      	nop
 8023e7c:	0c005554 	.word	0x0c005554
 8023e80:	0c00aaa8 	.word	0x0c00aaa8

08023e84 <XMC_FLASH_lEraseSectorCommand>:
 8023e84:	b530      	push	{r4, r5, lr}
 8023e86:	4b06      	ldr	r3, [pc, #24]	; (8023ea0 <XMC_FLASH_lEraseSectorCommand+0x1c>)
 8023e88:	4a06      	ldr	r2, [pc, #24]	; (8023ea4 <XMC_FLASH_lEraseSectorCommand+0x20>)
 8023e8a:	24aa      	movs	r4, #170	; 0xaa
 8023e8c:	2155      	movs	r1, #85	; 0x55
 8023e8e:	2580      	movs	r5, #128	; 0x80
 8023e90:	601c      	str	r4, [r3, #0]
 8023e92:	6011      	str	r1, [r2, #0]
 8023e94:	601d      	str	r5, [r3, #0]
 8023e96:	601c      	str	r4, [r3, #0]
 8023e98:	2330      	movs	r3, #48	; 0x30
 8023e9a:	6011      	str	r1, [r2, #0]
 8023e9c:	6003      	str	r3, [r0, #0]
 8023e9e:	bd30      	pop	{r4, r5, pc}
 8023ea0:	0c005554 	.word	0x0c005554
 8023ea4:	0c00aaa8 	.word	0x0c00aaa8

08023ea8 <XMC_FLASH_ClearStatus>:
 8023ea8:	4b01      	ldr	r3, [pc, #4]	; (8023eb0 <XMC_FLASH_ClearStatus+0x8>)
 8023eaa:	22f5      	movs	r2, #245	; 0xf5
 8023eac:	601a      	str	r2, [r3, #0]
 8023eae:	4770      	bx	lr
 8023eb0:	0c005554 	.word	0x0c005554

08023eb4 <XMC_FLASH_GetStatus>:
 8023eb4:	f241 0310 	movw	r3, #4112	; 0x1010
 8023eb8:	4a01      	ldr	r2, [pc, #4]	; (8023ec0 <XMC_FLASH_GetStatus+0xc>)
 8023eba:	58d0      	ldr	r0, [r2, r3]
 8023ebc:	4770      	bx	lr
 8023ebe:	bf00      	nop
 8023ec0:	58001000 	.word	0x58001000

08023ec4 <XMC_FLASH_ProgramPage>:
 8023ec4:	b538      	push	{r3, r4, r5, lr}
 8023ec6:	4b0b      	ldr	r3, [pc, #44]	; (8023ef4 <XMC_FLASH_ProgramPage+0x30>)
 8023ec8:	22f5      	movs	r2, #245	; 0xf5
 8023eca:	601a      	str	r2, [r3, #0]
 8023ecc:	2250      	movs	r2, #80	; 0x50
 8023ece:	601a      	str	r2, [r3, #0]
 8023ed0:	2300      	movs	r3, #0
 8023ed2:	18ca      	adds	r2, r1, r3
 8023ed4:	58cd      	ldr	r5, [r1, r3]
 8023ed6:	6854      	ldr	r4, [r2, #4]
 8023ed8:	4a07      	ldr	r2, [pc, #28]	; (8023ef8 <XMC_FLASH_ProgramPage+0x34>)
 8023eda:	3308      	adds	r3, #8
 8023edc:	f5b3 7f80 	cmp.w	r3, #256	; 0x100
 8023ee0:	6015      	str	r5, [r2, #0]
 8023ee2:	6054      	str	r4, [r2, #4]
 8023ee4:	d1f5      	bne.n	8023ed2 <XMC_FLASH_ProgramPage+0xe>
 8023ee6:	f7ff ffbd 	bl	8023e64 <XMC_FLASH_lWritePageCommand>
 8023eea:	4b04      	ldr	r3, [pc, #16]	; (8023efc <XMC_FLASH_ProgramPage+0x38>)
 8023eec:	681b      	ldr	r3, [r3, #0]
 8023eee:	07db      	lsls	r3, r3, #31
 8023ef0:	d4fb      	bmi.n	8023eea <XMC_FLASH_ProgramPage+0x26>
 8023ef2:	bd38      	pop	{r3, r4, r5, pc}
 8023ef4:	0c005554 	.word	0x0c005554
 8023ef8:	0c0055f0 	.word	0x0c0055f0
 8023efc:	58002010 	.word	0x58002010

08023f00 <XMC_FLASH_EraseSector>:
 8023f00:	b508      	push	{r3, lr}
 8023f02:	4b05      	ldr	r3, [pc, #20]	; (8023f18 <XMC_FLASH_EraseSector+0x18>)
 8023f04:	22f5      	movs	r2, #245	; 0xf5
 8023f06:	601a      	str	r2, [r3, #0]
 8023f08:	f7ff ffbc 	bl	8023e84 <XMC_FLASH_lEraseSectorCommand>
 8023f0c:	4b03      	ldr	r3, [pc, #12]	; (8023f1c <XMC_FLASH_EraseSector+0x1c>)
 8023f0e:	681b      	ldr	r3, [r3, #0]
 8023f10:	07db      	lsls	r3, r3, #31
 8023f12:	d4fb      	bmi.n	8023f0c <XMC_FLASH_EraseSector+0xc>
 8023f14:	bd08      	pop	{r3, pc}
 8023f16:	bf00      	nop
 8023f18:	0c005554 	.word	0x0c005554
 8023f1c:	58002010 	.word	0x58002010

08023f20 <XMC_GPIO_Init>:
 8023f20:	f001 03fc 	and.w	r3, r1, #252	; 0xfc
 8023f24:	4403      	add	r3, r0
 8023f26:	b5f0      	push	{r4, r5, r6, r7, lr}
 8023f28:	f001 0403 	and.w	r4, r1, #3
 8023f2c:	691e      	ldr	r6, [r3, #16]
 8023f2e:	00e4      	lsls	r4, r4, #3
 8023f30:	25f8      	movs	r5, #248	; 0xf8
 8023f32:	40a5      	lsls	r5, r4
 8023f34:	ea26 0505 	bic.w	r5, r6, r5
 8023f38:	611d      	str	r5, [r3, #16]
 8023f3a:	6f46      	ldr	r6, [r0, #116]	; 0x74
 8023f3c:	004f      	lsls	r7, r1, #1
 8023f3e:	2503      	movs	r5, #3
 8023f40:	40bd      	lsls	r5, r7
 8023f42:	ea26 0505 	bic.w	r5, r6, r5
 8023f46:	6745      	str	r5, [r0, #116]	; 0x74
 8023f48:	4d16      	ldr	r5, [pc, #88]	; (8023fa4 <XMC_GPIO_Init+0x84>)
 8023f4a:	42a8      	cmp	r0, r5
 8023f4c:	d003      	beq.n	8023f56 <XMC_GPIO_Init+0x36>
 8023f4e:	f505 7580 	add.w	r5, r5, #256	; 0x100
 8023f52:	42a8      	cmp	r0, r5
 8023f54:	d107      	bne.n	8023f66 <XMC_GPIO_Init+0x46>
 8023f56:	6e05      	ldr	r5, [r0, #96]	; 0x60
 8023f58:	2601      	movs	r6, #1
 8023f5a:	fa06 f101 	lsl.w	r1, r6, r1
 8023f5e:	ea25 0101 	bic.w	r1, r5, r1
 8023f62:	6601      	str	r1, [r0, #96]	; 0x60
 8023f64:	e018      	b.n	8023f98 <XMC_GPIO_Init+0x78>
 8023f66:	f992 5000 	ldrsb.w	r5, [r2]
 8023f6a:	2d00      	cmp	r5, #0
 8023f6c:	da14      	bge.n	8023f98 <XMC_GPIO_Init+0x78>
 8023f6e:	6855      	ldr	r5, [r2, #4]
 8023f70:	408d      	lsls	r5, r1
 8023f72:	6045      	str	r5, [r0, #4]
 8023f74:	08cd      	lsrs	r5, r1, #3
 8023f76:	eb00 0085 	add.w	r0, r0, r5, lsl #2
 8023f7a:	f001 0107 	and.w	r1, r1, #7
 8023f7e:	6c06      	ldr	r6, [r0, #64]	; 0x40
 8023f80:	0089      	lsls	r1, r1, #2
 8023f82:	2507      	movs	r5, #7
 8023f84:	408d      	lsls	r5, r1
 8023f86:	ea26 0505 	bic.w	r5, r6, r5
 8023f8a:	6405      	str	r5, [r0, #64]	; 0x40
 8023f8c:	7a16      	ldrb	r6, [r2, #8]
 8023f8e:	6c05      	ldr	r5, [r0, #64]	; 0x40
 8023f90:	fa06 f101 	lsl.w	r1, r6, r1
 8023f94:	4329      	orrs	r1, r5
 8023f96:	6401      	str	r1, [r0, #64]	; 0x40
 8023f98:	7812      	ldrb	r2, [r2, #0]
 8023f9a:	6919      	ldr	r1, [r3, #16]
 8023f9c:	40a2      	lsls	r2, r4
 8023f9e:	430a      	orrs	r2, r1
 8023fa0:	611a      	str	r2, [r3, #16]
 8023fa2:	bdf0      	pop	{r4, r5, r6, r7, pc}
 8023fa4:	48028e00 	.word	0x48028e00

08023fa8 <XMC_SCU_lDelay>:
 8023fa8:	b510      	push	{r4, lr}
 8023faa:	4604      	mov	r4, r0
 8023fac:	f7fc f828 	bl	8020000 <SystemCoreClockUpdate>
 8023fb0:	4b06      	ldr	r3, [pc, #24]	; (8023fcc <XMC_SCU_lDelay+0x24>)
 8023fb2:	4807      	ldr	r0, [pc, #28]	; (8023fd0 <XMC_SCU_lDelay+0x28>)
 8023fb4:	681b      	ldr	r3, [r3, #0]
 8023fb6:	fbb3 f3f0 	udiv	r3, r3, r0
 8023fba:	fb03 f004 	mul.w	r0, r3, r4
 8023fbe:	2300      	movs	r3, #0
 8023fc0:	4283      	cmp	r3, r0
 8023fc2:	d002      	beq.n	8023fca <XMC_SCU_lDelay+0x22>
 8023fc4:	bf00      	nop
 8023fc6:	3301      	adds	r3, #1
 8023fc8:	e7fa      	b.n	8023fc0 <XMC_SCU_lDelay+0x18>
 8023fca:	bd10      	pop	{r4, pc}
 8023fcc:	2003ffc0 	.word	0x2003ffc0
 8023fd0:	000f4240 	.word	0x000f4240

08023fd4 <XMC_SCU_INTERRUPT_EnableNmiRequest>:
 8023fd4:	4a02      	ldr	r2, [pc, #8]	; (8023fe0 <XMC_SCU_INTERRUPT_EnableNmiRequest+0xc>)
 8023fd6:	6953      	ldr	r3, [r2, #20]
 8023fd8:	4318      	orrs	r0, r3
 8023fda:	6150      	str	r0, [r2, #20]
 8023fdc:	4770      	bx	lr
 8023fde:	bf00      	nop
 8023fe0:	50004074 	.word	0x50004074

08023fe4 <XMC_SCU_RESET_DeassertPeripheralReset>:
 8023fe4:	0f02      	lsrs	r2, r0, #28
 8023fe6:	230c      	movs	r3, #12
 8023fe8:	4353      	muls	r3, r2
 8023fea:	4a02      	ldr	r2, [pc, #8]	; (8023ff4 <XMC_SCU_RESET_DeassertPeripheralReset+0x10>)
 8023fec:	f020 4070 	bic.w	r0, r0, #4026531840	; 0xf0000000
 8023ff0:	5098      	str	r0, [r3, r2]
 8023ff2:	4770      	bx	lr
 8023ff4:	50004414 	.word	0x50004414

08023ff8 <XMC_SCU_RESET_IsPeripheralResetAsserted>:
 8023ff8:	f020 4270 	bic.w	r2, r0, #4026531840	; 0xf0000000
 8023ffc:	230c      	movs	r3, #12
 8023ffe:	0f00      	lsrs	r0, r0, #28
 8024000:	4358      	muls	r0, r3
 8024002:	f103 43a0 	add.w	r3, r3, #1342177280	; 0x50000000
 8024006:	f503 4388 	add.w	r3, r3, #17408	; 0x4400
 802400a:	58c3      	ldr	r3, [r0, r3]
 802400c:	421a      	tst	r2, r3
 802400e:	bf14      	ite	ne
 8024010:	2001      	movne	r0, #1
 8024012:	2000      	moveq	r0, #0
 8024014:	4770      	bx	lr
	...

08024018 <XMC_SCU_CLOCK_SetSystemClockSource>:
 8024018:	4a03      	ldr	r2, [pc, #12]	; (8024028 <XMC_SCU_CLOCK_SetSystemClockSource+0x10>)
 802401a:	68d3      	ldr	r3, [r2, #12]
 802401c:	f423 3380 	bic.w	r3, r3, #65536	; 0x10000
 8024020:	4318      	orrs	r0, r3
 8024022:	60d0      	str	r0, [r2, #12]
 8024024:	4770      	bx	lr
 8024026:	bf00      	nop
 8024028:	50004600 	.word	0x50004600

0802402c <XMC_SCU_CLOCK_SetUsbClockSource>:
 802402c:	4a03      	ldr	r2, [pc, #12]	; (802403c <XMC_SCU_CLOCK_SetUsbClockSource+0x10>)
 802402e:	6993      	ldr	r3, [r2, #24]
 8024030:	f423 3380 	bic.w	r3, r3, #65536	; 0x10000
 8024034:	4318      	orrs	r0, r3
 8024036:	6190      	str	r0, [r2, #24]
 8024038:	4770      	bx	lr
 802403a:	bf00      	nop
 802403c:	50004600 	.word	0x50004600

08024040 <XMC_SCU_CLOCK_SetWdtClockSource>:
 8024040:	4a03      	ldr	r2, [pc, #12]	; (8024050 <XMC_SCU_CLOCK_SetWdtClockSource+0x10>)
 8024042:	6a53      	ldr	r3, [r2, #36]	; 0x24
 8024044:	f423 3340 	bic.w	r3, r3, #196608	; 0x30000
 8024048:	4318      	orrs	r0, r3
 802404a:	6250      	str	r0, [r2, #36]	; 0x24
 802404c:	4770      	bx	lr
 802404e:	bf00      	nop
 8024050:	50004600 	.word	0x50004600

08024054 <XMC_SCU_CLOCK_SetSystemPllClockSource>:
 8024054:	4a06      	ldr	r2, [pc, #24]	; (8024070 <XMC_SCU_CLOCK_SetSystemPllClockSource+0x1c>)
 8024056:	68d3      	ldr	r3, [r2, #12]
 8024058:	b920      	cbnz	r0, 8024064 <XMC_SCU_CLOCK_SetSystemPllClockSource+0x10>
 802405a:	f423 7380 	bic.w	r3, r3, #256	; 0x100
 802405e:	f023 0301 	bic.w	r3, r3, #1
 8024062:	e003      	b.n	802406c <XMC_SCU_CLOCK_SetSystemPllClockSource+0x18>
 8024064:	f443 7380 	orr.w	r3, r3, #256	; 0x100
 8024068:	f043 0301 	orr.w	r3, r3, #1
 802406c:	60d3      	str	r3, [r2, #12]
 802406e:	4770      	bx	lr
 8024070:	50004710 	.word	0x50004710

08024074 <XMC_SCU_HIB_SetRtcClockSource>:
 8024074:	4b05      	ldr	r3, [pc, #20]	; (802408c <XMC_SCU_HIB_SetRtcClockSource+0x18>)
 8024076:	f8d3 30c4 	ldr.w	r3, [r3, #196]	; 0xc4
 802407a:	071b      	lsls	r3, r3, #28
 802407c:	d4fa      	bmi.n	8024074 <XMC_SCU_HIB_SetRtcClockSource>
 802407e:	4a04      	ldr	r2, [pc, #16]	; (8024090 <XMC_SCU_HIB_SetRtcClockSource+0x1c>)
 8024080:	68d3      	ldr	r3, [r2, #12]
 8024082:	f023 0340 	bic.w	r3, r3, #64	; 0x40
 8024086:	4318      	orrs	r0, r3
 8024088:	60d0      	str	r0, [r2, #12]
 802408a:	4770      	bx	lr
 802408c:	50004000 	.word	0x50004000
 8024090:	50004300 	.word	0x50004300

08024094 <XMC_SCU_HIB_SetStandbyClockSource>:
 8024094:	4b05      	ldr	r3, [pc, #20]	; (80240ac <XMC_SCU_HIB_SetStandbyClockSource+0x18>)
 8024096:	f8d3 30c4 	ldr.w	r3, [r3, #196]	; 0xc4
 802409a:	071b      	lsls	r3, r3, #28
 802409c:	d4fa      	bmi.n	8024094 <XMC_SCU_HIB_SetStandbyClockSource>
 802409e:	4a04      	ldr	r2, [pc, #16]	; (80240b0 <XMC_SCU_HIB_SetStandbyClockSource+0x1c>)
 80240a0:	68d3      	ldr	r3, [r2, #12]
 80240a2:	f023 0380 	bic.w	r3, r3, #128	; 0x80
 80240a6:	4318      	orrs	r0, r3
 80240a8:	60d0      	str	r0, [r2, #12]
 80240aa:	4770      	bx	lr
 80240ac:	50004000 	.word	0x50004000
 80240b0:	50004300 	.word	0x50004300

080240b4 <XMC_SCU_CLOCK_SetSystemClockDivider>:
 80240b4:	4a03      	ldr	r2, [pc, #12]	; (80240c4 <XMC_SCU_CLOCK_SetSystemClockDivider+0x10>)
 80240b6:	68d3      	ldr	r3, [r2, #12]
 80240b8:	3801      	subs	r0, #1
 80240ba:	f023 03ff 	bic.w	r3, r3, #255	; 0xff
 80240be:	4303      	orrs	r3, r0
 80240c0:	60d3      	str	r3, [r2, #12]
 80240c2:	4770      	bx	lr
 80240c4:	50004600 	.word	0x50004600

080240c8 <XMC_SCU_CLOCK_SetCcuClockDivider>:
 80240c8:	4a03      	ldr	r2, [pc, #12]	; (80240d8 <XMC_SCU_CLOCK_SetCcuClockDivider+0x10>)
 80240ca:	6a13      	ldr	r3, [r2, #32]
 80240cc:	3801      	subs	r0, #1
 80240ce:	f023 0301 	bic.w	r3, r3, #1
 80240d2:	4303      	orrs	r3, r0
 80240d4:	6213      	str	r3, [r2, #32]
 80240d6:	4770      	bx	lr
 80240d8:	50004600 	.word	0x50004600

080240dc <XMC_SCU_CLOCK_SetCpuClockDivider>:
 80240dc:	4a03      	ldr	r2, [pc, #12]	; (80240ec <XMC_SCU_CLOCK_SetCpuClockDivider+0x10>)
 80240de:	6913      	ldr	r3, [r2, #16]
 80240e0:	3801      	subs	r0, #1
 80240e2:	f023 0301 	bic.w	r3, r3, #1
 80240e6:	4303      	orrs	r3, r0
 80240e8:	6113      	str	r3, [r2, #16]
 80240ea:	4770      	bx	lr
 80240ec:	50004600 	.word	0x50004600

080240f0 <XMC_SCU_CLOCK_SetPeripheralClockDivider>:
 80240f0:	4a03      	ldr	r2, [pc, #12]	; (8024100 <XMC_SCU_CLOCK_SetPeripheralClockDivider+0x10>)
 80240f2:	6953      	ldr	r3, [r2, #20]
 80240f4:	3801      	subs	r0, #1
 80240f6:	f023 0301 	bic.w	r3, r3, #1
 80240fa:	4303      	orrs	r3, r0
 80240fc:	6153      	str	r3, [r2, #20]
 80240fe:	4770      	bx	lr
 8024100:	50004600 	.word	0x50004600

08024104 <XMC_SCU_CLOCK_SetUsbClockDivider>:
 8024104:	4a03      	ldr	r2, [pc, #12]	; (8024114 <XMC_SCU_CLOCK_SetUsbClockDivider+0x10>)
 8024106:	6993      	ldr	r3, [r2, #24]
 8024108:	3801      	subs	r0, #1
 802410a:	f023 0307 	bic.w	r3, r3, #7
 802410e:	4303      	orrs	r3, r0
 8024110:	6193      	str	r3, [r2, #24]
 8024112:	4770      	bx	lr
 8024114:	50004600 	.word	0x50004600

08024118 <XMC_SCU_CLOCK_SetEbuClockDivider>:
 8024118:	4a03      	ldr	r2, [pc, #12]	; (8024128 <XMC_SCU_CLOCK_SetEbuClockDivider+0x10>)
 802411a:	69d3      	ldr	r3, [r2, #28]
 802411c:	3801      	subs	r0, #1
 802411e:	f023 033f 	bic.w	r3, r3, #63	; 0x3f
 8024122:	4303      	orrs	r3, r0
 8024124:	61d3      	str	r3, [r2, #28]
 8024126:	4770      	bx	lr
 8024128:	50004600 	.word	0x50004600

0802412c <XMC_SCU_CLOCK_SetWdtClockDivider>:
 802412c:	4a03      	ldr	r2, [pc, #12]	; (802413c <XMC_SCU_CLOCK_SetWdtClockDivider+0x10>)
 802412e:	6a53      	ldr	r3, [r2, #36]	; 0x24
 8024130:	3801      	subs	r0, #1
 8024132:	f023 03ff 	bic.w	r3, r3, #255	; 0xff
 8024136:	4303      	orrs	r3, r0
 8024138:	6253      	str	r3, [r2, #36]	; 0x24
 802413a:	4770      	bx	lr
 802413c:	50004600 	.word	0x50004600

08024140 <XMC_SCU_CLOCK_SetECATClockDivider>:
 8024140:	4a03      	ldr	r2, [pc, #12]	; (8024150 <XMC_SCU_CLOCK_SetECATClockDivider+0x10>)
 8024142:	6b93      	ldr	r3, [r2, #56]	; 0x38
 8024144:	3801      	subs	r0, #1
 8024146:	f023 0303 	bic.w	r3, r3, #3
 802414a:	4303      	orrs	r3, r0
 802414c:	6393      	str	r3, [r2, #56]	; 0x38
 802414e:	4770      	bx	lr
 8024150:	50004600 	.word	0x50004600

08024154 <XMC_SCU_CLOCK_EnableClock>:
 8024154:	4b01      	ldr	r3, [pc, #4]	; (802415c <XMC_SCU_CLOCK_EnableClock+0x8>)
 8024156:	6058      	str	r0, [r3, #4]
 8024158:	4770      	bx	lr
 802415a:	bf00      	nop
 802415c:	50004600 	.word	0x50004600

08024160 <XMC_SCU_CLOCK_UngatePeripheralClock>:
 8024160:	0f02      	lsrs	r2, r0, #28
 8024162:	230c      	movs	r3, #12
 8024164:	4353      	muls	r3, r2
 8024166:	4a02      	ldr	r2, [pc, #8]	; (8024170 <XMC_SCU_CLOCK_UngatePeripheralClock+0x10>)
 8024168:	f020 4070 	bic.w	r0, r0, #4026531840	; 0xf0000000
 802416c:	5098      	str	r0, [r3, r2]
 802416e:	4770      	bx	lr
 8024170:	50004648 	.word	0x50004648

08024174 <XMC_SCU_CLOCK_StartUsbPll>:
 8024174:	4b0f      	ldr	r3, [pc, #60]	; (80241b4 <XMC_SCU_CLOCK_StartUsbPll+0x40>)
 8024176:	695a      	ldr	r2, [r3, #20]
 8024178:	f042 0201 	orr.w	r2, r2, #1
 802417c:	615a      	str	r2, [r3, #20]
 802417e:	695a      	ldr	r2, [r3, #20]
 8024180:	3801      	subs	r0, #1
 8024182:	3901      	subs	r1, #1
 8024184:	0600      	lsls	r0, r0, #24
 8024186:	f042 0210 	orr.w	r2, r2, #16
 802418a:	ea40 2101 	orr.w	r1, r0, r1, lsl #8
 802418e:	615a      	str	r2, [r3, #20]
 8024190:	6159      	str	r1, [r3, #20]
 8024192:	695a      	ldr	r2, [r3, #20]
 8024194:	f042 0240 	orr.w	r2, r2, #64	; 0x40
 8024198:	615a      	str	r2, [r3, #20]
 802419a:	695a      	ldr	r2, [r3, #20]
 802419c:	f022 0210 	bic.w	r2, r2, #16
 80241a0:	615a      	str	r2, [r3, #20]
 80241a2:	695a      	ldr	r2, [r3, #20]
 80241a4:	f442 2280 	orr.w	r2, r2, #262144	; 0x40000
 80241a8:	615a      	str	r2, [r3, #20]
 80241aa:	691a      	ldr	r2, [r3, #16]
 80241ac:	0752      	lsls	r2, r2, #29
 80241ae:	d5fc      	bpl.n	80241aa <XMC_SCU_CLOCK_StartUsbPll+0x36>
 80241b0:	4770      	bx	lr
 80241b2:	bf00      	nop
 80241b4:	50004710 	.word	0x50004710

080241b8 <XMC_SCU_CLOCK_SetBackupClockCalibrationMode>:
 80241b8:	b510      	push	{r4, lr}
 80241ba:	4c0b      	ldr	r4, [pc, #44]	; (80241e8 <XMC_SCU_CLOCK_SetBackupClockCalibrationMode+0x30>)
 80241bc:	6863      	ldr	r3, [r4, #4]
 80241be:	2801      	cmp	r0, #1
 80241c0:	f443 1380 	orr.w	r3, r3, #1048576	; 0x100000
 80241c4:	6063      	str	r3, [r4, #4]
 80241c6:	d10a      	bne.n	80241de <XMC_SCU_CLOCK_SetBackupClockCalibrationMode+0x26>
 80241c8:	6863      	ldr	r3, [r4, #4]
 80241ca:	f423 1380 	bic.w	r3, r3, #1048576	; 0x100000
 80241ce:	6063      	str	r3, [r4, #4]
 80241d0:	2064      	movs	r0, #100	; 0x64
 80241d2:	f7ff fee9 	bl	8023fa8 <XMC_SCU_lDelay>
 80241d6:	6863      	ldr	r3, [r4, #4]
 80241d8:	f443 2300 	orr.w	r3, r3, #524288	; 0x80000
 80241dc:	6063      	str	r3, [r4, #4]
 80241de:	2064      	movs	r0, #100	; 0x64
 80241e0:	e8bd 4010 	ldmia.w	sp!, {r4, lr}
 80241e4:	f7ff bee0 	b.w	8023fa8 <XMC_SCU_lDelay>
 80241e8:	50004710 	.word	0x50004710

080241ec <XMC_SCU_HIB_EnableHibernateDomain>:
 80241ec:	4b0a      	ldr	r3, [pc, #40]	; (8024218 <XMC_SCU_HIB_EnableHibernateDomain+0x2c>)
 80241ee:	681a      	ldr	r2, [r3, #0]
 80241f0:	07d2      	lsls	r2, r2, #31
 80241f2:	d504      	bpl.n	80241fe <XMC_SCU_HIB_EnableHibernateDomain+0x12>
 80241f4:	4b09      	ldr	r3, [pc, #36]	; (802421c <XMC_SCU_HIB_EnableHibernateDomain+0x30>)
 80241f6:	681a      	ldr	r2, [r3, #0]
 80241f8:	0590      	lsls	r0, r2, #22
 80241fa:	d406      	bmi.n	802420a <XMC_SCU_HIB_EnableHibernateDomain+0x1e>
 80241fc:	4770      	bx	lr
 80241fe:	2201      	movs	r2, #1
 8024200:	605a      	str	r2, [r3, #4]
 8024202:	681a      	ldr	r2, [r3, #0]
 8024204:	07d1      	lsls	r1, r2, #31
 8024206:	d5fc      	bpl.n	8024202 <XMC_SCU_HIB_EnableHibernateDomain+0x16>
 8024208:	e7f4      	b.n	80241f4 <XMC_SCU_HIB_EnableHibernateDomain+0x8>
 802420a:	f44f 7200 	mov.w	r2, #512	; 0x200
 802420e:	609a      	str	r2, [r3, #8]
 8024210:	681a      	ldr	r2, [r3, #0]
 8024212:	0592      	lsls	r2, r2, #22
 8024214:	d4fc      	bmi.n	8024210 <XMC_SCU_HIB_EnableHibernateDomain+0x24>
 8024216:	4770      	bx	lr
 8024218:	50004200 	.word	0x50004200
 802421c:	50004400 	.word	0x50004400

08024220 <XMC_SCU_CLOCK_IsLowPowerOscillatorStable>:
 8024220:	4b03      	ldr	r3, [pc, #12]	; (8024230 <XMC_SCU_CLOCK_IsLowPowerOscillatorStable+0x10>)
 8024222:	6818      	ldr	r0, [r3, #0]
 8024224:	f080 0008 	eor.w	r0, r0, #8
 8024228:	f3c0 00c0 	ubfx	r0, r0, #3, #1
 802422c:	4770      	bx	lr
 802422e:	bf00      	nop
 8024230:	50004300 	.word	0x50004300

08024234 <XMC_SCU_CLOCK_EnableLowPowerOscillator>:
 8024234:	4b10      	ldr	r3, [pc, #64]	; (8024278 <XMC_SCU_CLOCK_EnableLowPowerOscillator+0x44>)
 8024236:	f44f 0200 	mov.w	r2, #8388608	; 0x800000
 802423a:	60da      	str	r2, [r3, #12]
 802423c:	4a0f      	ldr	r2, [pc, #60]	; (802427c <XMC_SCU_CLOCK_EnableLowPowerOscillator+0x48>)
 802423e:	69d1      	ldr	r1, [r2, #28]
 8024240:	f021 0130 	bic.w	r1, r1, #48	; 0x30
 8024244:	61d1      	str	r1, [r2, #28]
 8024246:	6859      	ldr	r1, [r3, #4]
 8024248:	0208      	lsls	r0, r1, #8
 802424a:	d5fc      	bpl.n	8024246 <XMC_SCU_CLOCK_EnableLowPowerOscillator+0x12>
 802424c:	490a      	ldr	r1, [pc, #40]	; (8024278 <XMC_SCU_CLOCK_EnableLowPowerOscillator+0x44>)
 802424e:	f44f 3000 	mov.w	r0, #131072	; 0x20000
 8024252:	60c8      	str	r0, [r1, #12]
 8024254:	2108      	movs	r1, #8
 8024256:	6051      	str	r1, [r2, #4]
 8024258:	685a      	ldr	r2, [r3, #4]
 802425a:	0391      	lsls	r1, r2, #14
 802425c:	d5fc      	bpl.n	8024258 <XMC_SCU_CLOCK_EnableLowPowerOscillator+0x24>
 802425e:	4a06      	ldr	r2, [pc, #24]	; (8024278 <XMC_SCU_CLOCK_EnableLowPowerOscillator+0x44>)
 8024260:	f44f 2100 	mov.w	r1, #524288	; 0x80000
 8024264:	60d1      	str	r1, [r2, #12]
 8024266:	4905      	ldr	r1, [pc, #20]	; (802427c <XMC_SCU_CLOCK_EnableLowPowerOscillator+0x48>)
 8024268:	68ca      	ldr	r2, [r1, #12]
 802426a:	f042 0208 	orr.w	r2, r2, #8
 802426e:	60ca      	str	r2, [r1, #12]
 8024270:	685a      	ldr	r2, [r3, #4]
 8024272:	0312      	lsls	r2, r2, #12
 8024274:	d5fc      	bpl.n	8024270 <XMC_SCU_CLOCK_EnableLowPowerOscillator+0x3c>
 8024276:	4770      	bx	lr
 8024278:	50004074 	.word	0x50004074
 802427c:	50004300 	.word	0x50004300

08024280 <XMC_SCU_CLOCK_EnableHighPerformanceOscillator>:
 8024280:	b570      	push	{r4, r5, r6, lr}
 8024282:	4d0c      	ldr	r5, [pc, #48]	; (80242b4 <XMC_SCU_CLOCK_EnableHighPerformanceOscillator+0x34>)
 8024284:	4e0c      	ldr	r6, [pc, #48]	; (80242b8 <XMC_SCU_CLOCK_EnableHighPerformanceOscillator+0x38>)
 8024286:	686b      	ldr	r3, [r5, #4]
 8024288:	f423 3380 	bic.w	r3, r3, #65536	; 0x10000
 802428c:	606b      	str	r3, [r5, #4]
 802428e:	6874      	ldr	r4, [r6, #4]
 8024290:	f001 fb22 	bl	80258d8 <OSCHP_GetFrequency>
 8024294:	4b09      	ldr	r3, [pc, #36]	; (80242bc <XMC_SCU_CLOCK_EnableHighPerformanceOscillator+0x3c>)
 8024296:	fbb0 f0f3 	udiv	r0, r0, r3
 802429a:	f424 2370 	bic.w	r3, r4, #983040	; 0xf0000
 802429e:	3801      	subs	r0, #1
 80242a0:	f023 0330 	bic.w	r3, r3, #48	; 0x30
 80242a4:	ea43 4300 	orr.w	r3, r3, r0, lsl #16
 80242a8:	6073      	str	r3, [r6, #4]
 80242aa:	686b      	ldr	r3, [r5, #4]
 80242ac:	f423 3300 	bic.w	r3, r3, #131072	; 0x20000
 80242b0:	606b      	str	r3, [r5, #4]
 80242b2:	bd70      	pop	{r4, r5, r6, pc}
 80242b4:	50004710 	.word	0x50004710
 80242b8:	50004700 	.word	0x50004700
 80242bc:	002625a0 	.word	0x002625a0

080242c0 <XMC_SCU_CLOCK_IsHighPerformanceOscillatorStable>:
 80242c0:	4b04      	ldr	r3, [pc, #16]	; (80242d4 <XMC_SCU_CLOCK_IsHighPerformanceOscillatorStable+0x14>)
 80242c2:	6818      	ldr	r0, [r3, #0]
 80242c4:	f400 7060 	and.w	r0, r0, #896	; 0x380
 80242c8:	f5a0 7360 	sub.w	r3, r0, #896	; 0x380
 80242cc:	4258      	negs	r0, r3
 80242ce:	4158      	adcs	r0, r3
 80242d0:	4770      	bx	lr
 80242d2:	bf00      	nop
 80242d4:	50004710 	.word	0x50004710

080242d8 <XMC_SCU_CLOCK_EnableSystemPll>:
 80242d8:	4a03      	ldr	r2, [pc, #12]	; (80242e8 <XMC_SCU_CLOCK_EnableSystemPll+0x10>)
 80242da:	6853      	ldr	r3, [r2, #4]
 80242dc:	f423 3380 	bic.w	r3, r3, #65536	; 0x10000
 80242e0:	f023 0302 	bic.w	r3, r3, #2
 80242e4:	6053      	str	r3, [r2, #4]
 80242e6:	4770      	bx	lr
 80242e8:	50004710 	.word	0x50004710

080242ec <XMC_SCU_CLOCK_DisableSystemPll>:
 80242ec:	4a03      	ldr	r2, [pc, #12]	; (80242fc <XMC_SCU_CLOCK_DisableSystemPll+0x10>)
 80242ee:	6853      	ldr	r3, [r2, #4]
 80242f0:	f443 3380 	orr.w	r3, r3, #65536	; 0x10000
 80242f4:	f043 0302 	orr.w	r3, r3, #2
 80242f8:	6053      	str	r3, [r2, #4]
 80242fa:	4770      	bx	lr
 80242fc:	50004710 	.word	0x50004710

08024300 <XMC_SCU_CLOCK_StepSystemPllFrequency>:
 8024300:	4a05      	ldr	r2, [pc, #20]	; (8024318 <XMC_SCU_CLOCK_StepSystemPllFrequency+0x18>)
 8024302:	6893      	ldr	r3, [r2, #8]
 8024304:	3801      	subs	r0, #1
 8024306:	f423 03fe 	bic.w	r3, r3, #8323072	; 0x7f0000
 802430a:	ea43 4300 	orr.w	r3, r3, r0, lsl #16
 802430e:	6093      	str	r3, [r2, #8]
 8024310:	2032      	movs	r0, #50	; 0x32
 8024312:	f7ff be49 	b.w	8023fa8 <XMC_SCU_lDelay>
 8024316:	bf00      	nop
 8024318:	50004710 	.word	0x50004710

0802431c <XMC_SCU_CLOCK_StartSystemPll>:
 802431c:	e92d 41f0 	stmdb	sp!, {r4, r5, r6, r7, r8, lr}
 8024320:	460c      	mov	r4, r1
 8024322:	4605      	mov	r5, r0
 8024324:	4690      	mov	r8, r2
 8024326:	461f      	mov	r7, r3
 8024328:	9e06      	ldr	r6, [sp, #24]
 802432a:	f7ff fe93 	bl	8024054 <XMC_SCU_CLOCK_SetSystemPllClockSource>
 802432e:	2c01      	cmp	r4, #1
 8024330:	4c31      	ldr	r4, [pc, #196]	; (80243f8 <XMC_SCU_CLOCK_StartSystemPll+0xdc>)
 8024332:	d152      	bne.n	80243da <XMC_SCU_CLOCK_StartSystemPll+0xbe>
 8024334:	b935      	cbnz	r5, 8024344 <XMC_SCU_CLOCK_StartSystemPll+0x28>
 8024336:	f001 facf 	bl	80258d8 <OSCHP_GetFrequency>
 802433a:	4d30      	ldr	r5, [pc, #192]	; (80243fc <XMC_SCU_CLOCK_StartSystemPll+0xe0>)
 802433c:	fbb0 f0f5 	udiv	r0, r0, r5
 8024340:	0580      	lsls	r0, r0, #22
 8024342:	e001      	b.n	8024348 <XMC_SCU_CLOCK_StartSystemPll+0x2c>
 8024344:	f04f 60c0 	mov.w	r0, #100663296	; 0x6000000
 8024348:	6863      	ldr	r3, [r4, #4]
 802434a:	f043 0301 	orr.w	r3, r3, #1
 802434e:	6063      	str	r3, [r4, #4]
 8024350:	6863      	ldr	r3, [r4, #4]
 8024352:	f043 0310 	orr.w	r3, r3, #16
 8024356:	6063      	str	r3, [r4, #4]
 8024358:	68a1      	ldr	r1, [r4, #8]
 802435a:	4b29      	ldr	r3, [pc, #164]	; (8024400 <XMC_SCU_CLOCK_StartSystemPll+0xe4>)
 802435c:	f108 32ff 	add.w	r2, r8, #4294967295
 8024360:	400b      	ands	r3, r1
 8024362:	ea43 6302 	orr.w	r3, r3, r2, lsl #24
 8024366:	1e7a      	subs	r2, r7, #1
 8024368:	ea43 2202 	orr.w	r2, r3, r2, lsl #8
 802436c:	4378      	muls	r0, r7
 802436e:	2318      	movs	r3, #24
 8024370:	fbb0 f5f8 	udiv	r5, r0, r8
 8024374:	fbb5 f3f3 	udiv	r3, r5, r3
 8024378:	0d9b      	lsrs	r3, r3, #22
 802437a:	3b01      	subs	r3, #1
 802437c:	ea42 4303 	orr.w	r3, r2, r3, lsl #16
 8024380:	60a3      	str	r3, [r4, #8]
 8024382:	6863      	ldr	r3, [r4, #4]
 8024384:	f043 0340 	orr.w	r3, r3, #64	; 0x40
 8024388:	6063      	str	r3, [r4, #4]
 802438a:	6863      	ldr	r3, [r4, #4]
 802438c:	f023 0310 	bic.w	r3, r3, #16
 8024390:	6063      	str	r3, [r4, #4]
 8024392:	6863      	ldr	r3, [r4, #4]
 8024394:	f443 2380 	orr.w	r3, r3, #262144	; 0x40000
 8024398:	6063      	str	r3, [r4, #4]
 802439a:	6823      	ldr	r3, [r4, #0]
 802439c:	4a16      	ldr	r2, [pc, #88]	; (80243f8 <XMC_SCU_CLOCK_StartSystemPll+0xdc>)
 802439e:	0759      	lsls	r1, r3, #29
 80243a0:	d5fb      	bpl.n	802439a <XMC_SCU_CLOCK_StartSystemPll+0x7e>
 80243a2:	6853      	ldr	r3, [r2, #4]
 80243a4:	f023 0301 	bic.w	r3, r3, #1
 80243a8:	6053      	str	r3, [r2, #4]
 80243aa:	6823      	ldr	r3, [r4, #0]
 80243ac:	07da      	lsls	r2, r3, #31
 80243ae:	d4fc      	bmi.n	80243aa <XMC_SCU_CLOCK_StartSystemPll+0x8e>
 80243b0:	203c      	movs	r0, #60	; 0x3c
 80243b2:	fbb5 f0f0 	udiv	r0, r5, r0
 80243b6:	0d80      	lsrs	r0, r0, #22
 80243b8:	4286      	cmp	r6, r0
 80243ba:	d201      	bcs.n	80243c0 <XMC_SCU_CLOCK_StartSystemPll+0xa4>
 80243bc:	f7ff ffa0 	bl	8024300 <XMC_SCU_CLOCK_StepSystemPllFrequency>
 80243c0:	205a      	movs	r0, #90	; 0x5a
 80243c2:	fbb5 f0f0 	udiv	r0, r5, r0
 80243c6:	0d80      	lsrs	r0, r0, #22
 80243c8:	4286      	cmp	r6, r0
 80243ca:	d201      	bcs.n	80243d0 <XMC_SCU_CLOCK_StartSystemPll+0xb4>
 80243cc:	f7ff ff98 	bl	8024300 <XMC_SCU_CLOCK_StepSystemPllFrequency>
 80243d0:	4630      	mov	r0, r6
 80243d2:	e8bd 41f0 	ldmia.w	sp!, {r4, r5, r6, r7, r8, lr}
 80243d6:	f7ff bf93 	b.w	8024300 <XMC_SCU_CLOCK_StepSystemPllFrequency>
 80243da:	68a3      	ldr	r3, [r4, #8]
 80243dc:	3e01      	subs	r6, #1
 80243de:	f023 037f 	bic.w	r3, r3, #127	; 0x7f
 80243e2:	431e      	orrs	r6, r3
 80243e4:	60a6      	str	r6, [r4, #8]
 80243e6:	6863      	ldr	r3, [r4, #4]
 80243e8:	f043 0301 	orr.w	r3, r3, #1
 80243ec:	6063      	str	r3, [r4, #4]
 80243ee:	6823      	ldr	r3, [r4, #0]
 80243f0:	07db      	lsls	r3, r3, #31
 80243f2:	d5fc      	bpl.n	80243ee <XMC_SCU_CLOCK_StartSystemPll+0xd2>
 80243f4:	e8bd 81f0 	ldmia.w	sp!, {r4, r5, r6, r7, r8, pc}
 80243f8:	50004710 	.word	0x50004710
 80243fc:	000f4240 	.word	0x000f4240
 8024400:	f08080ff 	.word	0xf08080ff

08024404 <XMC_SCU_CLOCK_Init>:
 8024404:	b537      	push	{r0, r1, r2, r4, r5, lr}
 8024406:	4604      	mov	r4, r0
 8024408:	2000      	movs	r0, #0
 802440a:	f7ff fe05 	bl	8024018 <XMC_SCU_CLOCK_SetSystemClockSource>
 802440e:	f7ff feed 	bl	80241ec <XMC_SCU_HIB_EnableHibernateDomain>
 8024412:	79e3      	ldrb	r3, [r4, #7]
 8024414:	b91b      	cbnz	r3, 802441e <XMC_SCU_CLOCK_Init+0x1a>
 8024416:	7a60      	ldrb	r0, [r4, #9]
 8024418:	f7ff fe3c 	bl	8024094 <XMC_SCU_HIB_SetStandbyClockSource>
 802441c:	e006      	b.n	802442c <XMC_SCU_CLOCK_Init+0x28>
 802441e:	f7ff ff09 	bl	8024234 <XMC_SCU_CLOCK_EnableLowPowerOscillator>
 8024422:	f7ff fefd 	bl	8024220 <XMC_SCU_CLOCK_IsLowPowerOscillatorStable>
 8024426:	2800      	cmp	r0, #0
 8024428:	d0fb      	beq.n	8024422 <XMC_SCU_CLOCK_Init+0x1e>
 802442a:	e7f4      	b.n	8024416 <XMC_SCU_CLOCK_Init+0x12>
 802442c:	4b1b      	ldr	r3, [pc, #108]	; (802449c <XMC_SCU_CLOCK_Init+0x98>)
 802442e:	f8d3 30c4 	ldr.w	r3, [r3, #196]	; 0xc4
 8024432:	2b00      	cmp	r3, #0
 8024434:	d1fa      	bne.n	802442c <XMC_SCU_CLOCK_Init+0x28>
 8024436:	7a20      	ldrb	r0, [r4, #8]
 8024438:	f7ff febe 	bl	80241b8 <XMC_SCU_CLOCK_SetBackupClockCalibrationMode>
 802443c:	7c20      	ldrb	r0, [r4, #16]
 802443e:	f7ff fe39 	bl	80240b4 <XMC_SCU_CLOCK_SetSystemClockDivider>
 8024442:	7c60      	ldrb	r0, [r4, #17]
 8024444:	f7ff fe4a 	bl	80240dc <XMC_SCU_CLOCK_SetCpuClockDivider>
 8024448:	7ca0      	ldrb	r0, [r4, #18]
 802444a:	f7ff fe3d 	bl	80240c8 <XMC_SCU_CLOCK_SetCcuClockDivider>
 802444e:	7ce0      	ldrb	r0, [r4, #19]
 8024450:	f7ff fe4e 	bl	80240f0 <XMC_SCU_CLOCK_SetPeripheralClockDivider>
 8024454:	79a3      	ldrb	r3, [r4, #6]
 8024456:	b923      	cbnz	r3, 8024462 <XMC_SCU_CLOCK_Init+0x5e>
 8024458:	78e3      	ldrb	r3, [r4, #3]
 802445a:	b94b      	cbnz	r3, 8024470 <XMC_SCU_CLOCK_Init+0x6c>
 802445c:	f7ff ff46 	bl	80242ec <XMC_SCU_CLOCK_DisableSystemPll>
 8024460:	e010      	b.n	8024484 <XMC_SCU_CLOCK_Init+0x80>
 8024462:	f7ff ff0d 	bl	8024280 <XMC_SCU_CLOCK_EnableHighPerformanceOscillator>
 8024466:	f7ff ff2b 	bl	80242c0 <XMC_SCU_CLOCK_IsHighPerformanceOscillatorStable>
 802446a:	2800      	cmp	r0, #0
 802446c:	d0fb      	beq.n	8024466 <XMC_SCU_CLOCK_Init+0x62>
 802446e:	e7f3      	b.n	8024458 <XMC_SCU_CLOCK_Init+0x54>
 8024470:	f7ff ff32 	bl	80242d8 <XMC_SCU_CLOCK_EnableSystemPll>
 8024474:	78a5      	ldrb	r5, [r4, #2]
 8024476:	88a0      	ldrh	r0, [r4, #4]
 8024478:	78e1      	ldrb	r1, [r4, #3]
 802447a:	7862      	ldrb	r2, [r4, #1]
 802447c:	7823      	ldrb	r3, [r4, #0]
 802447e:	9500      	str	r5, [sp, #0]
 8024480:	f7ff ff4c 	bl	802431c <XMC_SCU_CLOCK_StartSystemPll>
 8024484:	68e0      	ldr	r0, [r4, #12]
 8024486:	f5b0 3f80 	cmp.w	r0, #65536	; 0x10000
 802448a:	d101      	bne.n	8024490 <XMC_SCU_CLOCK_Init+0x8c>
 802448c:	f7ff fdc4 	bl	8024018 <XMC_SCU_CLOCK_SetSystemClockSource>
 8024490:	b003      	add	sp, #12
 8024492:	e8bd 4030 	ldmia.w	sp!, {r4, r5, lr}
 8024496:	f7fb bdb3 	b.w	8020000 <SystemCoreClockUpdate>
 802449a:	bf00      	nop
 802449c:	50004000 	.word	0x50004000

080244a0 <XMC_CCU4_EnableModule>:
 80244a0:	b510      	push	{r4, lr}
 80244a2:	4604      	mov	r4, r0
 80244a4:	2010      	movs	r0, #16
 80244a6:	f7ff fe55 	bl	8024154 <XMC_SCU_CLOCK_EnableClock>
 80244aa:	4b12      	ldr	r3, [pc, #72]	; (80244f4 <XMC_CCU4_EnableModule+0x54>)
 80244ac:	429c      	cmp	r4, r3
 80244ae:	d104      	bne.n	80244ba <XMC_CCU4_EnableModule+0x1a>
 80244b0:	2004      	movs	r0, #4
 80244b2:	f7ff fe55 	bl	8024160 <XMC_SCU_CLOCK_UngatePeripheralClock>
 80244b6:	2004      	movs	r0, #4
 80244b8:	e016      	b.n	80244e8 <XMC_CCU4_EnableModule+0x48>
 80244ba:	4b0f      	ldr	r3, [pc, #60]	; (80244f8 <XMC_CCU4_EnableModule+0x58>)
 80244bc:	429c      	cmp	r4, r3
 80244be:	d104      	bne.n	80244ca <XMC_CCU4_EnableModule+0x2a>
 80244c0:	2008      	movs	r0, #8
 80244c2:	f7ff fe4d 	bl	8024160 <XMC_SCU_CLOCK_UngatePeripheralClock>
 80244c6:	2008      	movs	r0, #8
 80244c8:	e00e      	b.n	80244e8 <XMC_CCU4_EnableModule+0x48>
 80244ca:	4b0c      	ldr	r3, [pc, #48]	; (80244fc <XMC_CCU4_EnableModule+0x5c>)
 80244cc:	429c      	cmp	r4, r3
 80244ce:	d104      	bne.n	80244da <XMC_CCU4_EnableModule+0x3a>
 80244d0:	2010      	movs	r0, #16
 80244d2:	f7ff fe45 	bl	8024160 <XMC_SCU_CLOCK_UngatePeripheralClock>
 80244d6:	2010      	movs	r0, #16
 80244d8:	e006      	b.n	80244e8 <XMC_CCU4_EnableModule+0x48>
 80244da:	4b09      	ldr	r3, [pc, #36]	; (8024500 <XMC_CCU4_EnableModule+0x60>)
 80244dc:	429c      	cmp	r4, r3
 80244de:	d107      	bne.n	80244f0 <XMC_CCU4_EnableModule+0x50>
 80244e0:	4808      	ldr	r0, [pc, #32]	; (8024504 <XMC_CCU4_EnableModule+0x64>)
 80244e2:	f7ff fe3d 	bl	8024160 <XMC_SCU_CLOCK_UngatePeripheralClock>
 80244e6:	4807      	ldr	r0, [pc, #28]	; (8024504 <XMC_CCU4_EnableModule+0x64>)
 80244e8:	e8bd 4010 	ldmia.w	sp!, {r4, lr}
 80244ec:	f7ff bd7a 	b.w	8023fe4 <XMC_SCU_RESET_DeassertPeripheralReset>
 80244f0:	bd10      	pop	{r4, pc}
 80244f2:	bf00      	nop
 80244f4:	4000c000 	.word	0x4000c000
 80244f8:	40010000 	.word	0x40010000
 80244fc:	40014000 	.word	0x40014000
 8024500:	48004000 	.word	0x48004000
 8024504:	10000001 	.word	0x10000001

08024508 <XMC_CCU4_Init>:
 8024508:	b538      	push	{r3, r4, r5, lr}
 802450a:	4604      	mov	r4, r0
 802450c:	460d      	mov	r5, r1
 802450e:	f7ff ffc7 	bl	80244a0 <XMC_CCU4_EnableModule>
 8024512:	f44f 7380 	mov.w	r3, #256	; 0x100
 8024516:	60e3      	str	r3, [r4, #12]
 8024518:	6823      	ldr	r3, [r4, #0]
 802451a:	f423 4340 	bic.w	r3, r3, #49152	; 0xc000
 802451e:	ea43 3185 	orr.w	r1, r3, r5, lsl #14
 8024522:	6021      	str	r1, [r4, #0]
 8024524:	bd38      	pop	{r3, r4, r5, pc}

08024526 <XMC_CCU4_SLICE_CompareInit>:
 8024526:	680b      	ldr	r3, [r1, #0]
 8024528:	6143      	str	r3, [r0, #20]
 802452a:	794b      	ldrb	r3, [r1, #5]
 802452c:	f3c3 1340 	ubfx	r3, r3, #5, #1
 8024530:	051b      	lsls	r3, r3, #20
 8024532:	6043      	str	r3, [r0, #4]
 8024534:	790b      	ldrb	r3, [r1, #4]
 8024536:	f003 030f 	and.w	r3, r3, #15
 802453a:	6243      	str	r3, [r0, #36]	; 0x24
 802453c:	794b      	ldrb	r3, [r1, #5]
 802453e:	f003 030f 	and.w	r3, r3, #15
 8024542:	6203      	str	r3, [r0, #32]
 8024544:	794b      	ldrb	r3, [r1, #5]
 8024546:	f3c3 1300 	ubfx	r3, r3, #4, #1
 802454a:	6183      	str	r3, [r0, #24]
 802454c:	790b      	ldrb	r3, [r1, #4]
 802454e:	091b      	lsrs	r3, r3, #4
 8024550:	62c3      	str	r3, [r0, #44]	; 0x2c
 8024552:	4770      	bx	lr

08024554 <XMC_CCU4_SLICE_SetInterruptNode>:
 8024554:	2909      	cmp	r1, #9
 8024556:	b530      	push	{r4, r5, lr}
 8024558:	bf9c      	itt	ls
 802455a:	4c09      	ldrls	r4, [pc, #36]	; (8024580 <XMC_CCU4_SLICE_SetInterruptNode+0x2c>)
 802455c:	4d09      	ldrls	r5, [pc, #36]	; (8024584 <XMC_CCU4_SLICE_SetInterruptNode+0x30>)
 802455e:	f8d0 30a8 	ldr.w	r3, [r0, #168]	; 0xa8
 8024562:	bf99      	ittee	ls
 8024564:	5c64      	ldrbls	r4, [r4, r1]
 8024566:	f835 1011 	ldrhls.w	r1, [r5, r1, lsl #1]
 802456a:	f44f 5140 	movhi.w	r1, #12288	; 0x3000
 802456e:	240c      	movhi	r4, #12
 8024570:	ea23 0301 	bic.w	r3, r3, r1
 8024574:	40a2      	lsls	r2, r4
 8024576:	431a      	orrs	r2, r3
 8024578:	f8c0 20a8 	str.w	r2, [r0, #168]	; 0xa8
 802457c:	bd30      	pop	{r4, r5, pc}
 802457e:	bf00      	nop
 8024580:	0802634c 	.word	0x0802634c
 8024584:	08026356 	.word	0x08026356

08024588 <XMC_CCU8_EnableModule>:
 8024588:	b510      	push	{r4, lr}
 802458a:	4604      	mov	r4, r0
 802458c:	2010      	movs	r0, #16
 802458e:	f7ff fde1 	bl	8024154 <XMC_SCU_CLOCK_EnableClock>
 8024592:	4b0b      	ldr	r3, [pc, #44]	; (80245c0 <XMC_CCU8_EnableModule+0x38>)
 8024594:	429c      	cmp	r4, r3
 8024596:	d104      	bne.n	80245a2 <XMC_CCU8_EnableModule+0x1a>
 8024598:	2080      	movs	r0, #128	; 0x80
 802459a:	f7ff fde1 	bl	8024160 <XMC_SCU_CLOCK_UngatePeripheralClock>
 802459e:	2080      	movs	r0, #128	; 0x80
 80245a0:	e008      	b.n	80245b4 <XMC_CCU8_EnableModule+0x2c>
 80245a2:	4b08      	ldr	r3, [pc, #32]	; (80245c4 <XMC_CCU8_EnableModule+0x3c>)
 80245a4:	429c      	cmp	r4, r3
 80245a6:	d109      	bne.n	80245bc <XMC_CCU8_EnableModule+0x34>
 80245a8:	f44f 7080 	mov.w	r0, #256	; 0x100
 80245ac:	f7ff fdd8 	bl	8024160 <XMC_SCU_CLOCK_UngatePeripheralClock>
 80245b0:	f44f 7080 	mov.w	r0, #256	; 0x100
 80245b4:	e8bd 4010 	ldmia.w	sp!, {r4, lr}
 80245b8:	f7ff bd14 	b.w	8023fe4 <XMC_SCU_RESET_DeassertPeripheralReset>
 80245bc:	bd10      	pop	{r4, pc}
 80245be:	bf00      	nop
 80245c0:	40020000 	.word	0x40020000
 80245c4:	40024000 	.word	0x40024000

080245c8 <XMC_CCU8_Init>:
 80245c8:	b538      	push	{r3, r4, r5, lr}
 80245ca:	4604      	mov	r4, r0
 80245cc:	460d      	mov	r5, r1
 80245ce:	f7ff ffdb 	bl	8024588 <XMC_CCU8_EnableModule>
 80245d2:	f44f 7380 	mov.w	r3, #256	; 0x100
 80245d6:	60e3      	str	r3, [r4, #12]
 80245d8:	6823      	ldr	r3, [r4, #0]
 80245da:	f423 4340 	bic.w	r3, r3, #49152	; 0xc000
 80245de:	ea43 3185 	orr.w	r1, r3, r5, lsl #14
 80245e2:	6021      	str	r1, [r4, #0]
 80245e4:	bd38      	pop	{r3, r4, r5, pc}

080245e6 <XMC_CCU8_SLICE_CompareInit>:
 80245e6:	2301      	movs	r3, #1
 80245e8:	6103      	str	r3, [r0, #16]
 80245ea:	680b      	ldr	r3, [r1, #0]
 80245ec:	6143      	str	r3, [r0, #20]
 80245ee:	7b4b      	ldrb	r3, [r1, #13]
 80245f0:	f3c3 1300 	ubfx	r3, r3, #4, #1
 80245f4:	051b      	lsls	r3, r3, #20
 80245f6:	6043      	str	r3, [r0, #4]
 80245f8:	7b0b      	ldrb	r3, [r1, #12]
 80245fa:	f003 030f 	and.w	r3, r3, #15
 80245fe:	6243      	str	r3, [r0, #36]	; 0x24
 8024600:	7b0b      	ldrb	r3, [r1, #12]
 8024602:	091b      	lsrs	r3, r3, #4
 8024604:	62c3      	str	r3, [r0, #44]	; 0x2c
 8024606:	7b4b      	ldrb	r3, [r1, #13]
 8024608:	f003 030f 	and.w	r3, r3, #15
 802460c:	6203      	str	r3, [r0, #32]
 802460e:	684b      	ldr	r3, [r1, #4]
 8024610:	6183      	str	r3, [r0, #24]
 8024612:	688b      	ldr	r3, [r1, #8]
 8024614:	f083 0314 	eor.w	r3, r3, #20
 8024618:	6483      	str	r3, [r0, #72]	; 0x48
 802461a:	4770      	bx	lr

0802461c <XMC_CCU8_SetMultiChannelShadowTransferMode>:
 802461c:	6803      	ldr	r3, [r0, #0]
 802461e:	ea23 4311 	bic.w	r3, r3, r1, lsr #16
 8024622:	b289      	uxth	r1, r1
 8024624:	4319      	orrs	r1, r3
 8024626:	6001      	str	r1, [r0, #0]
 8024628:	4770      	bx	lr

0802462a <XMC_CCU8_SLICE_StartConfig>:
 802462a:	6843      	ldr	r3, [r0, #4]
 802462c:	f023 0303 	bic.w	r3, r3, #3
 8024630:	4319      	orrs	r1, r3
 8024632:	6041      	str	r1, [r0, #4]
 8024634:	6943      	ldr	r3, [r0, #20]
 8024636:	2a01      	cmp	r2, #1
 8024638:	bf0c      	ite	eq
 802463a:	f443 6380 	orreq.w	r3, r3, #1024	; 0x400
 802463e:	f423 6380 	bicne.w	r3, r3, #1024	; 0x400
 8024642:	6143      	str	r3, [r0, #20]
 8024644:	4770      	bx	lr

08024646 <XMC_CCU8_SLICE_StopConfig>:
 8024646:	6843      	ldr	r3, [r0, #4]
 8024648:	f023 030c 	bic.w	r3, r3, #12
 802464c:	ea43 0181 	orr.w	r1, r3, r1, lsl #2
 8024650:	6041      	str	r1, [r0, #4]
 8024652:	6943      	ldr	r3, [r0, #20]
 8024654:	f423 7340 	bic.w	r3, r3, #768	; 0x300
 8024658:	ea43 2202 	orr.w	r2, r3, r2, lsl #8
 802465c:	6142      	str	r2, [r0, #20]
 802465e:	4770      	bx	lr

08024660 <XMC_CCU8_SLICE_LoadConfig>:
 8024660:	6843      	ldr	r3, [r0, #4]
 8024662:	f423 5340 	bic.w	r3, r3, #12288	; 0x3000
 8024666:	ea43 3101 	orr.w	r1, r3, r1, lsl #12
 802466a:	6041      	str	r1, [r0, #4]
 802466c:	4770      	bx	lr

0802466e <XMC_CCU8_SLICE_LoadSelector>:
 802466e:	6943      	ldr	r3, [r0, #20]
 8024670:	f023 0380 	bic.w	r3, r3, #128	; 0x80
 8024674:	ea43 11c1 	orr.w	r1, r3, r1, lsl #7
 8024678:	6141      	str	r1, [r0, #20]
 802467a:	4770      	bx	lr

0802467c <XMC_CCU8_SLICE_ModulationConfig>:
 802467c:	b510      	push	{r4, lr}
 802467e:	6844      	ldr	r4, [r0, #4]
 8024680:	f424 2440 	bic.w	r4, r4, #786432	; 0xc0000
 8024684:	ea44 4181 	orr.w	r1, r4, r1, lsl #18
 8024688:	6041      	str	r1, [r0, #4]
 802468a:	6941      	ldr	r1, [r0, #20]
 802468c:	2a01      	cmp	r2, #1
 802468e:	bf0c      	ite	eq
 8024690:	f041 7280 	orreq.w	r2, r1, #16777216	; 0x1000000
 8024694:	f021 7280 	bicne.w	r2, r1, #16777216	; 0x1000000
 8024698:	f89d 1008 	ldrb.w	r1, [sp, #8]
 802469c:	b111      	cbz	r1, 80246a4 <XMC_CCU8_SLICE_ModulationConfig+0x28>
 802469e:	f442 0200 	orr.w	r2, r2, #8388608	; 0x800000
 80246a2:	e001      	b.n	80246a8 <XMC_CCU8_SLICE_ModulationConfig+0x2c>
 80246a4:	f422 0200 	bic.w	r2, r2, #8388608	; 0x800000
 80246a8:	f022 52c0 	bic.w	r2, r2, #402653184	; 0x18000000
 80246ac:	ea42 62c3 	orr.w	r2, r2, r3, lsl #27
 80246b0:	6142      	str	r2, [r0, #20]
 80246b2:	bd10      	pop	{r4, pc}

080246b4 <XMC_CCU8_SLICE_CountConfig>:
 80246b4:	6843      	ldr	r3, [r0, #4]
 80246b6:	f423 4340 	bic.w	r3, r3, #49152	; 0xc000
 80246ba:	ea43 3181 	orr.w	r1, r3, r1, lsl #14
 80246be:	6041      	str	r1, [r0, #4]
 80246c0:	4770      	bx	lr

080246c2 <XMC_CCU8_SLICE_GateConfig>:
 80246c2:	6843      	ldr	r3, [r0, #4]
 80246c4:	f423 7340 	bic.w	r3, r3, #768	; 0x300
 80246c8:	ea43 2101 	orr.w	r1, r3, r1, lsl #8
 80246cc:	6041      	str	r1, [r0, #4]
 80246ce:	4770      	bx	lr

080246d0 <XMC_CCU8_SLICE_DirectionConfig>:
 80246d0:	6843      	ldr	r3, [r0, #4]
 80246d2:	f423 6340 	bic.w	r3, r3, #3072	; 0xc00
 80246d6:	ea43 2181 	orr.w	r1, r3, r1, lsl #10
 80246da:	6041      	str	r1, [r0, #4]
 80246dc:	4770      	bx	lr

080246de <XMC_CCU8_SLICE_StatusBitOverrideConfig>:
 80246de:	6843      	ldr	r3, [r0, #4]
 80246e0:	f443 3380 	orr.w	r3, r3, #65536	; 0x10000
 80246e4:	6043      	str	r3, [r0, #4]
 80246e6:	4770      	bx	lr

080246e8 <XMC_CCU8_SLICE_TrapConfig>:
 80246e8:	6843      	ldr	r3, [r0, #4]
 80246ea:	f443 3300 	orr.w	r3, r3, #131072	; 0x20000
 80246ee:	6043      	str	r3, [r0, #4]
 80246f0:	6943      	ldr	r3, [r0, #20]
 80246f2:	b112      	cbz	r2, 80246fa <XMC_CCU8_SLICE_TrapConfig+0x12>
 80246f4:	f443 1300 	orr.w	r3, r3, #2097152	; 0x200000
 80246f8:	e001      	b.n	80246fe <XMC_CCU8_SLICE_TrapConfig+0x16>
 80246fa:	f423 1300 	bic.w	r3, r3, #2097152	; 0x200000
 80246fe:	2901      	cmp	r1, #1
 8024700:	bf0c      	ite	eq
 8024702:	f443 0380 	orreq.w	r3, r3, #4194304	; 0x400000
 8024706:	f423 0380 	bicne.w	r3, r3, #4194304	; 0x400000
 802470a:	6143      	str	r3, [r0, #20]
 802470c:	4770      	bx	lr

0802470e <XMC_CCU8_SLICE_ConfigureStatusBitOverrideEvent>:
 802470e:	6803      	ldr	r3, [r0, #0]
 8024710:	b510      	push	{r4, lr}
 8024712:	784c      	ldrb	r4, [r1, #1]
 8024714:	f423 2340 	bic.w	r3, r3, #786432	; 0xc0000
 8024718:	ea43 4384 	orr.w	r3, r3, r4, lsl #18
 802471c:	7854      	ldrb	r4, [r2, #1]
 802471e:	f423 1340 	bic.w	r3, r3, #3145728	; 0x300000
 8024722:	ea43 5304 	orr.w	r3, r3, r4, lsl #20
 8024726:	788c      	ldrb	r4, [r1, #2]
 8024728:	f423 0300 	bic.w	r3, r3, #8388608	; 0x800000
 802472c:	ea43 53c4 	orr.w	r3, r3, r4, lsl #23
 8024730:	7894      	ldrb	r4, [r2, #2]
 8024732:	f023 7380 	bic.w	r3, r3, #16777216	; 0x1000000
 8024736:	ea43 6304 	orr.w	r3, r3, r4, lsl #24
 802473a:	78cc      	ldrb	r4, [r1, #3]
 802473c:	7809      	ldrb	r1, [r1, #0]
 802473e:	f023 53c0 	bic.w	r3, r3, #402653184	; 0x18000000
 8024742:	ea43 63c4 	orr.w	r3, r3, r4, lsl #27
 8024746:	78d4      	ldrb	r4, [r2, #3]
 8024748:	7812      	ldrb	r2, [r2, #0]
 802474a:	f023 43c0 	bic.w	r3, r3, #1610612736	; 0x60000000
 802474e:	ea43 7344 	orr.w	r3, r3, r4, lsl #29
 8024752:	f023 03f0 	bic.w	r3, r3, #240	; 0xf0
 8024756:	ea43 1301 	orr.w	r3, r3, r1, lsl #4
 802475a:	f423 6370 	bic.w	r3, r3, #3840	; 0xf00
 802475e:	ea43 2302 	orr.w	r3, r3, r2, lsl #8
 8024762:	6003      	str	r3, [r0, #0]
 8024764:	bd10      	pop	{r4, pc}

08024766 <XMC_CCU8_SLICE_ConfigureEvent>:
 8024766:	b5f0      	push	{r4, r5, r6, r7, lr}
 8024768:	1e4c      	subs	r4, r1, #1
 802476a:	b2e4      	uxtb	r4, r4
 802476c:	0066      	lsls	r6, r4, #1
 802476e:	b2f6      	uxtb	r6, r6
 8024770:	f106 0c10 	add.w	ip, r6, #16
 8024774:	6805      	ldr	r5, [r0, #0]
 8024776:	7857      	ldrb	r7, [r2, #1]
 8024778:	fa5f fc8c 	uxtb.w	ip, ip
 802477c:	2303      	movs	r3, #3
 802477e:	fa03 fe0c 	lsl.w	lr, r3, ip
 8024782:	3115      	adds	r1, #21
 8024784:	fa07 f70c 	lsl.w	r7, r7, ip
 8024788:	ea25 0e0e 	bic.w	lr, r5, lr
 802478c:	fa5f fc81 	uxtb.w	ip, r1
 8024790:	2501      	movs	r5, #1
 8024792:	fa05 f50c 	lsl.w	r5, r5, ip
 8024796:	ea4e 0e07 	orr.w	lr, lr, r7
 802479a:	ea2e 0705 	bic.w	r7, lr, r5
 802479e:	7895      	ldrb	r5, [r2, #2]
 80247a0:	3619      	adds	r6, #25
 80247a2:	b2f6      	uxtb	r6, r6
 80247a4:	fa05 f50c 	lsl.w	r5, r5, ip
 80247a8:	40b3      	lsls	r3, r6
 80247aa:	433d      	orrs	r5, r7
 80247ac:	ea25 0103 	bic.w	r1, r5, r3
 80247b0:	78d3      	ldrb	r3, [r2, #3]
 80247b2:	7812      	ldrb	r2, [r2, #0]
 80247b4:	40b3      	lsls	r3, r6
 80247b6:	00a4      	lsls	r4, r4, #2
 80247b8:	4319      	orrs	r1, r3
 80247ba:	b2e4      	uxtb	r4, r4
 80247bc:	230f      	movs	r3, #15
 80247be:	40a3      	lsls	r3, r4
 80247c0:	ea21 0303 	bic.w	r3, r1, r3
 80247c4:	40a2      	lsls	r2, r4
 80247c6:	4313      	orrs	r3, r2
 80247c8:	6003      	str	r3, [r0, #0]
 80247ca:	bdf0      	pop	{r4, r5, r6, r7, pc}

080247cc <XMC_CCU8_SLICE_SetTimerPeriodMatch>:
 80247cc:	6341      	str	r1, [r0, #52]	; 0x34
 80247ce:	4770      	bx	lr

080247d0 <XMC_CCU8_SLICE_SetTimerCompareMatch>:
 80247d0:	b909      	cbnz	r1, 80247d6 <XMC_CCU8_SLICE_SetTimerCompareMatch+0x6>
 80247d2:	63c2      	str	r2, [r0, #60]	; 0x3c
 80247d4:	4770      	bx	lr
 80247d6:	6442      	str	r2, [r0, #68]	; 0x44
 80247d8:	4770      	bx	lr
	...

080247dc <XMC_CCU8_SLICE_SetInterruptNode>:
 80247dc:	2909      	cmp	r1, #9
 80247de:	b530      	push	{r4, r5, lr}
 80247e0:	bf9c      	itt	ls
 80247e2:	4c09      	ldrls	r4, [pc, #36]	; (8024808 <XMC_CCU8_SLICE_SetInterruptNode+0x2c>)
 80247e4:	4d09      	ldrls	r5, [pc, #36]	; (802480c <XMC_CCU8_SLICE_SetInterruptNode+0x30>)
 80247e6:	f8d0 30a8 	ldr.w	r3, [r0, #168]	; 0xa8
 80247ea:	bf99      	ittee	ls
 80247ec:	f834 4011 	ldrhls.w	r4, [r4, r1, lsl #1]
 80247f0:	5c69      	ldrbls	r1, [r5, r1]
 80247f2:	210c      	movhi	r1, #12
 80247f4:	f44f 5440 	movhi.w	r4, #12288	; 0x3000
 80247f8:	ea23 0304 	bic.w	r3, r3, r4
 80247fc:	408a      	lsls	r2, r1
 80247fe:	431a      	orrs	r2, r3
 8024800:	f8c0 20a8 	str.w	r2, [r0, #168]	; 0xa8
 8024804:	bd30      	pop	{r4, r5, pc}
 8024806:	bf00      	nop
 8024808:	0802636a 	.word	0x0802636a
 802480c:	0802637e 	.word	0x0802637e

08024810 <XMC_CCU8_SLICE_DeadTimeInit>:
 8024810:	684b      	ldr	r3, [r1, #4]
 8024812:	6503      	str	r3, [r0, #80]	; 0x50
 8024814:	688b      	ldr	r3, [r1, #8]
 8024816:	6543      	str	r3, [r0, #84]	; 0x54
 8024818:	680b      	ldr	r3, [r1, #0]
 802481a:	64c3      	str	r3, [r0, #76]	; 0x4c
 802481c:	4770      	bx	lr
	...

08024820 <XMC_ECAT_Enable>:
 8024820:	4806      	ldr	r0, [pc, #24]	; (802483c <XMC_ECAT_Enable+0x1c>)
 8024822:	b508      	push	{r3, lr}
 8024824:	f7ff fc9c 	bl	8024160 <XMC_SCU_CLOCK_UngatePeripheralClock>
 8024828:	4804      	ldr	r0, [pc, #16]	; (802483c <XMC_ECAT_Enable+0x1c>)
 802482a:	f7ff fbdb 	bl	8023fe4 <XMC_SCU_RESET_DeassertPeripheralReset>
 802482e:	4803      	ldr	r0, [pc, #12]	; (802483c <XMC_ECAT_Enable+0x1c>)
 8024830:	f7ff fbe2 	bl	8023ff8 <XMC_SCU_RESET_IsPeripheralResetAsserted>
 8024834:	2800      	cmp	r0, #0
 8024836:	d1fa      	bne.n	802482e <XMC_ECAT_Enable+0xe>
 8024838:	bd08      	pop	{r3, pc}
 802483a:	bf00      	nop
 802483c:	20000400 	.word	0x20000400

08024840 <XMC_ECAT_Init>:
 8024840:	b510      	push	{r4, lr}
 8024842:	4604      	mov	r4, r0
 8024844:	f7ff ffec 	bl	8024820 <XMC_ECAT_Enable>
 8024848:	4b0f      	ldr	r3, [pc, #60]	; (8024888 <XMC_ECAT_Init+0x48>)
 802484a:	6822      	ldr	r2, [r4, #0]
 802484c:	f8c3 2508 	str.w	r2, [r3, #1288]	; 0x508
 8024850:	6862      	ldr	r2, [r4, #4]
 8024852:	f8c3 250c 	str.w	r2, [r3, #1292]	; 0x50c
 8024856:	f8b3 2502 	ldrh.w	r2, [r3, #1282]	; 0x502
 802485a:	b292      	uxth	r2, r2
 802485c:	f442 6280 	orr.w	r2, r2, #1024	; 0x400
 8024860:	f8a3 2502 	strh.w	r2, [r3, #1282]	; 0x502
 8024864:	68a2      	ldr	r2, [r4, #8]
 8024866:	f8c3 2508 	str.w	r2, [r3, #1288]	; 0x508
 802486a:	68e2      	ldr	r2, [r4, #12]
 802486c:	f8c3 250c 	str.w	r2, [r3, #1292]	; 0x50c
 8024870:	f8b3 2502 	ldrh.w	r2, [r3, #1282]	; 0x502
 8024874:	b292      	uxth	r2, r2
 8024876:	f442 6280 	orr.w	r2, r2, #1024	; 0x400
 802487a:	f8a3 2502 	strh.w	r2, [r3, #1282]	; 0x502
 802487e:	f8b3 2502 	ldrh.w	r2, [r3, #1282]	; 0x502
 8024882:	04d2      	lsls	r2, r2, #19
 8024884:	d4fb      	bmi.n	802487e <XMC_ECAT_Init+0x3e>
 8024886:	bd10      	pop	{r4, pc}
 8024888:	54010000 	.word	0x54010000

0802488c <XMC_ECAT_DisableEvent>:
 802488c:	4a03      	ldr	r2, [pc, #12]	; (802489c <XMC_ECAT_DisableEvent+0x10>)
 802488e:	f8d2 3204 	ldr.w	r3, [r2, #516]	; 0x204
 8024892:	ea23 0000 	bic.w	r0, r3, r0
 8024896:	f8c2 0204 	str.w	r0, [r2, #516]	; 0x204
 802489a:	4770      	bx	lr
 802489c:	54010000 	.word	0x54010000

080248a0 <XMC_ECAT_DisableSyncManChannel>:
 80248a0:	00c0      	lsls	r0, r0, #3
 80248a2:	f100 40a8 	add.w	r0, r0, #1409286144	; 0x54000000
 80248a6:	f500 3084 	add.w	r0, r0, #67584	; 0x10800
 80248aa:	79c3      	ldrb	r3, [r0, #7]
 80248ac:	f043 0301 	orr.w	r3, r3, #1
 80248b0:	71c3      	strb	r3, [r0, #7]
 80248b2:	4770      	bx	lr

080248b4 <XMC_ERU_ETL_Init>:
 80248b4:	b570      	push	{r4, r5, r6, lr}
 80248b6:	4605      	mov	r5, r0
 80248b8:	460c      	mov	r4, r1
 80248ba:	4616      	mov	r6, r2
 80248bc:	f7ff fac0 	bl	8023e40 <XMC_ERU_Enable>
 80248c0:	6828      	ldr	r0, [r5, #0]
 80248c2:	00a2      	lsls	r2, r4, #2
 80248c4:	230f      	movs	r3, #15
 80248c6:	4093      	lsls	r3, r2
 80248c8:	ea20 0103 	bic.w	r1, r0, r3
 80248cc:	6833      	ldr	r3, [r6, #0]
 80248ce:	4093      	lsls	r3, r2
 80248d0:	430b      	orrs	r3, r1
 80248d2:	602b      	str	r3, [r5, #0]
 80248d4:	3404      	adds	r4, #4
 80248d6:	6873      	ldr	r3, [r6, #4]
 80248d8:	f845 3024 	str.w	r3, [r5, r4, lsl #2]
 80248dc:	bd70      	pop	{r4, r5, r6, pc}

080248de <XMC_ERU_OGU_Init>:
 80248de:	b570      	push	{r4, r5, r6, lr}
 80248e0:	460c      	mov	r4, r1
 80248e2:	4616      	mov	r6, r2
 80248e4:	4605      	mov	r5, r0
 80248e6:	3408      	adds	r4, #8
 80248e8:	f7ff faaa 	bl	8023e40 <XMC_ERU_Enable>
 80248ec:	6833      	ldr	r3, [r6, #0]
 80248ee:	f845 3024 	str.w	r3, [r5, r4, lsl #2]
 80248f2:	bd70      	pop	{r4, r5, r6, pc}

080248f4 <XMC_FCE_Init>:
 80248f4:	6803      	ldr	r3, [r0, #0]
 80248f6:	6842      	ldr	r2, [r0, #4]
 80248f8:	609a      	str	r2, [r3, #8]
 80248fa:	6882      	ldr	r2, [r0, #8]
 80248fc:	619a      	str	r2, [r3, #24]
 80248fe:	2000      	movs	r0, #0
 8024900:	4770      	bx	lr
	...

08024904 <XMC_FCE_Enable>:
 8024904:	b510      	push	{r4, lr}
 8024906:	4c06      	ldr	r4, [pc, #24]	; (8024920 <XMC_FCE_Enable+0x1c>)
 8024908:	4620      	mov	r0, r4
 802490a:	f7ff fc29 	bl	8024160 <XMC_SCU_CLOCK_UngatePeripheralClock>
 802490e:	4620      	mov	r0, r4
 8024910:	f7ff fb68 	bl	8023fe4 <XMC_SCU_RESET_DeassertPeripheralReset>
 8024914:	4a03      	ldr	r2, [pc, #12]	; (8024924 <XMC_FCE_Enable+0x20>)
 8024916:	6813      	ldr	r3, [r2, #0]
 8024918:	f023 0301 	bic.w	r3, r3, #1
 802491c:	6013      	str	r3, [r2, #0]
 802491e:	bd10      	pop	{r4, pc}
 8024920:	20000040 	.word	0x20000040
 8024924:	50020000 	.word	0x50020000

08024928 <XMC_FCE_CalculateCRC32>:
 8024928:	b530      	push	{r4, r5, lr}
 802492a:	b162      	cbz	r2, 8024946 <XMC_FCE_CalculateCRC32+0x1e>
 802492c:	0794      	lsls	r4, r2, #30
 802492e:	d10a      	bne.n	8024946 <XMC_FCE_CalculateCRC32+0x1e>
 8024930:	6805      	ldr	r5, [r0, #0]
 8024932:	460c      	mov	r4, r1
 8024934:	f854 0b04 	ldr.w	r0, [r4], #4
 8024938:	6028      	str	r0, [r5, #0]
 802493a:	1b10      	subs	r0, r2, r4
 802493c:	1808      	adds	r0, r1, r0
 802493e:	d1f9      	bne.n	8024934 <XMC_FCE_CalculateCRC32+0xc>
 8024940:	69aa      	ldr	r2, [r5, #24]
 8024942:	601a      	str	r2, [r3, #0]
 8024944:	bd30      	pop	{r4, r5, pc}
 8024946:	2002      	movs	r0, #2
 8024948:	bd30      	pop	{r4, r5, pc}

0802494a <XMC_GPIO_SetMode>:
 802494a:	f001 03fc 	and.w	r3, r1, #252	; 0xfc
 802494e:	4418      	add	r0, r3
 8024950:	f001 0103 	and.w	r1, r1, #3
 8024954:	b510      	push	{r4, lr}
 8024956:	00c9      	lsls	r1, r1, #3
 8024958:	6904      	ldr	r4, [r0, #16]
 802495a:	23f8      	movs	r3, #248	; 0xf8
 802495c:	408b      	lsls	r3, r1
 802495e:	ea24 0303 	bic.w	r3, r4, r3
 8024962:	6103      	str	r3, [r0, #16]
 8024964:	6903      	ldr	r3, [r0, #16]
 8024966:	408a      	lsls	r2, r1
 8024968:	4313      	orrs	r3, r2
 802496a:	6103      	str	r3, [r0, #16]
 802496c:	bd10      	pop	{r4, pc}

0802496e <XMC_GPIO_SetHardwareControl>:
 802496e:	6f43      	ldr	r3, [r0, #116]	; 0x74
 8024970:	0049      	lsls	r1, r1, #1
 8024972:	b510      	push	{r4, lr}
 8024974:	2403      	movs	r4, #3
 8024976:	408c      	lsls	r4, r1
 8024978:	ea23 0304 	bic.w	r3, r3, r4
 802497c:	6743      	str	r3, [r0, #116]	; 0x74
 802497e:	6f43      	ldr	r3, [r0, #116]	; 0x74
 8024980:	408a      	lsls	r2, r1
 8024982:	4313      	orrs	r3, r2
 8024984:	6743      	str	r3, [r0, #116]	; 0x74
 8024986:	bd10      	pop	{r4, pc}

08024988 <_sbrk>:
 8024988:	b508      	push	{r3, lr}
 802498a:	4b0c      	ldr	r3, [pc, #48]	; (80249bc <_sbrk+0x34>)
 802498c:	681a      	ldr	r2, [r3, #0]
 802498e:	b90a      	cbnz	r2, 8024994 <_sbrk+0xc>
 8024990:	4a0b      	ldr	r2, [pc, #44]	; (80249c0 <_sbrk+0x38>)
 8024992:	601a      	str	r2, [r3, #0]
 8024994:	681a      	ldr	r2, [r3, #0]
 8024996:	490b      	ldr	r1, [pc, #44]	; (80249c4 <_sbrk+0x3c>)
 8024998:	1cc3      	adds	r3, r0, #3
 802499a:	f023 0303 	bic.w	r3, r3, #3
 802499e:	4413      	add	r3, r2
 80249a0:	428b      	cmp	r3, r1
 80249a2:	d203      	bcs.n	80249ac <_sbrk+0x24>
 80249a4:	4905      	ldr	r1, [pc, #20]	; (80249bc <_sbrk+0x34>)
 80249a6:	4610      	mov	r0, r2
 80249a8:	600b      	str	r3, [r1, #0]
 80249aa:	bd08      	pop	{r3, pc}
 80249ac:	f001 f8c2 	bl	8025b34 <__errno>
 80249b0:	230c      	movs	r3, #12
 80249b2:	6003      	str	r3, [r0, #0]
 80249b4:	f04f 30ff 	mov.w	r0, #4294967295
 80249b8:	bd08      	pop	{r3, pc}
 80249ba:	bf00      	nop
 80249bc:	1ffe94b4 	.word	0x1ffe94b4
 80249c0:	20000000 	.word	0x20000000
 80249c4:	2003ffc0 	.word	0x2003ffc0

080249c8 <_init>:
 80249c8:	4770      	bx	lr

080249ca <TIMER_Start>:
 80249ca:	f890 3026 	ldrb.w	r3, [r0, #38]	; 0x26
 80249ce:	b133      	cbz	r3, 80249de <TIMER_Start+0x14>
 80249d0:	f890 3021 	ldrb.w	r3, [r0, #33]	; 0x21
 80249d4:	b92b      	cbnz	r3, 80249e2 <TIMER_Start+0x18>
 80249d6:	6942      	ldr	r2, [r0, #20]
 80249d8:	2101      	movs	r1, #1
 80249da:	60d1      	str	r1, [r2, #12]
 80249dc:	e001      	b.n	80249e2 <TIMER_Start+0x18>
 80249de:	2001      	movs	r0, #1
 80249e0:	4770      	bx	lr
 80249e2:	2000      	movs	r0, #0
 80249e4:	4770      	bx	lr

080249e6 <TIMER_CCU4_lShadowTransfer>:
 80249e6:	6943      	ldr	r3, [r0, #20]
 80249e8:	8c42      	ldrh	r2, [r0, #34]	; 0x22
 80249ea:	635a      	str	r2, [r3, #52]	; 0x34
 80249ec:	2200      	movs	r2, #0
 80249ee:	63da      	str	r2, [r3, #60]	; 0x3c
 80249f0:	6903      	ldr	r3, [r0, #16]
 80249f2:	68c2      	ldr	r2, [r0, #12]
 80249f4:	689b      	ldr	r3, [r3, #8]
 80249f6:	611a      	str	r2, [r3, #16]
 80249f8:	4770      	bx	lr

080249fa <TIMER_CCU4_lInit>:
 80249fa:	b538      	push	{r3, r4, r5, lr}
 80249fc:	4604      	mov	r4, r0
 80249fe:	6900      	ldr	r0, [r0, #16]
 8024a00:	f000 fb16 	bl	8025030 <GLOBAL_CCU4_Init>
 8024a04:	6923      	ldr	r3, [r4, #16]
 8024a06:	7e21      	ldrb	r1, [r4, #24]
 8024a08:	689a      	ldr	r2, [r3, #8]
 8024a0a:	2301      	movs	r3, #1
 8024a0c:	408b      	lsls	r3, r1
 8024a0e:	60d3      	str	r3, [r2, #12]
 8024a10:	69e1      	ldr	r1, [r4, #28]
 8024a12:	4605      	mov	r5, r0
 8024a14:	6960      	ldr	r0, [r4, #20]
 8024a16:	f7ff fd86 	bl	8024526 <XMC_CCU4_SLICE_CompareInit>
 8024a1a:	4620      	mov	r0, r4
 8024a1c:	f7ff ffe3 	bl	80249e6 <TIMER_CCU4_lShadowTransfer>
 8024a20:	f894 3025 	ldrb.w	r3, [r4, #37]	; 0x25
 8024a24:	b163      	cbz	r3, 8024a40 <TIMER_CCU4_lInit+0x46>
 8024a26:	f894 2020 	ldrb.w	r2, [r4, #32]
 8024a2a:	6960      	ldr	r0, [r4, #20]
 8024a2c:	2100      	movs	r1, #0
 8024a2e:	f7ff fd91 	bl	8024554 <XMC_CCU4_SLICE_SetInterruptNode>
 8024a32:	6962      	ldr	r2, [r4, #20]
 8024a34:	f8d2 30a4 	ldr.w	r3, [r2, #164]	; 0xa4
 8024a38:	f043 0301 	orr.w	r3, r3, #1
 8024a3c:	f8c2 30a4 	str.w	r3, [r2, #164]	; 0xa4
 8024a40:	6963      	ldr	r3, [r4, #20]
 8024a42:	f894 1024 	ldrb.w	r1, [r4, #36]	; 0x24
 8024a46:	2202      	movs	r2, #2
 8024a48:	611a      	str	r2, [r3, #16]
 8024a4a:	2201      	movs	r2, #1
 8024a4c:	f884 2026 	strb.w	r2, [r4, #38]	; 0x26
 8024a50:	b101      	cbz	r1, 8024a54 <TIMER_CCU4_lInit+0x5a>
 8024a52:	60da      	str	r2, [r3, #12]
 8024a54:	4628      	mov	r0, r5
 8024a56:	bd38      	pop	{r3, r4, r5, pc}

08024a58 <TIMER_Init>:
 8024a58:	f890 2026 	ldrb.w	r2, [r0, #38]	; 0x26
 8024a5c:	b922      	cbnz	r2, 8024a68 <TIMER_Init+0x10>
 8024a5e:	f890 3021 	ldrb.w	r3, [r0, #33]	; 0x21
 8024a62:	b90b      	cbnz	r3, 8024a68 <TIMER_Init+0x10>
 8024a64:	f7ff bfc9 	b.w	80249fa <TIMER_CCU4_lInit>
 8024a68:	2000      	movs	r0, #0
 8024a6a:	4770      	bx	lr

08024a6c <SYSTIMER_lInsertTimerList>:
 8024a6c:	b5f0      	push	{r4, r5, r6, r7, lr}
 8024a6e:	4922      	ldr	r1, [pc, #136]	; (8024af8 <SYSTIMER_lInsertTimerList+0x8c>)
 8024a70:	4c22      	ldr	r4, [pc, #136]	; (8024afc <SYSTIMER_lInsertTimerList+0x90>)
 8024a72:	2224      	movs	r2, #36	; 0x24
 8024a74:	fb02 1200 	mla	r2, r2, r0, r1
 8024a78:	6823      	ldr	r3, [r4, #0]
 8024a7a:	6995      	ldr	r5, [r2, #24]
 8024a7c:	4626      	mov	r6, r4
 8024a7e:	b90b      	cbnz	r3, 8024a84 <SYSTIMER_lInsertTimerList+0x18>
 8024a80:	6022      	str	r2, [r4, #0]
 8024a82:	bdf0      	pop	{r4, r5, r6, r7, pc}
 8024a84:	461c      	mov	r4, r3
 8024a86:	699a      	ldr	r2, [r3, #24]
 8024a88:	1aad      	subs	r5, r5, r2
 8024a8a:	2d00      	cmp	r5, #0
 8024a8c:	dc22      	bgt.n	8024ad4 <SYSTIMER_lInsertTimerList+0x68>
 8024a8e:	f8d3 e004 	ldr.w	lr, [r3, #4]
 8024a92:	2224      	movs	r2, #36	; 0x24
 8024a94:	4342      	muls	r2, r0
 8024a96:	f1be 0f00 	cmp.w	lr, #0
 8024a9a:	d008      	beq.n	8024aae <SYSTIMER_lInsertTimerList+0x42>
 8024a9c:	188f      	adds	r7, r1, r2
 8024a9e:	f8ce 7000 	str.w	r7, [lr]
 8024aa2:	508b      	str	r3, [r1, r2]
 8024aa4:	f8c7 e004 	str.w	lr, [r7, #4]
 8024aa8:	4622      	mov	r2, r4
 8024aaa:	605f      	str	r7, [r3, #4]
 8024aac:	e002      	b.n	8024ab4 <SYSTIMER_lInsertTimerList+0x48>
 8024aae:	508c      	str	r4, [r1, r2]
 8024ab0:	440a      	add	r2, r1
 8024ab2:	6062      	str	r2, [r4, #4]
 8024ab4:	2424      	movs	r4, #36	; 0x24
 8024ab6:	4344      	muls	r4, r0
 8024ab8:	190f      	adds	r7, r1, r4
 8024aba:	f851 e004 	ldr.w	lr, [r1, r4]
 8024abe:	f8de 4018 	ldr.w	r4, [lr, #24]
 8024ac2:	442c      	add	r4, r5
 8024ac4:	61bc      	str	r4, [r7, #24]
 8024ac6:	f8de 7018 	ldr.w	r7, [lr, #24]
 8024aca:	1b3c      	subs	r4, r7, r4
 8024acc:	f8ce 4018 	str.w	r4, [lr, #24]
 8024ad0:	4614      	mov	r4, r2
 8024ad2:	e007      	b.n	8024ae4 <SYSTIMER_lInsertTimerList+0x78>
 8024ad4:	681a      	ldr	r2, [r3, #0]
 8024ad6:	b93a      	cbnz	r2, 8024ae8 <SYSTIMER_lInsertTimerList+0x7c>
 8024ad8:	2224      	movs	r2, #36	; 0x24
 8024ada:	fb02 1200 	mla	r2, r2, r0, r1
 8024ade:	6053      	str	r3, [r2, #4]
 8024ae0:	601a      	str	r2, [r3, #0]
 8024ae2:	6195      	str	r5, [r2, #24]
 8024ae4:	2201      	movs	r2, #1
 8024ae6:	e000      	b.n	8024aea <SYSTIMER_lInsertTimerList+0x7e>
 8024ae8:	2200      	movs	r2, #0
 8024aea:	681b      	ldr	r3, [r3, #0]
 8024aec:	b10b      	cbz	r3, 8024af2 <SYSTIMER_lInsertTimerList+0x86>
 8024aee:	2a00      	cmp	r2, #0
 8024af0:	d0c9      	beq.n	8024a86 <SYSTIMER_lInsertTimerList+0x1a>
 8024af2:	6034      	str	r4, [r6, #0]
 8024af4:	bdf0      	pop	{r4, r5, r6, r7, pc}
 8024af6:	bf00      	nop
 8024af8:	1ffea774 	.word	0x1ffea774
 8024afc:	1ffe94c0 	.word	0x1ffe94c0

08024b00 <SYSTIMER_lRemoveTimerList>:
 8024b00:	4b10      	ldr	r3, [pc, #64]	; (8024b44 <SYSTIMER_lRemoveTimerList+0x44>)
 8024b02:	2224      	movs	r2, #36	; 0x24
 8024b04:	4350      	muls	r0, r2
 8024b06:	b530      	push	{r4, r5, lr}
 8024b08:	181c      	adds	r4, r3, r0
 8024b0a:	5819      	ldr	r1, [r3, r0]
 8024b0c:	6862      	ldr	r2, [r4, #4]
 8024b0e:	b952      	cbnz	r2, 8024b26 <SYSTIMER_lRemoveTimerList+0x26>
 8024b10:	4d0d      	ldr	r5, [pc, #52]	; (8024b48 <SYSTIMER_lRemoveTimerList+0x48>)
 8024b12:	6029      	str	r1, [r5, #0]
 8024b14:	b901      	cbnz	r1, 8024b18 <SYSTIMER_lRemoveTimerList+0x18>
 8024b16:	bd30      	pop	{r4, r5, pc}
 8024b18:	698d      	ldr	r5, [r1, #24]
 8024b1a:	69a4      	ldr	r4, [r4, #24]
 8024b1c:	604a      	str	r2, [r1, #4]
 8024b1e:	442c      	add	r4, r5
 8024b20:	618c      	str	r4, [r1, #24]
 8024b22:	501a      	str	r2, [r3, r0]
 8024b24:	bd30      	pop	{r4, r5, pc}
 8024b26:	6011      	str	r1, [r2, #0]
 8024b28:	b909      	cbnz	r1, 8024b2e <SYSTIMER_lRemoveTimerList+0x2e>
 8024b2a:	6061      	str	r1, [r4, #4]
 8024b2c:	bd30      	pop	{r4, r5, pc}
 8024b2e:	5819      	ldr	r1, [r3, r0]
 8024b30:	604a      	str	r2, [r1, #4]
 8024b32:	5819      	ldr	r1, [r3, r0]
 8024b34:	69a2      	ldr	r2, [r4, #24]
 8024b36:	698d      	ldr	r5, [r1, #24]
 8024b38:	442a      	add	r2, r5
 8024b3a:	618a      	str	r2, [r1, #24]
 8024b3c:	2200      	movs	r2, #0
 8024b3e:	501a      	str	r2, [r3, r0]
 8024b40:	6062      	str	r2, [r4, #4]
 8024b42:	bd30      	pop	{r4, r5, pc}
 8024b44:	1ffea774 	.word	0x1ffea774
 8024b48:	1ffe94c0 	.word	0x1ffe94c0

08024b4c <SysTick_Handler>:
 8024b4c:	4a21      	ldr	r2, [pc, #132]	; (8024bd4 <SysTick_Handler+0x88>)
 8024b4e:	b570      	push	{r4, r5, r6, lr}
 8024b50:	4d21      	ldr	r5, [pc, #132]	; (8024bd8 <SysTick_Handler+0x8c>)
 8024b52:	6813      	ldr	r3, [r2, #0]
 8024b54:	682c      	ldr	r4, [r5, #0]
 8024b56:	3301      	adds	r3, #1
 8024b58:	6013      	str	r3, [r2, #0]
 8024b5a:	2c00      	cmp	r4, #0
 8024b5c:	d039      	beq.n	8024bd2 <SysTick_Handler+0x86>
 8024b5e:	69a3      	ldr	r3, [r4, #24]
 8024b60:	2b01      	cmp	r3, #1
 8024b62:	d902      	bls.n	8024b6a <SysTick_Handler+0x1e>
 8024b64:	3b01      	subs	r3, #1
 8024b66:	61a3      	str	r3, [r4, #24]
 8024b68:	bd70      	pop	{r4, r5, r6, pc}
 8024b6a:	2300      	movs	r3, #0
 8024b6c:	61a3      	str	r3, [r4, #24]
 8024b6e:	69a6      	ldr	r6, [r4, #24]
 8024b70:	2e00      	cmp	r6, #0
 8024b72:	d12e      	bne.n	8024bd2 <SysTick_Handler+0x86>
 8024b74:	f894 3020 	ldrb.w	r3, [r4, #32]
 8024b78:	b16b      	cbz	r3, 8024b96 <SysTick_Handler+0x4a>
 8024b7a:	6960      	ldr	r0, [r4, #20]
 8024b7c:	f7ff ffc0 	bl	8024b00 <SYSTIMER_lRemoveTimerList>
 8024b80:	4916      	ldr	r1, [pc, #88]	; (8024bdc <SysTick_Handler+0x90>)
 8024b82:	6962      	ldr	r2, [r4, #20]
 8024b84:	7366      	strb	r6, [r4, #13]
 8024b86:	2301      	movs	r3, #1
 8024b88:	fa03 f202 	lsl.w	r2, r3, r2
 8024b8c:	680b      	ldr	r3, [r1, #0]
 8024b8e:	ea23 0302 	bic.w	r3, r3, r2
 8024b92:	600b      	str	r3, [r1, #0]
 8024b94:	e01a      	b.n	8024bcc <SysTick_Handler+0x80>
 8024b96:	7b23      	ldrb	r3, [r4, #12]
 8024b98:	b943      	cbnz	r3, 8024bac <SysTick_Handler+0x60>
 8024b9a:	7b63      	ldrb	r3, [r4, #13]
 8024b9c:	2b01      	cmp	r3, #1
 8024b9e:	d115      	bne.n	8024bcc <SysTick_Handler+0x80>
 8024ba0:	6960      	ldr	r0, [r4, #20]
 8024ba2:	f7ff ffad 	bl	8024b00 <SYSTIMER_lRemoveTimerList>
 8024ba6:	2302      	movs	r3, #2
 8024ba8:	7363      	strb	r3, [r4, #13]
 8024baa:	e00c      	b.n	8024bc6 <SysTick_Handler+0x7a>
 8024bac:	2b01      	cmp	r3, #1
 8024bae:	d110      	bne.n	8024bd2 <SysTick_Handler+0x86>
 8024bb0:	7b63      	ldrb	r3, [r4, #13]
 8024bb2:	2b01      	cmp	r3, #1
 8024bb4:	d10a      	bne.n	8024bcc <SysTick_Handler+0x80>
 8024bb6:	6960      	ldr	r0, [r4, #20]
 8024bb8:	f7ff ffa2 	bl	8024b00 <SYSTIMER_lRemoveTimerList>
 8024bbc:	69e3      	ldr	r3, [r4, #28]
 8024bbe:	61a3      	str	r3, [r4, #24]
 8024bc0:	6960      	ldr	r0, [r4, #20]
 8024bc2:	f7ff ff53 	bl	8024a6c <SYSTIMER_lInsertTimerList>
 8024bc6:	68a3      	ldr	r3, [r4, #8]
 8024bc8:	6920      	ldr	r0, [r4, #16]
 8024bca:	4798      	blx	r3
 8024bcc:	682c      	ldr	r4, [r5, #0]
 8024bce:	2c00      	cmp	r4, #0
 8024bd0:	d1cd      	bne.n	8024b6e <SysTick_Handler+0x22>
 8024bd2:	bd70      	pop	{r4, r5, r6, pc}
 8024bd4:	1ffe94b8 	.word	0x1ffe94b8
 8024bd8:	1ffe94c0 	.word	0x1ffe94c0
 8024bdc:	1ffe94bc 	.word	0x1ffe94bc

08024be0 <SYSTIMER_Init>:
 8024be0:	7802      	ldrb	r2, [r0, #0]
 8024be2:	b510      	push	{r4, lr}
 8024be4:	bb32      	cbnz	r2, 8024c34 <SYSTIMER_Init+0x54>
 8024be6:	4b14      	ldr	r3, [pc, #80]	; (8024c38 <SYSTIMER_Init+0x58>)
 8024be8:	4914      	ldr	r1, [pc, #80]	; (8024c3c <SYSTIMER_Init+0x5c>)
 8024bea:	601a      	str	r2, [r3, #0]
 8024bec:	4b14      	ldr	r3, [pc, #80]	; (8024c40 <SYSTIMER_Init+0x60>)
 8024bee:	6059      	str	r1, [r3, #4]
 8024bf0:	4914      	ldr	r1, [pc, #80]	; (8024c44 <SYSTIMER_Init+0x64>)
 8024bf2:	24fc      	movs	r4, #252	; 0xfc
 8024bf4:	f881 4023 	strb.w	r4, [r1, #35]	; 0x23
 8024bf8:	609a      	str	r2, [r3, #8]
 8024bfa:	2207      	movs	r2, #7
 8024bfc:	601a      	str	r2, [r3, #0]
 8024bfe:	68cb      	ldr	r3, [r1, #12]
 8024c00:	f3c3 2302 	ubfx	r3, r3, #8, #3
 8024c04:	b10b      	cbz	r3, 8024c0a <SYSTIMER_Init+0x2a>
 8024c06:	1e59      	subs	r1, r3, #1
 8024c08:	e000      	b.n	8024c0c <SYSTIMER_Init+0x2c>
 8024c0a:	4619      	mov	r1, r3
 8024c0c:	f1c3 0307 	rsb	r3, r3, #7
 8024c10:	2b06      	cmp	r3, #6
 8024c12:	f04f 0201 	mov.w	r2, #1
 8024c16:	bf28      	it	cs
 8024c18:	2306      	movcs	r3, #6
 8024c1a:	fa02 f303 	lsl.w	r3, r2, r3
 8024c1e:	3b01      	subs	r3, #1
 8024c20:	408b      	lsls	r3, r1
 8024c22:	009b      	lsls	r3, r3, #2
 8024c24:	4907      	ldr	r1, [pc, #28]	; (8024c44 <SYSTIMER_Init+0x64>)
 8024c26:	b2db      	uxtb	r3, r3
 8024c28:	f881 3023 	strb.w	r3, [r1, #35]	; 0x23
 8024c2c:	4b06      	ldr	r3, [pc, #24]	; (8024c48 <SYSTIMER_Init+0x68>)
 8024c2e:	2100      	movs	r1, #0
 8024c30:	6019      	str	r1, [r3, #0]
 8024c32:	7002      	strb	r2, [r0, #0]
 8024c34:	2000      	movs	r0, #0
 8024c36:	bd10      	pop	{r4, pc}
 8024c38:	1ffe94c0 	.word	0x1ffe94c0
 8024c3c:	0002327f 	.word	0x0002327f
 8024c40:	e000e010 	.word	0xe000e010
 8024c44:	e000ed00 	.word	0xe000ed00
 8024c48:	1ffe94bc 	.word	0x1ffe94bc

08024c4c <PWM_CCU8_Start>:
 8024c4c:	7f03      	ldrb	r3, [r0, #28]
 8024c4e:	f003 03fd 	and.w	r3, r3, #253	; 0xfd
 8024c52:	2b01      	cmp	r3, #1
 8024c54:	d10e      	bne.n	8024c74 <PWM_CCU8_Start+0x28>
 8024c56:	7b41      	ldrb	r1, [r0, #13]
 8024c58:	6842      	ldr	r2, [r0, #4]
 8024c5a:	fa03 f101 	lsl.w	r1, r3, r1
 8024c5e:	60d1      	str	r1, [r2, #12]
 8024c60:	6802      	ldr	r2, [r0, #0]
 8024c62:	f892 2028 	ldrb.w	r2, [r2, #40]	; 0x28
 8024c66:	b90a      	cbnz	r2, 8024c6c <PWM_CCU8_Start+0x20>
 8024c68:	6882      	ldr	r2, [r0, #8]
 8024c6a:	60d3      	str	r3, [r2, #12]
 8024c6c:	2302      	movs	r3, #2
 8024c6e:	7703      	strb	r3, [r0, #28]
 8024c70:	2000      	movs	r0, #0
 8024c72:	4770      	bx	lr
 8024c74:	2001      	movs	r0, #1
 8024c76:	4770      	bx	lr

08024c78 <PWM_CCU8_Init>:
 8024c78:	b573      	push	{r0, r1, r4, r5, r6, lr}
 8024c7a:	7f05      	ldrb	r5, [r0, #28]
 8024c7c:	4604      	mov	r4, r0
 8024c7e:	2d00      	cmp	r5, #0
 8024c80:	f040 817a 	bne.w	8024f78 <PWM_CCU8_Init+0x300>
 8024c84:	6803      	ldr	r3, [r0, #0]
 8024c86:	f8d3 008c 	ldr.w	r0, [r3, #140]	; 0x8c
 8024c8a:	f000 f9c1 	bl	8025010 <GLOBAL_CCU8_Init>
 8024c8e:	4606      	mov	r6, r0
 8024c90:	2800      	cmp	r0, #0
 8024c92:	f040 816e 	bne.w	8024f72 <PWM_CCU8_Init+0x2fa>
 8024c96:	6823      	ldr	r3, [r4, #0]
 8024c98:	68a0      	ldr	r0, [r4, #8]
 8024c9a:	6c99      	ldr	r1, [r3, #72]	; 0x48
 8024c9c:	f7ff fca3 	bl	80245e6 <XMC_CCU8_SLICE_CompareInit>
 8024ca0:	6823      	ldr	r3, [r4, #0]
 8024ca2:	68a0      	ldr	r0, [r4, #8]
 8024ca4:	8859      	ldrh	r1, [r3, #2]
 8024ca6:	f7ff fd91 	bl	80247cc <XMC_CCU8_SLICE_SetTimerPeriodMatch>
 8024caa:	6823      	ldr	r3, [r4, #0]
 8024cac:	68a0      	ldr	r0, [r4, #8]
 8024cae:	889a      	ldrh	r2, [r3, #4]
 8024cb0:	4631      	mov	r1, r6
 8024cb2:	f7ff fd8d 	bl	80247d0 <XMC_CCU8_SLICE_SetTimerCompareMatch>
 8024cb6:	6823      	ldr	r3, [r4, #0]
 8024cb8:	68a0      	ldr	r0, [r4, #8]
 8024cba:	88da      	ldrh	r2, [r3, #6]
 8024cbc:	2101      	movs	r1, #1
 8024cbe:	f7ff fd87 	bl	80247d0 <XMC_CCU8_SLICE_SetTimerCompareMatch>
 8024cc2:	6823      	ldr	r3, [r4, #0]
 8024cc4:	6c9a      	ldr	r2, [r3, #72]	; 0x48
 8024cc6:	78d2      	ldrb	r2, [r2, #3]
 8024cc8:	f012 0f06 	tst.w	r2, #6
 8024ccc:	d003      	beq.n	8024cd6 <PWM_CCU8_Init+0x5e>
 8024cce:	6860      	ldr	r0, [r4, #4]
 8024cd0:	6bd9      	ldr	r1, [r3, #60]	; 0x3c
 8024cd2:	f7ff fca3 	bl	802461c <XMC_CCU8_SetMultiChannelShadowTransferMode>
 8024cd6:	6821      	ldr	r1, [r4, #0]
 8024cd8:	68a0      	ldr	r0, [r4, #8]
 8024cda:	f891 2044 	ldrb.w	r2, [r1, #68]	; 0x44
 8024cde:	f8d0 30b4 	ldr.w	r3, [r0, #180]	; 0xb4
 8024ce2:	6c09      	ldr	r1, [r1, #64]	; 0x40
 8024ce4:	0052      	lsls	r2, r2, #1
 8024ce6:	f002 0206 	and.w	r2, r2, #6
 8024cea:	f023 0306 	bic.w	r3, r3, #6
 8024cee:	4313      	orrs	r3, r2
 8024cf0:	f8c0 30b4 	str.w	r3, [r0, #180]	; 0xb4
 8024cf4:	6863      	ldr	r3, [r4, #4]
 8024cf6:	6922      	ldr	r2, [r4, #16]
 8024cf8:	611a      	str	r2, [r3, #16]
 8024cfa:	6962      	ldr	r2, [r4, #20]
 8024cfc:	611a      	str	r2, [r3, #16]
 8024cfe:	f7ff fd87 	bl	8024810 <XMC_CCU8_SLICE_DeadTimeInit>
 8024d02:	6823      	ldr	r3, [r4, #0]
 8024d04:	68a0      	ldr	r0, [r4, #8]
 8024d06:	69da      	ldr	r2, [r3, #28]
 8024d08:	2101      	movs	r1, #1
 8024d0a:	f7ff fd2c 	bl	8024766 <XMC_CCU8_SLICE_ConfigureEvent>
 8024d0e:	6823      	ldr	r3, [r4, #0]
 8024d10:	68a0      	ldr	r0, [r4, #8]
 8024d12:	6a1a      	ldr	r2, [r3, #32]
 8024d14:	2102      	movs	r1, #2
 8024d16:	f7ff fd26 	bl	8024766 <XMC_CCU8_SLICE_ConfigureEvent>
 8024d1a:	6823      	ldr	r3, [r4, #0]
 8024d1c:	68a0      	ldr	r0, [r4, #8]
 8024d1e:	6a5a      	ldr	r2, [r3, #36]	; 0x24
 8024d20:	2103      	movs	r1, #3
 8024d22:	f7ff fd20 	bl	8024766 <XMC_CCU8_SLICE_ConfigureEvent>
 8024d26:	6823      	ldr	r3, [r4, #0]
 8024d28:	f893 1028 	ldrb.w	r1, [r3, #40]	; 0x28
 8024d2c:	b121      	cbz	r1, 8024d38 <PWM_CCU8_Init+0xc0>
 8024d2e:	68a0      	ldr	r0, [r4, #8]
 8024d30:	f893 2029 	ldrb.w	r2, [r3, #41]	; 0x29
 8024d34:	f7ff fc79 	bl	802462a <XMC_CCU8_SLICE_StartConfig>
 8024d38:	6823      	ldr	r3, [r4, #0]
 8024d3a:	f893 102a 	ldrb.w	r1, [r3, #42]	; 0x2a
 8024d3e:	b121      	cbz	r1, 8024d4a <PWM_CCU8_Init+0xd2>
 8024d40:	68a0      	ldr	r0, [r4, #8]
 8024d42:	f893 202b 	ldrb.w	r2, [r3, #43]	; 0x2b
 8024d46:	f7ff fc7e 	bl	8024646 <XMC_CCU8_SLICE_StopConfig>
 8024d4a:	6823      	ldr	r3, [r4, #0]
 8024d4c:	f893 102c 	ldrb.w	r1, [r3, #44]	; 0x2c
 8024d50:	b111      	cbz	r1, 8024d58 <PWM_CCU8_Init+0xe0>
 8024d52:	68a0      	ldr	r0, [r4, #8]
 8024d54:	f7ff fcbc 	bl	80246d0 <XMC_CCU8_SLICE_DirectionConfig>
 8024d58:	6823      	ldr	r3, [r4, #0]
 8024d5a:	f893 102d 	ldrb.w	r1, [r3, #45]	; 0x2d
 8024d5e:	b111      	cbz	r1, 8024d66 <PWM_CCU8_Init+0xee>
 8024d60:	68a0      	ldr	r0, [r4, #8]
 8024d62:	f7ff fcae 	bl	80246c2 <XMC_CCU8_SLICE_GateConfig>
 8024d66:	6823      	ldr	r3, [r4, #0]
 8024d68:	f893 102e 	ldrb.w	r1, [r3, #46]	; 0x2e
 8024d6c:	b111      	cbz	r1, 8024d74 <PWM_CCU8_Init+0xfc>
 8024d6e:	68a0      	ldr	r0, [r4, #8]
 8024d70:	f7ff fca0 	bl	80246b4 <XMC_CCU8_SLICE_CountConfig>
 8024d74:	6823      	ldr	r3, [r4, #0]
 8024d76:	f893 102f 	ldrb.w	r1, [r3, #47]	; 0x2f
 8024d7a:	b141      	cbz	r1, 8024d8e <PWM_CCU8_Init+0x116>
 8024d7c:	68a0      	ldr	r0, [r4, #8]
 8024d7e:	f7ff fc6f 	bl	8024660 <XMC_CCU8_SLICE_LoadConfig>
 8024d82:	6823      	ldr	r3, [r4, #0]
 8024d84:	68a0      	ldr	r0, [r4, #8]
 8024d86:	f893 1030 	ldrb.w	r1, [r3, #48]	; 0x30
 8024d8a:	f7ff fc70 	bl	802466e <XMC_CCU8_SLICE_LoadSelector>
 8024d8e:	6823      	ldr	r3, [r4, #0]
 8024d90:	f893 1031 	ldrb.w	r1, [r3, #49]	; 0x31
 8024d94:	b141      	cbz	r1, 8024da8 <PWM_CCU8_Init+0x130>
 8024d96:	f893 2032 	ldrb.w	r2, [r3, #50]	; 0x32
 8024d9a:	f893 3033 	ldrb.w	r3, [r3, #51]	; 0x33
 8024d9e:	9300      	str	r3, [sp, #0]
 8024da0:	68a0      	ldr	r0, [r4, #8]
 8024da2:	2303      	movs	r3, #3
 8024da4:	f7ff fc6a 	bl	802467c <XMC_CCU8_SLICE_ModulationConfig>
 8024da8:	6823      	ldr	r3, [r4, #0]
 8024daa:	f893 2037 	ldrb.w	r2, [r3, #55]	; 0x37
 8024dae:	2a03      	cmp	r2, #3
 8024db0:	d10f      	bne.n	8024dd2 <PWM_CCU8_Init+0x15a>
 8024db2:	f893 1039 	ldrb.w	r1, [r3, #57]	; 0x39
 8024db6:	f893 2038 	ldrb.w	r2, [r3, #56]	; 0x38
 8024dba:	68a0      	ldr	r0, [r4, #8]
 8024dbc:	f7ff fc94 	bl	80246e8 <XMC_CCU8_SLICE_TrapConfig>
 8024dc0:	6823      	ldr	r3, [r4, #0]
 8024dc2:	f893 3036 	ldrb.w	r3, [r3, #54]	; 0x36
 8024dc6:	b123      	cbz	r3, 8024dd2 <PWM_CCU8_Init+0x15a>
 8024dc8:	68a2      	ldr	r2, [r4, #8]
 8024dca:	6953      	ldr	r3, [r2, #20]
 8024dcc:	f443 13f0 	orr.w	r3, r3, #1966080	; 0x1e0000
 8024dd0:	6153      	str	r3, [r2, #20]
 8024dd2:	6823      	ldr	r3, [r4, #0]
 8024dd4:	8e9a      	ldrh	r2, [r3, #52]	; 0x34
 8024dd6:	b13a      	cbz	r2, 8024de8 <PWM_CCU8_Init+0x170>
 8024dd8:	68a0      	ldr	r0, [r4, #8]
 8024dda:	6a19      	ldr	r1, [r3, #32]
 8024ddc:	6a5a      	ldr	r2, [r3, #36]	; 0x24
 8024dde:	f7ff fc96 	bl	802470e <XMC_CCU8_SLICE_ConfigureStatusBitOverrideEvent>
 8024de2:	68a0      	ldr	r0, [r4, #8]
 8024de4:	f7ff fc7b 	bl	80246de <XMC_CCU8_SLICE_StatusBitOverrideConfig>
 8024de8:	6823      	ldr	r3, [r4, #0]
 8024dea:	68a0      	ldr	r0, [r4, #8]
 8024dec:	7c5a      	ldrb	r2, [r3, #17]
 8024dee:	2100      	movs	r1, #0
 8024df0:	f7ff fcf4 	bl	80247dc <XMC_CCU8_SLICE_SetInterruptNode>
 8024df4:	6823      	ldr	r3, [r4, #0]
 8024df6:	68a0      	ldr	r0, [r4, #8]
 8024df8:	7c9a      	ldrb	r2, [r3, #18]
 8024dfa:	2102      	movs	r1, #2
 8024dfc:	f7ff fcee 	bl	80247dc <XMC_CCU8_SLICE_SetInterruptNode>
 8024e00:	6823      	ldr	r3, [r4, #0]
 8024e02:	68a0      	ldr	r0, [r4, #8]
 8024e04:	7cda      	ldrb	r2, [r3, #19]
 8024e06:	2103      	movs	r1, #3
 8024e08:	f7ff fce8 	bl	80247dc <XMC_CCU8_SLICE_SetInterruptNode>
 8024e0c:	6823      	ldr	r3, [r4, #0]
 8024e0e:	68a0      	ldr	r0, [r4, #8]
 8024e10:	7d1a      	ldrb	r2, [r3, #20]
 8024e12:	2104      	movs	r1, #4
 8024e14:	f7ff fce2 	bl	80247dc <XMC_CCU8_SLICE_SetInterruptNode>
 8024e18:	6823      	ldr	r3, [r4, #0]
 8024e1a:	68a0      	ldr	r0, [r4, #8]
 8024e1c:	7d5a      	ldrb	r2, [r3, #21]
 8024e1e:	2105      	movs	r1, #5
 8024e20:	f7ff fcdc 	bl	80247dc <XMC_CCU8_SLICE_SetInterruptNode>
 8024e24:	6823      	ldr	r3, [r4, #0]
 8024e26:	68a0      	ldr	r0, [r4, #8]
 8024e28:	7d9a      	ldrb	r2, [r3, #22]
 8024e2a:	2101      	movs	r1, #1
 8024e2c:	f7ff fcd6 	bl	80247dc <XMC_CCU8_SLICE_SetInterruptNode>
 8024e30:	6823      	ldr	r3, [r4, #0]
 8024e32:	68a0      	ldr	r0, [r4, #8]
 8024e34:	7dda      	ldrb	r2, [r3, #23]
 8024e36:	2108      	movs	r1, #8
 8024e38:	f7ff fcd0 	bl	80247dc <XMC_CCU8_SLICE_SetInterruptNode>
 8024e3c:	6823      	ldr	r3, [r4, #0]
 8024e3e:	68a0      	ldr	r0, [r4, #8]
 8024e40:	7e1a      	ldrb	r2, [r3, #24]
 8024e42:	2109      	movs	r1, #9
 8024e44:	f7ff fcca 	bl	80247dc <XMC_CCU8_SLICE_SetInterruptNode>
 8024e48:	6823      	ldr	r3, [r4, #0]
 8024e4a:	68a0      	ldr	r0, [r4, #8]
 8024e4c:	7e5a      	ldrb	r2, [r3, #25]
 8024e4e:	210a      	movs	r1, #10
 8024e50:	f7ff fcc4 	bl	80247dc <XMC_CCU8_SLICE_SetInterruptNode>
 8024e54:	6823      	ldr	r3, [r4, #0]
 8024e56:	7a1a      	ldrb	r2, [r3, #8]
 8024e58:	b132      	cbz	r2, 8024e68 <PWM_CCU8_Init+0x1f0>
 8024e5a:	68a1      	ldr	r1, [r4, #8]
 8024e5c:	f8d1 20a4 	ldr.w	r2, [r1, #164]	; 0xa4
 8024e60:	f042 0201 	orr.w	r2, r2, #1
 8024e64:	f8c1 20a4 	str.w	r2, [r1, #164]	; 0xa4
 8024e68:	7a5a      	ldrb	r2, [r3, #9]
 8024e6a:	b132      	cbz	r2, 8024e7a <PWM_CCU8_Init+0x202>
 8024e6c:	68a1      	ldr	r1, [r4, #8]
 8024e6e:	f8d1 20a4 	ldr.w	r2, [r1, #164]	; 0xa4
 8024e72:	f042 0204 	orr.w	r2, r2, #4
 8024e76:	f8c1 20a4 	str.w	r2, [r1, #164]	; 0xa4
 8024e7a:	7a9a      	ldrb	r2, [r3, #10]
 8024e7c:	b132      	cbz	r2, 8024e8c <PWM_CCU8_Init+0x214>
 8024e7e:	68a1      	ldr	r1, [r4, #8]
 8024e80:	f8d1 20a4 	ldr.w	r2, [r1, #164]	; 0xa4
 8024e84:	f042 0208 	orr.w	r2, r2, #8
 8024e88:	f8c1 20a4 	str.w	r2, [r1, #164]	; 0xa4
 8024e8c:	7ada      	ldrb	r2, [r3, #11]
 8024e8e:	b132      	cbz	r2, 8024e9e <PWM_CCU8_Init+0x226>
 8024e90:	68a1      	ldr	r1, [r4, #8]
 8024e92:	f8d1 20a4 	ldr.w	r2, [r1, #164]	; 0xa4
 8024e96:	f042 0210 	orr.w	r2, r2, #16
 8024e9a:	f8c1 20a4 	str.w	r2, [r1, #164]	; 0xa4
 8024e9e:	7b1a      	ldrb	r2, [r3, #12]
 8024ea0:	b132      	cbz	r2, 8024eb0 <PWM_CCU8_Init+0x238>
 8024ea2:	68a1      	ldr	r1, [r4, #8]
 8024ea4:	f8d1 20a4 	ldr.w	r2, [r1, #164]	; 0xa4
 8024ea8:	f042 0220 	orr.w	r2, r2, #32
 8024eac:	f8c1 20a4 	str.w	r2, [r1, #164]	; 0xa4
 8024eb0:	7b5a      	ldrb	r2, [r3, #13]
 8024eb2:	b132      	cbz	r2, 8024ec2 <PWM_CCU8_Init+0x24a>
 8024eb4:	68a1      	ldr	r1, [r4, #8]
 8024eb6:	f8d1 20a4 	ldr.w	r2, [r1, #164]	; 0xa4
 8024eba:	f042 0202 	orr.w	r2, r2, #2
 8024ebe:	f8c1 20a4 	str.w	r2, [r1, #164]	; 0xa4
 8024ec2:	7b9a      	ldrb	r2, [r3, #14]
 8024ec4:	b132      	cbz	r2, 8024ed4 <PWM_CCU8_Init+0x25c>
 8024ec6:	68a1      	ldr	r1, [r4, #8]
 8024ec8:	f8d1 20a4 	ldr.w	r2, [r1, #164]	; 0xa4
 8024ecc:	f442 7280 	orr.w	r2, r2, #256	; 0x100
 8024ed0:	f8c1 20a4 	str.w	r2, [r1, #164]	; 0xa4
 8024ed4:	7bda      	ldrb	r2, [r3, #15]
 8024ed6:	b132      	cbz	r2, 8024ee6 <PWM_CCU8_Init+0x26e>
 8024ed8:	68a1      	ldr	r1, [r4, #8]
 8024eda:	f8d1 20a4 	ldr.w	r2, [r1, #164]	; 0xa4
 8024ede:	f442 7200 	orr.w	r2, r2, #512	; 0x200
 8024ee2:	f8c1 20a4 	str.w	r2, [r1, #164]	; 0xa4
 8024ee6:	7c1a      	ldrb	r2, [r3, #16]
 8024ee8:	b132      	cbz	r2, 8024ef8 <PWM_CCU8_Init+0x280>
 8024eea:	68a1      	ldr	r1, [r4, #8]
 8024eec:	f8d1 20a4 	ldr.w	r2, [r1, #164]	; 0xa4
 8024ef0:	f442 6280 	orr.w	r2, r2, #1024	; 0x400
 8024ef4:	f8c1 20a4 	str.w	r2, [r1, #164]	; 0xa4
 8024ef8:	f893 204c 	ldrb.w	r2, [r3, #76]	; 0x4c
 8024efc:	b12a      	cbz	r2, 8024f0a <PWM_CCU8_Init+0x292>
 8024efe:	6d18      	ldr	r0, [r3, #80]	; 0x50
 8024f00:	f893 1054 	ldrb.w	r1, [r3, #84]	; 0x54
 8024f04:	6d9a      	ldr	r2, [r3, #88]	; 0x58
 8024f06:	f7ff f80b 	bl	8023f20 <XMC_GPIO_Init>
 8024f0a:	6823      	ldr	r3, [r4, #0]
 8024f0c:	f893 205c 	ldrb.w	r2, [r3, #92]	; 0x5c
 8024f10:	b12a      	cbz	r2, 8024f1e <PWM_CCU8_Init+0x2a6>
 8024f12:	6e18      	ldr	r0, [r3, #96]	; 0x60
 8024f14:	f893 1064 	ldrb.w	r1, [r3, #100]	; 0x64
 8024f18:	6e9a      	ldr	r2, [r3, #104]	; 0x68
 8024f1a:	f7ff f801 	bl	8023f20 <XMC_GPIO_Init>
 8024f1e:	6823      	ldr	r3, [r4, #0]
 8024f20:	f893 206c 	ldrb.w	r2, [r3, #108]	; 0x6c
 8024f24:	b12a      	cbz	r2, 8024f32 <PWM_CCU8_Init+0x2ba>
 8024f26:	6f18      	ldr	r0, [r3, #112]	; 0x70
 8024f28:	f893 1074 	ldrb.w	r1, [r3, #116]	; 0x74
 8024f2c:	6f9a      	ldr	r2, [r3, #120]	; 0x78
 8024f2e:	f7fe fff7 	bl	8023f20 <XMC_GPIO_Init>
 8024f32:	6823      	ldr	r3, [r4, #0]
 8024f34:	f893 207c 	ldrb.w	r2, [r3, #124]	; 0x7c
 8024f38:	b13a      	cbz	r2, 8024f4a <PWM_CCU8_Init+0x2d2>
 8024f3a:	f8d3 0080 	ldr.w	r0, [r3, #128]	; 0x80
 8024f3e:	f893 1084 	ldrb.w	r1, [r3, #132]	; 0x84
 8024f42:	f8d3 2088 	ldr.w	r2, [r3, #136]	; 0x88
 8024f46:	f7fe ffeb 	bl	8023f20 <XMC_GPIO_Init>
 8024f4a:	6823      	ldr	r3, [r4, #0]
 8024f4c:	6c99      	ldr	r1, [r3, #72]	; 0x48
 8024f4e:	f8d3 208c 	ldr.w	r2, [r3, #140]	; 0x8c
 8024f52:	7b09      	ldrb	r1, [r1, #12]
 8024f54:	6812      	ldr	r2, [r2, #0]
 8024f56:	7818      	ldrb	r0, [r3, #0]
 8024f58:	f001 010f 	and.w	r1, r1, #15
 8024f5c:	40ca      	lsrs	r2, r1
 8024f5e:	6222      	str	r2, [r4, #32]
 8024f60:	2201      	movs	r2, #1
 8024f62:	7722      	strb	r2, [r4, #28]
 8024f64:	b148      	cbz	r0, 8024f7a <PWM_CCU8_Init+0x302>
 8024f66:	4620      	mov	r0, r4
 8024f68:	b002      	add	sp, #8
 8024f6a:	e8bd 4070 	ldmia.w	sp!, {r4, r5, r6, lr}
 8024f6e:	f7ff be6d 	b.w	8024c4c <PWM_CCU8_Start>
 8024f72:	7725      	strb	r5, [r4, #28]
 8024f74:	2001      	movs	r0, #1
 8024f76:	e000      	b.n	8024f7a <PWM_CCU8_Init+0x302>
 8024f78:	2002      	movs	r0, #2
 8024f7a:	b002      	add	sp, #8
 8024f7c:	bd70      	pop	{r4, r5, r6, pc}
	...

08024f80 <INTERRUPT_Init>:
 8024f80:	4b20      	ldr	r3, [pc, #128]	; (8025004 <INTERRUPT_Init+0x84>)
 8024f82:	b5f0      	push	{r4, r5, r6, r7, lr}
 8024f84:	68d9      	ldr	r1, [r3, #12]
 8024f86:	7805      	ldrb	r5, [r0, #0]
 8024f88:	7842      	ldrb	r2, [r0, #1]
 8024f8a:	7887      	ldrb	r7, [r0, #2]
 8024f8c:	f3c1 2102 	ubfx	r1, r1, #8, #3
 8024f90:	f1c1 0e07 	rsb	lr, r1, #7
 8024f94:	f1be 0f06 	cmp.w	lr, #6
 8024f98:	bf28      	it	cs
 8024f9a:	f04f 0e06 	movcs.w	lr, #6
 8024f9e:	b101      	cbz	r1, 8024fa2 <INTERRUPT_Init+0x22>
 8024fa0:	3901      	subs	r1, #1
 8024fa2:	2401      	movs	r4, #1
 8024fa4:	fa04 f301 	lsl.w	r3, r4, r1
 8024fa8:	3b01      	subs	r3, #1
 8024faa:	fa04 f40e 	lsl.w	r4, r4, lr
 8024fae:	ea03 0607 	and.w	r6, r3, r7
 8024fb2:	1e63      	subs	r3, r4, #1
 8024fb4:	4013      	ands	r3, r2
 8024fb6:	408b      	lsls	r3, r1
 8024fb8:	b26a      	sxtb	r2, r5
 8024fba:	2a00      	cmp	r2, #0
 8024fbc:	ea43 0306 	orr.w	r3, r3, r6
 8024fc0:	ea4f 0383 	mov.w	r3, r3, lsl #2
 8024fc4:	bfaf      	iteee	ge
 8024fc6:	f102 4260 	addge.w	r2, r2, #3758096384	; 0xe0000000
 8024fca:	f005 050f 	andlt.w	r5, r5, #15
 8024fce:	4a0e      	ldrlt	r2, [pc, #56]	; (8025008 <INTERRUPT_Init+0x88>)
 8024fd0:	b2db      	uxtblt	r3, r3
 8024fd2:	bfa5      	ittet	ge
 8024fd4:	f502 4261 	addge.w	r2, r2, #57600	; 0xe100
 8024fd8:	b2db      	uxtbge	r3, r3
 8024fda:	5553      	strblt	r3, [r2, r5]
 8024fdc:	f882 3300 	strbge.w	r3, [r2, #768]	; 0x300
 8024fe0:	78c3      	ldrb	r3, [r0, #3]
 8024fe2:	b16b      	cbz	r3, 8025000 <INTERRUPT_Init+0x80>
 8024fe4:	7802      	ldrb	r2, [r0, #0]
 8024fe6:	b253      	sxtb	r3, r2
 8024fe8:	2b00      	cmp	r3, #0
 8024fea:	bfa1      	itttt	ge
 8024fec:	2101      	movge	r1, #1
 8024fee:	f002 021f 	andge.w	r2, r2, #31
 8024ff2:	fa01 f202 	lslge.w	r2, r1, r2
 8024ff6:	095b      	lsrge	r3, r3, #5
 8024ff8:	bfa4      	itt	ge
 8024ffa:	4904      	ldrge	r1, [pc, #16]	; (802500c <INTERRUPT_Init+0x8c>)
 8024ffc:	f841 2023 	strge.w	r2, [r1, r3, lsl #2]
 8025000:	2000      	movs	r0, #0
 8025002:	bdf0      	pop	{r4, r5, r6, r7, pc}
 8025004:	e000ed00 	.word	0xe000ed00
 8025008:	e000ed14 	.word	0xe000ed14
 802500c:	e000e100 	.word	0xe000e100

08025010 <GLOBAL_CCU8_Init>:
 8025010:	7b43      	ldrb	r3, [r0, #13]
 8025012:	b510      	push	{r4, lr}
 8025014:	4604      	mov	r4, r0
 8025016:	b94b      	cbnz	r3, 802502c <GLOBAL_CCU8_Init+0x1c>
 8025018:	6880      	ldr	r0, [r0, #8]
 802501a:	7b21      	ldrb	r1, [r4, #12]
 802501c:	f7ff fad4 	bl	80245c8 <XMC_CCU8_Init>
 8025020:	68a3      	ldr	r3, [r4, #8]
 8025022:	f44f 7280 	mov.w	r2, #256	; 0x100
 8025026:	60da      	str	r2, [r3, #12]
 8025028:	2301      	movs	r3, #1
 802502a:	7363      	strb	r3, [r4, #13]
 802502c:	2000      	movs	r0, #0
 802502e:	bd10      	pop	{r4, pc}

08025030 <GLOBAL_CCU4_Init>:
 8025030:	7b43      	ldrb	r3, [r0, #13]
 8025032:	b510      	push	{r4, lr}
 8025034:	4604      	mov	r4, r0
 8025036:	b94b      	cbnz	r3, 802504c <GLOBAL_CCU4_Init+0x1c>
 8025038:	6880      	ldr	r0, [r0, #8]
 802503a:	7b21      	ldrb	r1, [r4, #12]
 802503c:	f7ff fa64 	bl	8024508 <XMC_CCU4_Init>
 8025040:	68a3      	ldr	r3, [r4, #8]
 8025042:	f44f 7280 	mov.w	r2, #256	; 0x100
 8025046:	60da      	str	r2, [r3, #12]
 8025048:	2301      	movs	r3, #1
 802504a:	7363      	strb	r3, [r4, #13]
 802504c:	2000      	movs	r0, #0
 802504e:	bd10      	pop	{r4, pc}

08025050 <E_EEPROM_XMC4_lInitEraseStateMachine>:
 8025050:	b538      	push	{r3, r4, r5, lr}
 8025052:	2400      	movs	r4, #0
 8025054:	4d10      	ldr	r5, [pc, #64]	; (8025098 <E_EEPROM_XMC4_lInitEraseStateMachine+0x48>)
 8025056:	68ab      	ldr	r3, [r5, #8]
 8025058:	42a3      	cmp	r3, r4
 802505a:	d016      	beq.n	802508a <E_EEPROM_XMC4_lInitEraseStateMachine+0x3a>
 802505c:	68eb      	ldr	r3, [r5, #12]
 802505e:	40e3      	lsrs	r3, r4
 8025060:	07db      	lsls	r3, r3, #31
 8025062:	d512      	bpl.n	802508a <E_EEPROM_XMC4_lInitEraseStateMachine+0x3a>
 8025064:	f7fe ff20 	bl	8023ea8 <XMC_FLASH_ClearStatus>
 8025068:	f504 5040 	add.w	r0, r4, #12288	; 0x3000
 802506c:	3004      	adds	r0, #4
 802506e:	0380      	lsls	r0, r0, #14
 8025070:	f7fe ff46 	bl	8023f00 <XMC_FLASH_EraseSector>
 8025074:	f7fe ff1e 	bl	8023eb4 <XMC_FLASH_GetStatus>
 8025078:	2820      	cmp	r0, #32
 802507a:	d10b      	bne.n	8025094 <E_EEPROM_XMC4_lInitEraseStateMachine+0x44>
 802507c:	2301      	movs	r3, #1
 802507e:	fa03 f204 	lsl.w	r2, r3, r4
 8025082:	68eb      	ldr	r3, [r5, #12]
 8025084:	ea23 0302 	bic.w	r3, r3, r2
 8025088:	60eb      	str	r3, [r5, #12]
 802508a:	3401      	adds	r4, #1
 802508c:	2c04      	cmp	r4, #4
 802508e:	d1e1      	bne.n	8025054 <E_EEPROM_XMC4_lInitEraseStateMachine+0x4>
 8025090:	2000      	movs	r0, #0
 8025092:	bd38      	pop	{r3, r4, r5, pc}
 8025094:	2004      	movs	r0, #4
 8025096:	bd38      	pop	{r3, r4, r5, pc}
 8025098:	1ffe93ec 	.word	0x1ffe93ec

0802509c <E_EEPROM_XMC4_Init>:
 802509c:	e92d 4ff0 	stmdb	sp!, {r4, r5, r6, r7, r8, r9, sl, fp, lr}
 80250a0:	7805      	ldrb	r5, [r0, #0]
 80250a2:	b085      	sub	sp, #20
 80250a4:	4682      	mov	sl, r0
 80250a6:	2d00      	cmp	r5, #0
 80250a8:	f040 8087 	bne.w	80251ba <E_EEPROM_XMC4_Init+0x11e>
 80250ac:	4f45      	ldr	r7, [pc, #276]	; (80251c4 <E_EEPROM_XMC4_Init+0x128>)
 80250ae:	4c46      	ldr	r4, [pc, #280]	; (80251c8 <E_EEPROM_XMC4_Init+0x12c>)
 80250b0:	4946      	ldr	r1, [pc, #280]	; (80251cc <E_EEPROM_XMC4_Init+0x130>)
 80250b2:	607d      	str	r5, [r7, #4]
 80250b4:	f241 0218 	movw	r2, #4120	; 0x1018
 80250b8:	6065      	str	r5, [r4, #4]
 80250ba:	588b      	ldr	r3, [r1, r2]
 80250bc:	f8df 8118 	ldr.w	r8, [pc, #280]	; 80251d8 <E_EEPROM_XMC4_Init+0x13c>
 80250c0:	f023 030f 	bic.w	r3, r3, #15
 80250c4:	f043 0301 	orr.w	r3, r3, #1
 80250c8:	508b      	str	r3, [r1, r2]
 80250ca:	588b      	ldr	r3, [r1, r2]
 80250cc:	f443 4300 	orr.w	r3, r3, #32768	; 0x8000
 80250d0:	508b      	str	r3, [r1, r2]
 80250d2:	f7ff fc17 	bl	8024904 <XMC_FCE_Enable>
 80250d6:	483e      	ldr	r0, [pc, #248]	; (80251d0 <E_EEPROM_XMC4_Init+0x134>)
 80250d8:	f7ff fc0c 	bl	80248f4 <XMC_FCE_Init>
 80250dc:	2301      	movs	r3, #1
 80250de:	f508 5640 	add.w	r6, r8, #12288	; 0x3000
 80250e2:	fa03 fb05 	lsl.w	fp, r3, r5
 80250e6:	f04f 0900 	mov.w	r9, #0
 80250ea:	f8d6 c004 	ldr.w	ip, [r6, #4]
 80250ee:	f1bc 0f00 	cmp.w	ip, #0
 80250f2:	d028      	beq.n	8025146 <E_EEPROM_XMC4_Init+0xaa>
 80250f4:	68e3      	ldr	r3, [r4, #12]
 80250f6:	ea4b 0303 	orr.w	r3, fp, r3
 80250fa:	60e3      	str	r3, [r4, #12]
 80250fc:	f1b9 0f00 	cmp.w	r9, #0
 8025100:	d101      	bne.n	8025106 <E_EEPROM_XMC4_Init+0x6a>
 8025102:	f506 5980 	add.w	r9, r6, #4096	; 0x1000
 8025106:	4631      	mov	r1, r6
 8025108:	2200      	movs	r2, #0
 802510a:	f851 3b04 	ldr.w	r3, [r1], #4
 802510e:	9300      	str	r3, [sp, #0]
 8025110:	4b30      	ldr	r3, [pc, #192]	; (80251d4 <E_EEPROM_XMC4_Init+0x138>)
 8025112:	f8cd c004 	str.w	ip, [sp, #4]
 8025116:	482e      	ldr	r0, [pc, #184]	; (80251d0 <E_EEPROM_XMC4_Init+0x134>)
 8025118:	619a      	str	r2, [r3, #24]
 802511a:	f640 72fc 	movw	r2, #4092	; 0xffc
 802511e:	ab03      	add	r3, sp, #12
 8025120:	f7ff fc02 	bl	8024928 <XMC_FCE_CalculateCRC32>
 8025124:	9b03      	ldr	r3, [sp, #12]
 8025126:	9a00      	ldr	r2, [sp, #0]
 8025128:	f8dd c004 	ldr.w	ip, [sp, #4]
 802512c:	4293      	cmp	r3, r2
 802512e:	d10a      	bne.n	8025146 <E_EEPROM_XMC4_Init+0xaa>
 8025130:	687b      	ldr	r3, [r7, #4]
 8025132:	459c      	cmp	ip, r3
 8025134:	d907      	bls.n	8025146 <E_EEPROM_XMC4_Init+0xaa>
 8025136:	4b23      	ldr	r3, [pc, #140]	; (80251c4 <E_EEPROM_XMC4_Init+0x128>)
 8025138:	60a5      	str	r5, [r4, #8]
 802513a:	f8c3 c004 	str.w	ip, [r3, #4]
 802513e:	6066      	str	r6, [r4, #4]
 8025140:	f8c4 9000 	str.w	r9, [r4]
 8025144:	e003      	b.n	802514e <E_EEPROM_XMC4_Init+0xb2>
 8025146:	f5a6 5680 	sub.w	r6, r6, #4096	; 0x1000
 802514a:	4546      	cmp	r6, r8
 802514c:	d2cd      	bcs.n	80250ea <E_EEPROM_XMC4_Init+0x4e>
 802514e:	3501      	adds	r5, #1
 8025150:	2d04      	cmp	r5, #4
 8025152:	f508 4880 	add.w	r8, r8, #16384	; 0x4000
 8025156:	d1c1      	bne.n	80250dc <E_EEPROM_XMC4_Init+0x40>
 8025158:	491c      	ldr	r1, [pc, #112]	; (80251cc <E_EEPROM_XMC4_Init+0x130>)
 802515a:	f241 0218 	movw	r2, #4120	; 0x1018
 802515e:	588b      	ldr	r3, [r1, r2]
 8025160:	f023 030f 	bic.w	r3, r3, #15
 8025164:	508b      	str	r3, [r1, r2]
 8025166:	f7ff ff73 	bl	8025050 <E_EEPROM_XMC4_lInitEraseStateMachine>
 802516a:	b9d8      	cbnz	r0, 80251a4 <E_EEPROM_XMC4_Init+0x108>
 802516c:	6863      	ldr	r3, [r4, #4]
 802516e:	4a16      	ldr	r2, [pc, #88]	; (80251c8 <E_EEPROM_XMC4_Init+0x12c>)
 8025170:	b91b      	cbnz	r3, 802517a <E_EEPROM_XMC4_Init+0xde>
 8025172:	4b19      	ldr	r3, [pc, #100]	; (80251d8 <E_EEPROM_XMC4_Init+0x13c>)
 8025174:	6090      	str	r0, [r2, #8]
 8025176:	6013      	str	r3, [r2, #0]
 8025178:	e014      	b.n	80251a4 <E_EEPROM_XMC4_Init+0x108>
 802517a:	1f1a      	subs	r2, r3, #4
 802517c:	f603 71fc 	addw	r1, r3, #4092	; 0xffc
 8025180:	f852 5f04 	ldr.w	r5, [r2, #4]!
 8025184:	1af8      	subs	r0, r7, r3
 8025186:	428a      	cmp	r2, r1
 8025188:	5085      	str	r5, [r0, r2]
 802518a:	d1f9      	bne.n	8025180 <E_EEPROM_XMC4_Init+0xe4>
 802518c:	6822      	ldr	r2, [r4, #0]
 802518e:	1ad3      	subs	r3, r2, r3
 8025190:	f5b3 5080 	subs.w	r0, r3, #4096	; 0x1000
 8025194:	4b11      	ldr	r3, [pc, #68]	; (80251dc <E_EEPROM_XMC4_Init+0x140>)
 8025196:	bf18      	it	ne
 8025198:	2001      	movne	r0, #1
 802519a:	429a      	cmp	r2, r3
 802519c:	bf82      	ittt	hi
 802519e:	4b0a      	ldrhi	r3, [pc, #40]	; (80251c8 <E_EEPROM_XMC4_Init+0x12c>)
 80251a0:	4a0d      	ldrhi	r2, [pc, #52]	; (80251d8 <E_EEPROM_XMC4_Init+0x13c>)
 80251a2:	601a      	strhi	r2, [r3, #0]
 80251a4:	4909      	ldr	r1, [pc, #36]	; (80251cc <E_EEPROM_XMC4_Init+0x130>)
 80251a6:	f241 0218 	movw	r2, #4120	; 0x1018
 80251aa:	588b      	ldr	r3, [r1, r2]
 80251ac:	f423 4300 	bic.w	r3, r3, #32768	; 0x8000
 80251b0:	508b      	str	r3, [r1, r2]
 80251b2:	2301      	movs	r3, #1
 80251b4:	f88a 3000 	strb.w	r3, [sl]
 80251b8:	e000      	b.n	80251bc <E_EEPROM_XMC4_Init+0x120>
 80251ba:	2000      	movs	r0, #0
 80251bc:	b005      	add	sp, #20
 80251be:	e8bd 8ff0 	ldmia.w	sp!, {r4, r5, r6, r7, r8, r9, sl, fp, pc}
 80251c2:	bf00      	nop
 80251c4:	1ffe94c8 	.word	0x1ffe94c8
 80251c8:	1ffe93ec 	.word	0x1ffe93ec
 80251cc:	58001000 	.word	0x58001000
 80251d0:	08026458 	.word	0x08026458
 80251d4:	50020020 	.word	0x50020020
 80251d8:	0c010000 	.word	0x0c010000
 80251dc:	0c01ffff 	.word	0x0c01ffff

080251e0 <E_EEPROM_XMC4_WriteArray>:
 80251e0:	b570      	push	{r4, r5, r6, lr}
 80251e2:	4c09      	ldr	r4, [pc, #36]	; (8025208 <E_EEPROM_XMC4_WriteArray+0x28>)
 80251e4:	4404      	add	r4, r0
 80251e6:	4620      	mov	r0, r4
 80251e8:	460e      	mov	r6, r1
 80251ea:	4615      	mov	r5, r2
 80251ec:	f000 fcde 	bl	8025bac <memcmp>
 80251f0:	3000      	adds	r0, #0
 80251f2:	bf18      	it	ne
 80251f4:	2001      	movne	r0, #1
 80251f6:	2300      	movs	r3, #0
 80251f8:	b29a      	uxth	r2, r3
 80251fa:	42aa      	cmp	r2, r5
 80251fc:	d203      	bcs.n	8025206 <E_EEPROM_XMC4_WriteArray+0x26>
 80251fe:	5cf2      	ldrb	r2, [r6, r3]
 8025200:	54e2      	strb	r2, [r4, r3]
 8025202:	3301      	adds	r3, #1
 8025204:	e7f8      	b.n	80251f8 <E_EEPROM_XMC4_WriteArray+0x18>
 8025206:	bd70      	pop	{r4, r5, r6, pc}
 8025208:	1ffe94d0 	.word	0x1ffe94d0

0802520c <E_EEPROM_XMC4_ReadArray>:
 802520c:	b510      	push	{r4, lr}
 802520e:	4b05      	ldr	r3, [pc, #20]	; (8025224 <E_EEPROM_XMC4_ReadArray+0x18>)
 8025210:	4418      	add	r0, r3
 8025212:	2300      	movs	r3, #0
 8025214:	b29c      	uxth	r4, r3
 8025216:	4294      	cmp	r4, r2
 8025218:	d203      	bcs.n	8025222 <E_EEPROM_XMC4_ReadArray+0x16>
 802521a:	5cc4      	ldrb	r4, [r0, r3]
 802521c:	54cc      	strb	r4, [r1, r3]
 802521e:	3301      	adds	r3, #1
 8025220:	e7f8      	b.n	8025214 <E_EEPROM_XMC4_ReadArray+0x8>
 8025222:	bd10      	pop	{r4, pc}
 8025224:	1ffe94d0 	.word	0x1ffe94d0

08025228 <E_EEPROM_XMC4_UpdateFlashContents>:
 8025228:	e92d 41f3 	stmdb	sp!, {r0, r1, r4, r5, r6, r7, r8, lr}
 802522c:	4c25      	ldr	r4, [pc, #148]	; (80252c4 <E_EEPROM_XMC4_UpdateFlashContents+0x9c>)
 802522e:	4e26      	ldr	r6, [pc, #152]	; (80252c8 <E_EEPROM_XMC4_UpdateFlashContents+0xa0>)
 8025230:	68a3      	ldr	r3, [r4, #8]
 8025232:	6822      	ldr	r2, [r4, #0]
 8025234:	f503 5340 	add.w	r3, r3, #12288	; 0x3000
 8025238:	3304      	adds	r3, #4
 802523a:	ebb2 3f83 	cmp.w	r2, r3, lsl #14
 802523e:	d013      	beq.n	8025268 <E_EEPROM_XMC4_UpdateFlashContents+0x40>
 8025240:	6873      	ldr	r3, [r6, #4]
 8025242:	6827      	ldr	r7, [r4, #0]
 8025244:	4821      	ldr	r0, [pc, #132]	; (80252cc <E_EEPROM_XMC4_UpdateFlashContents+0xa4>)
 8025246:	4922      	ldr	r1, [pc, #136]	; (80252d0 <E_EEPROM_XMC4_UpdateFlashContents+0xa8>)
 8025248:	3301      	adds	r3, #1
 802524a:	6073      	str	r3, [r6, #4]
 802524c:	4b21      	ldr	r3, [pc, #132]	; (80252d4 <E_EEPROM_XMC4_UpdateFlashContents+0xac>)
 802524e:	2200      	movs	r2, #0
 8025250:	619a      	str	r2, [r3, #24]
 8025252:	ab01      	add	r3, sp, #4
 8025254:	f640 72fc 	movw	r2, #4092	; 0xffc
 8025258:	f7ff fb66 	bl	8024928 <XMC_FCE_CalculateCRC32>
 802525c:	9b01      	ldr	r3, [sp, #4]
 802525e:	6033      	str	r3, [r6, #0]
 8025260:	463d      	mov	r5, r7
 8025262:	f507 5880 	add.w	r8, r7, #4096	; 0x1000
 8025266:	e00c      	b.n	8025282 <E_EEPROM_XMC4_UpdateFlashContents+0x5a>
 8025268:	6873      	ldr	r3, [r6, #4]
 802526a:	2b00      	cmp	r3, #0
 802526c:	d0e8      	beq.n	8025240 <E_EEPROM_XMC4_UpdateFlashContents+0x18>
 802526e:	6863      	ldr	r3, [r4, #4]
 8025270:	f3c3 3381 	ubfx	r3, r3, #14, #2
 8025274:	60a3      	str	r3, [r4, #8]
 8025276:	230f      	movs	r3, #15
 8025278:	60e3      	str	r3, [r4, #12]
 802527a:	f7ff fee9 	bl	8025050 <E_EEPROM_XMC4_lInitEraseStateMachine>
 802527e:	b9f0      	cbnz	r0, 80252be <E_EEPROM_XMC4_UpdateFlashContents+0x96>
 8025280:	e7de      	b.n	8025240 <E_EEPROM_XMC4_UpdateFlashContents+0x18>
 8025282:	f7fe fe11 	bl	8023ea8 <XMC_FLASH_ClearStatus>
 8025286:	1be9      	subs	r1, r5, r7
 8025288:	4628      	mov	r0, r5
 802528a:	4431      	add	r1, r6
 802528c:	f7fe fe1a 	bl	8023ec4 <XMC_FLASH_ProgramPage>
 8025290:	f7fe fe10 	bl	8023eb4 <XMC_FLASH_GetStatus>
 8025294:	f1b0 4f00 	cmp.w	r0, #2147483648	; 0x80000000
 8025298:	d007      	beq.n	80252aa <E_EEPROM_XMC4_UpdateFlashContents+0x82>
 802529a:	f505 7580 	add.w	r5, r5, #256	; 0x100
 802529e:	4545      	cmp	r5, r8
 80252a0:	d1ef      	bne.n	8025282 <E_EEPROM_XMC4_UpdateFlashContents+0x5a>
 80252a2:	6823      	ldr	r3, [r4, #0]
 80252a4:	6063      	str	r3, [r4, #4]
 80252a6:	2000      	movs	r0, #0
 80252a8:	e000      	b.n	80252ac <E_EEPROM_XMC4_UpdateFlashContents+0x84>
 80252aa:	2003      	movs	r0, #3
 80252ac:	6823      	ldr	r3, [r4, #0]
 80252ae:	490a      	ldr	r1, [pc, #40]	; (80252d8 <E_EEPROM_XMC4_UpdateFlashContents+0xb0>)
 80252b0:	4a04      	ldr	r2, [pc, #16]	; (80252c4 <E_EEPROM_XMC4_UpdateFlashContents+0x9c>)
 80252b2:	f503 5380 	add.w	r3, r3, #4096	; 0x1000
 80252b6:	428b      	cmp	r3, r1
 80252b8:	bf88      	it	hi
 80252ba:	4b08      	ldrhi	r3, [pc, #32]	; (80252dc <E_EEPROM_XMC4_UpdateFlashContents+0xb4>)
 80252bc:	6013      	str	r3, [r2, #0]
 80252be:	b002      	add	sp, #8
 80252c0:	e8bd 81f0 	ldmia.w	sp!, {r4, r5, r6, r7, r8, pc}
 80252c4:	1ffe93ec 	.word	0x1ffe93ec
 80252c8:	1ffe94c8 	.word	0x1ffe94c8
 80252cc:	08026458 	.word	0x08026458
 80252d0:	1ffe94cc 	.word	0x1ffe94cc
 80252d4:	50020020 	.word	0x50020020
 80252d8:	0c01ffff 	.word	0x0c01ffff
 80252dc:	0c010000 	.word	0x0c010000

080252e0 <E_EEPROM_XMC4_IsFlashEmpty>:
 80252e0:	4b02      	ldr	r3, [pc, #8]	; (80252ec <E_EEPROM_XMC4_IsFlashEmpty+0xc>)
 80252e2:	6858      	ldr	r0, [r3, #4]
 80252e4:	fab0 f080 	clz	r0, r0
 80252e8:	0940      	lsrs	r0, r0, #5
 80252ea:	4770      	bx	lr
 80252ec:	1ffe93ec 	.word	0x1ffe93ec

080252f0 <EVENT_GENERATOR_Init>:
 80252f0:	7b43      	ldrb	r3, [r0, #13]
 80252f2:	b510      	push	{r4, lr}
 80252f4:	4604      	mov	r4, r0
 80252f6:	b94b      	cbnz	r3, 802530c <EVENT_GENERATOR_Init+0x1c>
 80252f8:	6800      	ldr	r0, [r0, #0]
 80252fa:	7b21      	ldrb	r1, [r4, #12]
 80252fc:	6862      	ldr	r2, [r4, #4]
 80252fe:	f7ff faee 	bl	80248de <XMC_ERU_OGU_Init>
 8025302:	68a0      	ldr	r0, [r4, #8]
 8025304:	f7fe fe66 	bl	8023fd4 <XMC_SCU_INTERRUPT_EnableNmiRequest>
 8025308:	2301      	movs	r3, #1
 802530a:	7363      	strb	r3, [r4, #13]
 802530c:	2000      	movs	r0, #0
 802530e:	bd10      	pop	{r4, pc}

08025310 <EVENT_DETECTOR_Init>:
 8025310:	7b03      	ldrb	r3, [r0, #12]
 8025312:	b510      	push	{r4, lr}
 8025314:	4604      	mov	r4, r0
 8025316:	b933      	cbnz	r3, 8025326 <EVENT_DETECTOR_Init+0x16>
 8025318:	6800      	ldr	r0, [r0, #0]
 802531a:	7921      	ldrb	r1, [r4, #4]
 802531c:	68a2      	ldr	r2, [r4, #8]
 802531e:	f7ff fac9 	bl	80248b4 <XMC_ERU_ETL_Init>
 8025322:	2301      	movs	r3, #1
 8025324:	7323      	strb	r3, [r4, #12]
 8025326:	2000      	movs	r0, #0
 8025328:	bd10      	pop	{r4, pc}
	...

0802532c <ECAT_SSC_Init>:
 802532c:	b538      	push	{r3, r4, r5, lr}
 802532e:	4605      	mov	r5, r0
 8025330:	6800      	ldr	r0, [r0, #0]
 8025332:	f7ff feb3 	bl	802509c <E_EEPROM_XMC4_Init>
 8025336:	4604      	mov	r4, r0
 8025338:	bb70      	cbnz	r0, 8025398 <ECAT_SSC_Init+0x6c>
 802533a:	f7ff ffd1 	bl	80252e0 <E_EEPROM_XMC4_IsFlashEmpty>
 802533e:	b150      	cbz	r0, 8025356 <ECAT_SSC_Init+0x2a>
 8025340:	4620      	mov	r0, r4
 8025342:	4916      	ldr	r1, [pc, #88]	; (802539c <ECAT_SSC_Init+0x70>)
 8025344:	f44f 6200 	mov.w	r2, #2048	; 0x800
 8025348:	f7ff ff4a 	bl	80251e0 <E_EEPROM_XMC4_WriteArray>
 802534c:	f7ff ff6c 	bl	8025228 <E_EEPROM_XMC4_UpdateFlashContents>
 8025350:	4604      	mov	r4, r0
 8025352:	bb08      	cbnz	r0, 8025398 <ECAT_SSC_Init+0x6c>
 8025354:	e004      	b.n	8025360 <ECAT_SSC_Init+0x34>
 8025356:	4911      	ldr	r1, [pc, #68]	; (802539c <ECAT_SSC_Init+0x70>)
 8025358:	f44f 6200 	mov.w	r2, #2048	; 0x800
 802535c:	f7ff ff56 	bl	802520c <E_EEPROM_XMC4_ReadArray>
 8025360:	6868      	ldr	r0, [r5, #4]
 8025362:	f7ff fb79 	bl	8024a58 <TIMER_Init>
 8025366:	4604      	mov	r4, r0
 8025368:	b9b0      	cbnz	r0, 8025398 <ECAT_SSC_Init+0x6c>
 802536a:	68a8      	ldr	r0, [r5, #8]
 802536c:	f7ff fe08 	bl	8024f80 <INTERRUPT_Init>
 8025370:	4604      	mov	r4, r0
 8025372:	b988      	cbnz	r0, 8025398 <ECAT_SSC_Init+0x6c>
 8025374:	f000 f898 	bl	80254a8 <HW_Init>
 8025378:	4604      	mov	r4, r0
 802537a:	b968      	cbnz	r0, 8025398 <ECAT_SSC_Init+0x6c>
 802537c:	f7fb fa46 	bl	802080c <MainInit>
 8025380:	4604      	mov	r4, r0
 8025382:	b948      	cbnz	r0, 8025398 <ECAT_SSC_Init+0x6c>
 8025384:	4b06      	ldr	r3, [pc, #24]	; (80253a0 <ECAT_SSC_Init+0x74>)
 8025386:	4a07      	ldr	r2, [pc, #28]	; (80253a4 <ECAT_SSC_Init+0x78>)
 8025388:	601a      	str	r2, [r3, #0]
 802538a:	4b07      	ldr	r3, [pc, #28]	; (80253a8 <ECAT_SSC_Init+0x7c>)
 802538c:	4a07      	ldr	r2, [pc, #28]	; (80253ac <ECAT_SSC_Init+0x80>)
 802538e:	6868      	ldr	r0, [r5, #4]
 8025390:	601a      	str	r2, [r3, #0]
 8025392:	f7ff fb1a 	bl	80249ca <TIMER_Start>
 8025396:	4604      	mov	r4, r0
 8025398:	b2e0      	uxtb	r0, r4
 802539a:	bd38      	pop	{r3, r4, r5, pc}
 802539c:	1ffe8b4c 	.word	0x1ffe8b4c
 80253a0:	1ffea5b0 	.word	0x1ffea5b0
 80253a4:	08025411 	.word	0x08025411
 80253a8:	1ffea4f8 	.word	0x1ffea4f8
 80253ac:	080253b1 	.word	0x080253b1

080253b0 <HW_EepromWrite>:
 80253b0:	f5b0 6f00 	cmp.w	r0, #2048	; 0x800
 80253b4:	b508      	push	{r3, lr}
 80253b6:	d901      	bls.n	80253bc <HW_EepromWrite+0xc>
 80253b8:	2000      	movs	r0, #0
 80253ba:	e01e      	b.n	80253fa <HW_EepromWrite+0x4a>
 80253bc:	4b10      	ldr	r3, [pc, #64]	; (8025400 <HW_EepromWrite+0x50>)
 80253be:	681b      	ldr	r3, [r3, #0]
 80253c0:	2b00      	cmp	r3, #0
 80253c2:	d0f9      	beq.n	80253b8 <HW_EepromWrite+0x8>
 80253c4:	4a0f      	ldr	r2, [pc, #60]	; (8025404 <HW_EepromWrite+0x54>)
 80253c6:	2807      	cmp	r0, #7
 80253c8:	8812      	ldrh	r2, [r2, #0]
 80253ca:	f823 2010 	strh.w	r2, [r3, r0, lsl #1]
 80253ce:	d003      	beq.n	80253d8 <HW_EepromWrite+0x28>
 80253d0:	f240 33ff 	movw	r3, #1023	; 0x3ff
 80253d4:	4298      	cmp	r0, r3
 80253d6:	d1ef      	bne.n	80253b8 <HW_EepromWrite+0x8>
 80253d8:	2000      	movs	r0, #0
 80253da:	490b      	ldr	r1, [pc, #44]	; (8025408 <HW_EepromWrite+0x58>)
 80253dc:	f44f 6200 	mov.w	r2, #2048	; 0x800
 80253e0:	f7ff fefe 	bl	80251e0 <E_EEPROM_XMC4_WriteArray>
 80253e4:	2800      	cmp	r0, #0
 80253e6:	d0e7      	beq.n	80253b8 <HW_EepromWrite+0x8>
 80253e8:	4a08      	ldr	r2, [pc, #32]	; (802540c <HW_EepromWrite+0x5c>)
 80253ea:	8813      	ldrh	r3, [r2, #0]
 80253ec:	f3c3 030e 	ubfx	r3, r3, #0, #15
 80253f0:	8013      	strh	r3, [r2, #0]
 80253f2:	b672      	cpsid	i
 80253f4:	f7ff ff18 	bl	8025228 <E_EEPROM_XMC4_UpdateFlashContents>
 80253f8:	b662      	cpsie	i
 80253fa:	b280      	uxth	r0, r0
 80253fc:	bd08      	pop	{r3, pc}
 80253fe:	bf00      	nop
 8025400:	1ffea5a8 	.word	0x1ffea5a8
 8025404:	54010508 	.word	0x54010508
 8025408:	1ffe8b4c 	.word	0x1ffe8b4c
 802540c:	54010502 	.word	0x54010502

08025410 <HW_EepromReload>:
 8025410:	4b0f      	ldr	r3, [pc, #60]	; (8025450 <HW_EepromReload+0x40>)
 8025412:	681a      	ldr	r2, [r3, #0]
 8025414:	f5b2 6f00 	cmp.w	r2, #2048	; 0x800
 8025418:	b570      	push	{r4, r5, r6, lr}
 802541a:	461c      	mov	r4, r3
 802541c:	d816      	bhi.n	802544c <HW_EepromReload+0x3c>
 802541e:	4b0d      	ldr	r3, [pc, #52]	; (8025454 <HW_EepromReload+0x44>)
 8025420:	681e      	ldr	r6, [r3, #0]
 8025422:	b19e      	cbz	r6, 802544c <HW_EepromReload+0x3c>
 8025424:	2300      	movs	r3, #0
 8025426:	eb06 0242 	add.w	r2, r6, r2, lsl #1
 802542a:	4d0b      	ldr	r5, [pc, #44]	; (8025458 <HW_EepromReload+0x48>)
 802542c:	6810      	ldr	r0, [r2, #0]
 802542e:	6851      	ldr	r1, [r2, #4]
 8025430:	4a0a      	ldr	r2, [pc, #40]	; (802545c <HW_EepromReload+0x4c>)
 8025432:	c503      	stmia	r5!, {r0, r1}
 8025434:	f423 43f0 	bic.w	r3, r3, #30720	; 0x7800
 8025438:	b29b      	uxth	r3, r3
 802543a:	8013      	strh	r3, [r2, #0]
 802543c:	8813      	ldrh	r3, [r2, #0]
 802543e:	6822      	ldr	r2, [r4, #0]
 8025440:	b29b      	uxth	r3, r3
 8025442:	f403 61e0 	and.w	r1, r3, #1792	; 0x700
 8025446:	f5b1 6f80 	cmp.w	r1, #1024	; 0x400
 802544a:	d0ec      	beq.n	8025426 <HW_EepromReload+0x16>
 802544c:	2000      	movs	r0, #0
 802544e:	bd70      	pop	{r4, r5, r6, pc}
 8025450:	54010504 	.word	0x54010504
 8025454:	1ffea5a8 	.word	0x1ffea5a8
 8025458:	54010508 	.word	0x54010508
 802545c:	54010502 	.word	0x54010502

08025460 <ECAT0_0_IRQHandler>:
 8025460:	f7fb bacc 	b.w	80209fc <PDI_Isr>

08025464 <CCU43_1_IRQHandler>:
 8025464:	4a02      	ldr	r2, [pc, #8]	; (8025470 <CCU43_1_IRQHandler+0xc>)
 8025466:	6813      	ldr	r3, [r2, #0]
 8025468:	3301      	adds	r3, #1
 802546a:	6013      	str	r3, [r2, #0]
 802546c:	f7fb b898 	b.w	80205a0 <ECAT_CheckTimer>
 8025470:	1ffea4cc 	.word	0x1ffea4cc

08025474 <ENABLE_ESC_INT>:
 8025474:	b508      	push	{r3, lr}
 8025476:	f000 fb25 	bl	8025ac4 <ENABLE_ESC_INT_USER>
 802547a:	4809      	ldr	r0, [pc, #36]	; (80254a0 <ENABLE_ESC_INT+0x2c>)
 802547c:	f44f 5300 	mov.w	r3, #8192	; 0x2000
 8025480:	60c3      	str	r3, [r0, #12]
 8025482:	4b08      	ldr	r3, [pc, #32]	; (80254a4 <ENABLE_ESC_INT+0x30>)
 8025484:	781a      	ldrb	r2, [r3, #0]
 8025486:	b253      	sxtb	r3, r2
 8025488:	2b00      	cmp	r3, #0
 802548a:	bfa1      	itttt	ge
 802548c:	f002 021f 	andge.w	r2, r2, #31
 8025490:	095b      	lsrge	r3, r3, #5
 8025492:	2101      	movge	r1, #1
 8025494:	fa01 f202 	lslge.w	r2, r1, r2
 8025498:	bfa8      	it	ge
 802549a:	f840 2023 	strge.w	r2, [r0, r3, lsl #2]
 802549e:	bd08      	pop	{r3, pc}
 80254a0:	e000e100 	.word	0xe000e100
 80254a4:	08026454 	.word	0x08026454

080254a8 <HW_Init>:
 80254a8:	e92d 47f0 	stmdb	sp!, {r4, r5, r6, r7, r8, r9, sl, lr}
 80254ac:	b086      	sub	sp, #24
 80254ae:	ac06      	add	r4, sp, #24
 80254b0:	2500      	movs	r5, #0
 80254b2:	f804 5d0c 	strb.w	r5, [r4, #-12]!
 80254b6:	4bc1      	ldr	r3, [pc, #772]	; (80257bc <HW_Init+0x314>)
 80254b8:	4fc1      	ldr	r7, [pc, #772]	; (80257c0 <HW_Init+0x318>)
 80254ba:	48c2      	ldr	r0, [pc, #776]	; (80257c4 <HW_Init+0x31c>)
 80254bc:	601f      	str	r7, [r3, #0]
 80254be:	210f      	movs	r1, #15
 80254c0:	4622      	mov	r2, r4
 80254c2:	9500      	str	r5, [sp, #0]
 80254c4:	9501      	str	r5, [sp, #4]
 80254c6:	9502      	str	r5, [sp, #8]
 80254c8:	f7fe fd2a 	bl	8023f20 <XMC_GPIO_Init>
 80254cc:	48be      	ldr	r0, [pc, #760]	; (80257c8 <HW_Init+0x320>)
 80254ce:	2107      	movs	r1, #7
 80254d0:	4622      	mov	r2, r4
 80254d2:	f7fe fd25 	bl	8023f20 <XMC_GPIO_Init>
 80254d6:	48bc      	ldr	r0, [pc, #752]	; (80257c8 <HW_Init+0x320>)
 80254d8:	2102      	movs	r1, #2
 80254da:	4622      	mov	r2, r4
 80254dc:	f7fe fd20 	bl	8023f20 <XMC_GPIO_Init>
 80254e0:	48b9      	ldr	r0, [pc, #740]	; (80257c8 <HW_Init+0x320>)
 80254e2:	2101      	movs	r1, #1
 80254e4:	4622      	mov	r2, r4
 80254e6:	f7fe fd1b 	bl	8023f20 <XMC_GPIO_Init>
 80254ea:	48b7      	ldr	r0, [pc, #732]	; (80257c8 <HW_Init+0x320>)
 80254ec:	4629      	mov	r1, r5
 80254ee:	4622      	mov	r2, r4
 80254f0:	f7fe fd16 	bl	8023f20 <XMC_GPIO_Init>
 80254f4:	48b4      	ldr	r0, [pc, #720]	; (80257c8 <HW_Init+0x320>)
 80254f6:	2106      	movs	r1, #6
 80254f8:	4622      	mov	r2, r4
 80254fa:	f7fe fd11 	bl	8023f20 <XMC_GPIO_Init>
 80254fe:	48b2      	ldr	r0, [pc, #712]	; (80257c8 <HW_Init+0x320>)
 8025500:	2104      	movs	r1, #4
 8025502:	4622      	mov	r2, r4
 8025504:	f7fe fd0c 	bl	8023f20 <XMC_GPIO_Init>
 8025508:	48b0      	ldr	r0, [pc, #704]	; (80257cc <HW_Init+0x324>)
 802550a:	2106      	movs	r1, #6
 802550c:	4622      	mov	r2, r4
 802550e:	f7fe fd07 	bl	8023f20 <XMC_GPIO_Init>
 8025512:	48ad      	ldr	r0, [pc, #692]	; (80257c8 <HW_Init+0x320>)
 8025514:	2105      	movs	r1, #5
 8025516:	4622      	mov	r2, r4
 8025518:	f7fe fd02 	bl	8023f20 <XMC_GPIO_Init>
 802551c:	48ac      	ldr	r0, [pc, #688]	; (80257d0 <HW_Init+0x328>)
 802551e:	2104      	movs	r1, #4
 8025520:	4622      	mov	r2, r4
 8025522:	f7fe fcfd 	bl	8023f20 <XMC_GPIO_Init>
 8025526:	48ab      	ldr	r0, [pc, #684]	; (80257d4 <HW_Init+0x32c>)
 8025528:	2104      	movs	r1, #4
 802552a:	4622      	mov	r2, r4
 802552c:	f7fe fcf8 	bl	8023f20 <XMC_GPIO_Init>
 8025530:	48a8      	ldr	r0, [pc, #672]	; (80257d4 <HW_Init+0x32c>)
 8025532:	2105      	movs	r1, #5
 8025534:	4622      	mov	r2, r4
 8025536:	f7fe fcf3 	bl	8023f20 <XMC_GPIO_Init>
 802553a:	48a6      	ldr	r0, [pc, #664]	; (80257d4 <HW_Init+0x32c>)
 802553c:	2106      	movs	r1, #6
 802553e:	4622      	mov	r2, r4
 8025540:	f7fe fcee 	bl	8023f20 <XMC_GPIO_Init>
 8025544:	48a3      	ldr	r0, [pc, #652]	; (80257d4 <HW_Init+0x32c>)
 8025546:	210b      	movs	r1, #11
 8025548:	4622      	mov	r2, r4
 802554a:	f7fe fce9 	bl	8023f20 <XMC_GPIO_Init>
 802554e:	48a1      	ldr	r0, [pc, #644]	; (80257d4 <HW_Init+0x32c>)
 8025550:	2109      	movs	r1, #9
 8025552:	4622      	mov	r2, r4
 8025554:	f7fe fce4 	bl	8023f20 <XMC_GPIO_Init>
 8025558:	489e      	ldr	r0, [pc, #632]	; (80257d4 <HW_Init+0x32c>)
 802555a:	2101      	movs	r1, #1
 802555c:	4622      	mov	r2, r4
 802555e:	f7fe fcdf 	bl	8023f20 <XMC_GPIO_Init>
 8025562:	489d      	ldr	r0, [pc, #628]	; (80257d8 <HW_Init+0x330>)
 8025564:	2102      	movs	r1, #2
 8025566:	4622      	mov	r2, r4
 8025568:	f7fe fcda 	bl	8023f20 <XMC_GPIO_Init>
 802556c:	4899      	ldr	r0, [pc, #612]	; (80257d4 <HW_Init+0x32c>)
 802556e:	210a      	movs	r1, #10
 8025570:	4622      	mov	r2, r4
 8025572:	f7fe fcd5 	bl	8023f20 <XMC_GPIO_Init>
 8025576:	f89d 3000 	ldrb.w	r3, [sp]
 802557a:	f365 0300 	bfi	r3, r5, #0, #1
 802557e:	f88d 3000 	strb.w	r3, [sp]
 8025582:	f89d 3002 	ldrb.w	r3, [sp, #2]
 8025586:	f003 033f 	and.w	r3, r3, #63	; 0x3f
 802558a:	f365 0304 	bfi	r3, r5, #0, #5
 802558e:	f88d 3002 	strb.w	r3, [sp, #2]
 8025592:	f89d 3001 	ldrb.w	r3, [sp, #1]
 8025596:	f003 03fc 	and.w	r3, r3, #252	; 0xfc
 802559a:	f365 1305 	bfi	r3, r5, #4, #2
 802559e:	f88d 3001 	strb.w	r3, [sp, #1]
 80255a2:	f89d 3004 	ldrb.w	r3, [sp, #4]
 80255a6:	9800      	ldr	r0, [sp, #0]
 80255a8:	2601      	movs	r6, #1
 80255aa:	f366 0301 	bfi	r3, r6, #0, #2
 80255ae:	f366 0383 	bfi	r3, r6, #2, #2
 80255b2:	f366 1305 	bfi	r3, r6, #4, #2
 80255b6:	f366 1387 	bfi	r3, r6, #6, #2
 80255ba:	f88d 3004 	strb.w	r3, [sp, #4]
 80255be:	f89d 3005 	ldrb.w	r3, [sp, #5]
 80255c2:	f366 1305 	bfi	r3, r6, #4, #2
 80255c6:	f366 0383 	bfi	r3, r6, #2, #2
 80255ca:	f366 0301 	bfi	r3, r6, #0, #2
 80255ce:	f88d 3005 	strb.w	r3, [sp, #5]
 80255d2:	f89d 3006 	ldrb.w	r3, [sp, #6]
 80255d6:	f366 0301 	bfi	r3, r6, #0, #2
 80255da:	f88d 3006 	strb.w	r3, [sp, #6]
 80255de:	f89d 3007 	ldrb.w	r3, [sp, #7]
 80255e2:	f366 1305 	bfi	r3, r6, #4, #2
 80255e6:	f365 1387 	bfi	r3, r5, #6, #2
 80255ea:	f88d 3007 	strb.w	r3, [sp, #7]
 80255ee:	f89d 3008 	ldrb.w	r3, [sp, #8]
 80255f2:	9901      	ldr	r1, [sp, #4]
 80255f4:	f003 03c0 	and.w	r3, r3, #192	; 0xc0
 80255f8:	f365 1387 	bfi	r3, r5, #6, #2
 80255fc:	f88d 3008 	strb.w	r3, [sp, #8]
 8025600:	f89d 3009 	ldrb.w	r3, [sp, #9]
 8025604:	f003 03c3 	and.w	r3, r3, #195	; 0xc3
 8025608:	f366 0301 	bfi	r3, r6, #0, #2
 802560c:	f88d 3009 	strb.w	r3, [sp, #9]
 8025610:	f89d 300a 	ldrb.w	r3, [sp, #10]
 8025614:	f365 0301 	bfi	r3, r5, #0, #2
 8025618:	f88d 300a 	strb.w	r3, [sp, #10]
 802561c:	f89d 300b 	ldrb.w	r3, [sp, #11]
 8025620:	f003 03cf 	and.w	r3, r3, #207	; 0xcf
 8025624:	f365 1387 	bfi	r3, r5, #6, #2
 8025628:	f88d 300b 	strb.w	r3, [sp, #11]
 802562c:	4b6b      	ldr	r3, [pc, #428]	; (80257dc <HW_Init+0x334>)
 802562e:	9a02      	ldr	r2, [sp, #8]
 8025630:	6018      	str	r0, [r3, #0]
 8025632:	6059      	str	r1, [r3, #4]
 8025634:	4638      	mov	r0, r7
 8025636:	609a      	str	r2, [r3, #8]
 8025638:	f7ff f902 	bl	8024840 <XMC_ECAT_Init>
 802563c:	27a0      	movs	r7, #160	; 0xa0
 802563e:	f44f 3380 	mov.w	r3, #65536	; 0x10000
 8025642:	f04f 0a02 	mov.w	sl, #2
 8025646:	4866      	ldr	r0, [pc, #408]	; (80257e0 <HW_Init+0x338>)
 8025648:	9304      	str	r3, [sp, #16]
 802564a:	2106      	movs	r1, #6
 802564c:	4622      	mov	r2, r4
 802564e:	f88d a014 	strb.w	sl, [sp, #20]
 8025652:	f88d 700c 	strb.w	r7, [sp, #12]
 8025656:	f7fe fc63 	bl	8023f20 <XMC_GPIO_Init>
 802565a:	4861      	ldr	r0, [pc, #388]	; (80257e0 <HW_Init+0x338>)
 802565c:	f88d 700c 	strb.w	r7, [sp, #12]
 8025660:	2105      	movs	r1, #5
 8025662:	4622      	mov	r2, r4
 8025664:	f7fe fc5c 	bl	8023f20 <XMC_GPIO_Init>
 8025668:	485d      	ldr	r0, [pc, #372]	; (80257e0 <HW_Init+0x338>)
 802566a:	f88d 700c 	strb.w	r7, [sp, #12]
 802566e:	2104      	movs	r1, #4
 8025670:	4622      	mov	r2, r4
 8025672:	f7fe fc55 	bl	8023f20 <XMC_GPIO_Init>
 8025676:	485a      	ldr	r0, [pc, #360]	; (80257e0 <HW_Init+0x338>)
 8025678:	f88d 700c 	strb.w	r7, [sp, #12]
 802567c:	4651      	mov	r1, sl
 802567e:	4622      	mov	r2, r4
 8025680:	f7fe fc4e 	bl	8023f20 <XMC_GPIO_Init>
 8025684:	4856      	ldr	r0, [pc, #344]	; (80257e0 <HW_Init+0x338>)
 8025686:	f88d 700c 	strb.w	r7, [sp, #12]
 802568a:	4631      	mov	r1, r6
 802568c:	4622      	mov	r2, r4
 802568e:	f7fe fc47 	bl	8023f20 <XMC_GPIO_Init>
 8025692:	f04f 0888 	mov.w	r8, #136	; 0x88
 8025696:	484f      	ldr	r0, [pc, #316]	; (80257d4 <HW_Init+0x32c>)
 8025698:	f88d 800c 	strb.w	r8, [sp, #12]
 802569c:	2103      	movs	r1, #3
 802569e:	4622      	mov	r2, r4
 80256a0:	f7fe fc3e 	bl	8023f20 <XMC_GPIO_Init>
 80256a4:	484b      	ldr	r0, [pc, #300]	; (80257d4 <HW_Init+0x32c>)
 80256a6:	f88d 800c 	strb.w	r8, [sp, #12]
 80256aa:	4651      	mov	r1, sl
 80256ac:	4622      	mov	r2, r4
 80256ae:	f7fe fc37 	bl	8023f20 <XMC_GPIO_Init>
 80256b2:	f04f 0998 	mov.w	r9, #152	; 0x98
 80256b6:	4846      	ldr	r0, [pc, #280]	; (80257d0 <HW_Init+0x328>)
 80256b8:	f88d 900c 	strb.w	r9, [sp, #12]
 80256bc:	4651      	mov	r1, sl
 80256be:	4622      	mov	r2, r4
 80256c0:	f7fe fc2e 	bl	8023f20 <XMC_GPIO_Init>
 80256c4:	4842      	ldr	r0, [pc, #264]	; (80257d0 <HW_Init+0x328>)
 80256c6:	f88d 900c 	strb.w	r9, [sp, #12]
 80256ca:	4631      	mov	r1, r6
 80256cc:	4622      	mov	r2, r4
 80256ce:	f7fe fc27 	bl	8023f20 <XMC_GPIO_Init>
 80256d2:	483f      	ldr	r0, [pc, #252]	; (80257d0 <HW_Init+0x328>)
 80256d4:	f88d 700c 	strb.w	r7, [sp, #12]
 80256d8:	4629      	mov	r1, r5
 80256da:	4622      	mov	r2, r4
 80256dc:	f7fe fc20 	bl	8023f20 <XMC_GPIO_Init>
 80256e0:	483f      	ldr	r0, [pc, #252]	; (80257e0 <HW_Init+0x338>)
 80256e2:	f88d 700c 	strb.w	r7, [sp, #12]
 80256e6:	4629      	mov	r1, r5
 80256e8:	4622      	mov	r2, r4
 80256ea:	f7fe fc19 	bl	8023f20 <XMC_GPIO_Init>
 80256ee:	4838      	ldr	r0, [pc, #224]	; (80257d0 <HW_Init+0x328>)
 80256f0:	f88d 700c 	strb.w	r7, [sp, #12]
 80256f4:	2103      	movs	r1, #3
 80256f6:	4622      	mov	r2, r4
 80256f8:	f7fe fc12 	bl	8023f20 <XMC_GPIO_Init>
 80256fc:	4835      	ldr	r0, [pc, #212]	; (80257d4 <HW_Init+0x32c>)
 80256fe:	f88d 500c 	strb.w	r5, [sp, #12]
 8025702:	210c      	movs	r1, #12
 8025704:	4622      	mov	r2, r4
 8025706:	f7fe fc0b 	bl	8023f20 <XMC_GPIO_Init>
 802570a:	4832      	ldr	r0, [pc, #200]	; (80257d4 <HW_Init+0x32c>)
 802570c:	210c      	movs	r1, #12
 802570e:	4632      	mov	r2, r6
 8025710:	f7ff f92d 	bl	802496e <XMC_GPIO_SetHardwareControl>
 8025714:	4832      	ldr	r0, [pc, #200]	; (80257e0 <HW_Init+0x338>)
 8025716:	f88d 700c 	strb.w	r7, [sp, #12]
 802571a:	2103      	movs	r1, #3
 802571c:	4622      	mov	r2, r4
 802571e:	f7fe fbff 	bl	8023f20 <XMC_GPIO_Init>
 8025722:	482b      	ldr	r0, [pc, #172]	; (80257d0 <HW_Init+0x328>)
 8025724:	f88d 800c 	strb.w	r8, [sp, #12]
 8025728:	210c      	movs	r1, #12
 802572a:	4622      	mov	r2, r4
 802572c:	f7fe fbf8 	bl	8023f20 <XMC_GPIO_Init>
 8025730:	4828      	ldr	r0, [pc, #160]	; (80257d4 <HW_Init+0x32c>)
 8025732:	f88d 900c 	strb.w	r9, [sp, #12]
 8025736:	2108      	movs	r1, #8
 8025738:	4622      	mov	r2, r4
 802573a:	f7fe fbf1 	bl	8023f20 <XMC_GPIO_Init>
 802573e:	4825      	ldr	r0, [pc, #148]	; (80257d4 <HW_Init+0x32c>)
 8025740:	2108      	movs	r1, #8
 8025742:	462a      	mov	r2, r5
 8025744:	f7ff f913 	bl	802496e <XMC_GPIO_SetHardwareControl>
 8025748:	4822      	ldr	r0, [pc, #136]	; (80257d4 <HW_Init+0x32c>)
 802574a:	f88d 900c 	strb.w	r9, [sp, #12]
 802574e:	2107      	movs	r1, #7
 8025750:	4622      	mov	r2, r4
 8025752:	f7fe fbe5 	bl	8023f20 <XMC_GPIO_Init>
 8025756:	481f      	ldr	r0, [pc, #124]	; (80257d4 <HW_Init+0x32c>)
 8025758:	2107      	movs	r1, #7
 802575a:	462a      	mov	r2, r5
 802575c:	f7ff f907 	bl	802496e <XMC_GPIO_SetHardwareControl>
 8025760:	481c      	ldr	r0, [pc, #112]	; (80257d4 <HW_Init+0x32c>)
 8025762:	f88d 800c 	strb.w	r8, [sp, #12]
 8025766:	4629      	mov	r1, r5
 8025768:	4622      	mov	r2, r4
 802576a:	f7fe fbd9 	bl	8023f20 <XMC_GPIO_Init>
 802576e:	b2e8      	uxtb	r0, r5
 8025770:	3501      	adds	r5, #1
 8025772:	f7ff f895 	bl	80248a0 <XMC_ECAT_DisableSyncManChannel>
 8025776:	2d08      	cmp	r5, #8
 8025778:	d1f9      	bne.n	802576e <HW_Init+0x2c6>
 802577a:	f04f 30ff 	mov.w	r0, #4294967295
 802577e:	f7ff f885 	bl	802488c <XMC_ECAT_DisableEvent>
 8025782:	4b18      	ldr	r3, [pc, #96]	; (80257e4 <HW_Init+0x33c>)
 8025784:	68db      	ldr	r3, [r3, #12]
 8025786:	f3c3 2302 	ubfx	r3, r3, #8, #3
 802578a:	f1c3 0107 	rsb	r1, r3, #7
 802578e:	2906      	cmp	r1, #6
 8025790:	bf28      	it	cs
 8025792:	2106      	movcs	r1, #6
 8025794:	b10b      	cbz	r3, 802579a <HW_Init+0x2f2>
 8025796:	1e5a      	subs	r2, r3, #1
 8025798:	e000      	b.n	802579c <HW_Init+0x2f4>
 802579a:	461a      	mov	r2, r3
 802579c:	2301      	movs	r3, #1
 802579e:	408b      	lsls	r3, r1
 80257a0:	3b01      	subs	r3, #1
 80257a2:	4093      	lsls	r3, r2
 80257a4:	009b      	lsls	r3, r3, #2
 80257a6:	4a10      	ldr	r2, [pc, #64]	; (80257e8 <HW_Init+0x340>)
 80257a8:	b2db      	uxtb	r3, r3
 80257aa:	f882 336d 	strb.w	r3, [r2, #877]	; 0x36d
 80257ae:	f7ff fe61 	bl	8025474 <ENABLE_ESC_INT>
 80257b2:	2000      	movs	r0, #0
 80257b4:	b006      	add	sp, #24
 80257b6:	e8bd 87f0 	ldmia.w	sp!, {r4, r5, r6, r7, r8, r9, sl, pc}
 80257ba:	bf00      	nop
 80257bc:	1ffea5a8 	.word	0x1ffea5a8
 80257c0:	1ffe8b4c 	.word	0x1ffe8b4c
 80257c4:	48028100 	.word	0x48028100
 80257c8:	48028500 	.word	0x48028500
 80257cc:	48028200 	.word	0x48028200
 80257d0:	48028300 	.word	0x48028300
 80257d4:	48028000 	.word	0x48028000
 80257d8:	48028f00 	.word	0x48028f00
 80257dc:	500041b0 	.word	0x500041b0
 80257e0:	48028600 	.word	0x48028600
 80257e4:	e000ed00 	.word	0xe000ed00
 80257e8:	e000e100 	.word	0xe000e100

080257ec <DISABLE_ESC_INT>:
 80257ec:	b510      	push	{r4, lr}
 80257ee:	f3ef 8410 	mrs	r4, PRIMASK
 80257f2:	b672      	cpsid	i
 80257f4:	f000 f98c 	bl	8025b10 <DISABLE_ESC_INT_USER>
 80257f8:	480e      	ldr	r0, [pc, #56]	; (8025834 <DISABLE_ESC_INT+0x48>)
 80257fa:	f44f 5300 	mov.w	r3, #8192	; 0x2000
 80257fe:	f8c0 308c 	str.w	r3, [r0, #140]	; 0x8c
 8025802:	f3bf 8f4f 	dsb	sy
 8025806:	f3bf 8f6f 	isb	sy
 802580a:	4b0b      	ldr	r3, [pc, #44]	; (8025838 <DISABLE_ESC_INT+0x4c>)
 802580c:	781a      	ldrb	r2, [r3, #0]
 802580e:	b253      	sxtb	r3, r2
 8025810:	2b00      	cmp	r3, #0
 8025812:	db0c      	blt.n	802582e <DISABLE_ESC_INT+0x42>
 8025814:	095b      	lsrs	r3, r3, #5
 8025816:	2101      	movs	r1, #1
 8025818:	3320      	adds	r3, #32
 802581a:	f002 021f 	and.w	r2, r2, #31
 802581e:	fa01 f202 	lsl.w	r2, r1, r2
 8025822:	f840 2023 	str.w	r2, [r0, r3, lsl #2]
 8025826:	f3bf 8f4f 	dsb	sy
 802582a:	f3bf 8f6f 	isb	sy
 802582e:	f384 8810 	msr	PRIMASK, r4
 8025832:	bd10      	pop	{r4, pc}
 8025834:	e000e100 	.word	0xe000e100
 8025838:	08026454 	.word	0x08026454

0802583c <DIGITAL_IO_Init>:
 802583c:	b510      	push	{r4, lr}
 802583e:	4604      	mov	r4, r0
 8025840:	1d22      	adds	r2, r4, #4
 8025842:	7c21      	ldrb	r1, [r4, #16]
 8025844:	6800      	ldr	r0, [r0, #0]
 8025846:	f7fe fb6b 	bl	8023f20 <XMC_GPIO_Init>
 802584a:	6820      	ldr	r0, [r4, #0]
 802584c:	7c21      	ldrb	r1, [r4, #16]
 802584e:	7c62      	ldrb	r2, [r4, #17]
 8025850:	f7ff f88d 	bl	802496e <XMC_GPIO_SetHardwareControl>
 8025854:	2000      	movs	r0, #0
 8025856:	bd10      	pop	{r4, pc}

08025858 <SystemCoreSetup>:
 8025858:	4b19      	ldr	r3, [pc, #100]	; (80258c0 <SystemCoreSetup+0x68>)
 802585a:	4a1a      	ldr	r2, [pc, #104]	; (80258c4 <SystemCoreSetup+0x6c>)
 802585c:	68d9      	ldr	r1, [r3, #12]
 802585e:	f421 61e0 	bic.w	r1, r1, #1792	; 0x700
 8025862:	0409      	lsls	r1, r1, #16
 8025864:	0c09      	lsrs	r1, r1, #16
 8025866:	430a      	orrs	r2, r1
 8025868:	60da      	str	r2, [r3, #12]
 802586a:	b672      	cpsid	i
 802586c:	4a16      	ldr	r2, [pc, #88]	; (80258c8 <SystemCoreSetup+0x70>)
 802586e:	609a      	str	r2, [r3, #8]
 8025870:	f3bf 8f4f 	dsb	sy
 8025874:	b662      	cpsie	i
 8025876:	f8d3 2088 	ldr.w	r2, [r3, #136]	; 0x88
 802587a:	4814      	ldr	r0, [pc, #80]	; (80258cc <SystemCoreSetup+0x74>)
 802587c:	f442 0270 	orr.w	r2, r2, #15728640	; 0xf00000
 8025880:	f241 0114 	movw	r1, #4116	; 0x1014
 8025884:	f8c3 2088 	str.w	r2, [r3, #136]	; 0x88
 8025888:	5842      	ldr	r2, [r0, r1]
 802588a:	f022 020f 	bic.w	r2, r2, #15
 802588e:	f042 0204 	orr.w	r2, r2, #4
 8025892:	5042      	str	r2, [r0, r1]
 8025894:	695a      	ldr	r2, [r3, #20]
 8025896:	f022 0210 	bic.w	r2, r2, #16
 802589a:	615a      	str	r2, [r3, #20]
 802589c:	695a      	ldr	r2, [r3, #20]
 802589e:	f022 0208 	bic.w	r2, r2, #8
 80258a2:	615a      	str	r2, [r3, #20]
 80258a4:	6a5a      	ldr	r2, [r3, #36]	; 0x24
 80258a6:	f422 3280 	bic.w	r2, r2, #65536	; 0x10000
 80258aa:	625a      	str	r2, [r3, #36]	; 0x24
 80258ac:	6a5a      	ldr	r2, [r3, #36]	; 0x24
 80258ae:	f422 3200 	bic.w	r2, r2, #131072	; 0x20000
 80258b2:	625a      	str	r2, [r3, #36]	; 0x24
 80258b4:	6a5a      	ldr	r2, [r3, #36]	; 0x24
 80258b6:	f422 2280 	bic.w	r2, r2, #262144	; 0x40000
 80258ba:	625a      	str	r2, [r3, #36]	; 0x24
 80258bc:	4770      	bx	lr
 80258be:	bf00      	nop
 80258c0:	e000ed00 	.word	0xe000ed00
 80258c4:	05fa0100 	.word	0x05fa0100
 80258c8:	08000000 	.word	0x08000000
 80258cc:	58001000 	.word	0x58001000

080258d0 <CLOCK_XMC4_Init>:
 80258d0:	2301      	movs	r3, #1
 80258d2:	7003      	strb	r3, [r0, #0]
 80258d4:	2000      	movs	r0, #0
 80258d6:	4770      	bx	lr

080258d8 <OSCHP_GetFrequency>:
 80258d8:	4800      	ldr	r0, [pc, #0]	; (80258dc <OSCHP_GetFrequency+0x4>)
 80258da:	4770      	bx	lr
 80258dc:	00b71b00 	.word	0x00b71b00

080258e0 <SystemCoreClockSetup>:
 80258e0:	b530      	push	{r4, r5, lr}
 80258e2:	4d15      	ldr	r5, [pc, #84]	; (8025938 <SystemCoreClockSetup+0x58>)
 80258e4:	cd0f      	ldmia	r5!, {r0, r1, r2, r3}
 80258e6:	b087      	sub	sp, #28
 80258e8:	ac01      	add	r4, sp, #4
 80258ea:	c40f      	stmia	r4!, {r0, r1, r2, r3}
 80258ec:	682b      	ldr	r3, [r5, #0]
 80258ee:	6023      	str	r3, [r4, #0]
 80258f0:	a801      	add	r0, sp, #4
 80258f2:	f7fe fd87 	bl	8024404 <XMC_SCU_CLOCK_Init>
 80258f6:	2000      	movs	r0, #0
 80258f8:	f7fe fbbc 	bl	8024074 <XMC_SCU_HIB_SetRtcClockSource>
 80258fc:	f44f 3080 	mov.w	r0, #65536	; 0x10000
 8025900:	f7fe fb94 	bl	802402c <XMC_SCU_CLOCK_SetUsbClockSource>
 8025904:	2006      	movs	r0, #6
 8025906:	f7fe fbfd 	bl	8024104 <XMC_SCU_CLOCK_SetUsbClockDivider>
 802590a:	2164      	movs	r1, #100	; 0x64
 802590c:	2003      	movs	r0, #3
 802590e:	f7fe fc31 	bl	8024174 <XMC_SCU_CLOCK_StartUsbPll>
 8025912:	4a0a      	ldr	r2, [pc, #40]	; (802593c <SystemCoreClockSetup+0x5c>)
 8025914:	6b93      	ldr	r3, [r2, #56]	; 0x38
 8025916:	f423 3380 	bic.w	r3, r3, #65536	; 0x10000
 802591a:	6393      	str	r3, [r2, #56]	; 0x38
 802591c:	2002      	movs	r0, #2
 802591e:	f7fe fc0f 	bl	8024140 <XMC_SCU_CLOCK_SetECATClockDivider>
 8025922:	2000      	movs	r0, #0
 8025924:	f7fe fb8c 	bl	8024040 <XMC_SCU_CLOCK_SetWdtClockSource>
 8025928:	2001      	movs	r0, #1
 802592a:	f7fe fbff 	bl	802412c <XMC_SCU_CLOCK_SetWdtClockDivider>
 802592e:	2001      	movs	r0, #1
 8025930:	f7fe fbf2 	bl	8024118 <XMC_SCU_CLOCK_SetEbuClockDivider>
 8025934:	b007      	add	sp, #28
 8025936:	bd30      	pop	{r4, r5, pc}
 8025938:	0802649c 	.word	0x0802649c
 802593c:	50004600 	.word	0x50004600

08025940 <DAVE_Init>:
 8025940:	b508      	push	{r3, lr}
 8025942:	4817      	ldr	r0, [pc, #92]	; (80259a0 <DAVE_Init+0x60>)
 8025944:	f7ff ffc4 	bl	80258d0 <CLOCK_XMC4_Init>
 8025948:	bb40      	cbnz	r0, 802599c <DAVE_Init+0x5c>
 802594a:	4816      	ldr	r0, [pc, #88]	; (80259a4 <DAVE_Init+0x64>)
 802594c:	f7ff fcee 	bl	802532c <ECAT_SSC_Init>
 8025950:	bb20      	cbnz	r0, 802599c <DAVE_Init+0x5c>
 8025952:	4815      	ldr	r0, [pc, #84]	; (80259a8 <DAVE_Init+0x68>)
 8025954:	f7ff fb14 	bl	8024f80 <INTERRUPT_Init>
 8025958:	bb00      	cbnz	r0, 802599c <DAVE_Init+0x5c>
 802595a:	4814      	ldr	r0, [pc, #80]	; (80259ac <DAVE_Init+0x6c>)
 802595c:	f7ff fb10 	bl	8024f80 <INTERRUPT_Init>
 8025960:	b9e0      	cbnz	r0, 802599c <DAVE_Init+0x5c>
 8025962:	4813      	ldr	r0, [pc, #76]	; (80259b0 <DAVE_Init+0x70>)
 8025964:	f7ff fcd4 	bl	8025310 <EVENT_DETECTOR_Init>
 8025968:	b9c0      	cbnz	r0, 802599c <DAVE_Init+0x5c>
 802596a:	4812      	ldr	r0, [pc, #72]	; (80259b4 <DAVE_Init+0x74>)
 802596c:	f7ff f984 	bl	8024c78 <PWM_CCU8_Init>
 8025970:	b9a0      	cbnz	r0, 802599c <DAVE_Init+0x5c>
 8025972:	4811      	ldr	r0, [pc, #68]	; (80259b8 <DAVE_Init+0x78>)
 8025974:	f7ff fcbc 	bl	80252f0 <EVENT_GENERATOR_Init>
 8025978:	b980      	cbnz	r0, 802599c <DAVE_Init+0x5c>
 802597a:	4810      	ldr	r0, [pc, #64]	; (80259bc <DAVE_Init+0x7c>)
 802597c:	f7ff fcb8 	bl	80252f0 <EVENT_GENERATOR_Init>
 8025980:	b960      	cbnz	r0, 802599c <DAVE_Init+0x5c>
 8025982:	480f      	ldr	r0, [pc, #60]	; (80259c0 <DAVE_Init+0x80>)
 8025984:	f7ff fcc4 	bl	8025310 <EVENT_DETECTOR_Init>
 8025988:	b940      	cbnz	r0, 802599c <DAVE_Init+0x5c>
 802598a:	480e      	ldr	r0, [pc, #56]	; (80259c4 <DAVE_Init+0x84>)
 802598c:	f7ff f928 	bl	8024be0 <SYSTIMER_Init>
 8025990:	b920      	cbnz	r0, 802599c <DAVE_Init+0x5c>
 8025992:	480d      	ldr	r0, [pc, #52]	; (80259c8 <DAVE_Init+0x88>)
 8025994:	e8bd 4008 	ldmia.w	sp!, {r3, lr}
 8025998:	f7ff bf50 	b.w	802583c <DIGITAL_IO_Init>
 802599c:	bd08      	pop	{r3, pc}
 802599e:	bf00      	nop
 80259a0:	1ffea4d0 	.word	0x1ffea4d0
 80259a4:	0802647c 	.word	0x0802647c
 80259a8:	08026450 	.word	0x08026450
 80259ac:	0802644c 	.word	0x0802644c
 80259b0:	1ffe942c 	.word	0x1ffe942c
 80259b4:	1ffe9398 	.word	0x1ffe9398
 80259b8:	1ffe940c 	.word	0x1ffe940c
 80259bc:	1ffe93fc 	.word	0x1ffe93fc
 80259c0:	1ffe941c 	.word	0x1ffe941c
 80259c4:	1ffe94c4 	.word	0x1ffe94c4
 80259c8:	08026488 	.word	0x08026488

080259cc <__NVIC_DisableIRQ>:
 80259cc:	2800      	cmp	r0, #0
 80259ce:	db0c      	blt.n	80259ea <__NVIC_DisableIRQ+0x1e>
 80259d0:	0943      	lsrs	r3, r0, #5
 80259d2:	3320      	adds	r3, #32
 80259d4:	f000 001f 	and.w	r0, r0, #31
 80259d8:	4904      	ldr	r1, [pc, #16]	; (80259ec <__NVIC_DisableIRQ+0x20>)
 80259da:	2201      	movs	r2, #1
 80259dc:	4082      	lsls	r2, r0
 80259de:	f841 2023 	str.w	r2, [r1, r3, lsl #2]
 80259e2:	f3bf 8f4f 	dsb	sy
 80259e6:	f3bf 8f6f 	isb	sy
 80259ea:	4770      	bx	lr
 80259ec:	e000e100 	.word	0xe000e100

080259f0 <Init_Relax_Button>:
 80259f0:	b510      	push	{r4, lr}
 80259f2:	4c0a      	ldr	r4, [pc, #40]	; (8025a1c <Init_Relax_Button+0x2c>)
 80259f4:	210d      	movs	r1, #13
 80259f6:	4620      	mov	r0, r4
 80259f8:	2200      	movs	r2, #0
 80259fa:	f7fe ffa6 	bl	802494a <XMC_GPIO_SetMode>
 80259fe:	6e23      	ldr	r3, [r4, #96]	; 0x60
 8025a00:	f423 5300 	bic.w	r3, r3, #8192	; 0x2000
 8025a04:	6623      	str	r3, [r4, #96]	; 0x60
 8025a06:	4620      	mov	r0, r4
 8025a08:	210c      	movs	r1, #12
 8025a0a:	2200      	movs	r2, #0
 8025a0c:	f7fe ff9d 	bl	802494a <XMC_GPIO_SetMode>
 8025a10:	6e23      	ldr	r3, [r4, #96]	; 0x60
 8025a12:	f423 5380 	bic.w	r3, r3, #4096	; 0x1000
 8025a16:	6623      	str	r3, [r4, #96]	; 0x60
 8025a18:	bd10      	pop	{r4, pc}
 8025a1a:	bf00      	nop
 8025a1c:	48028f00 	.word	0x48028f00

08025a20 <Init_ECAT_Adapt_LED>:
 8025a20:	b570      	push	{r4, r5, r6, lr}
 8025a22:	4d1d      	ldr	r5, [pc, #116]	; (8025a98 <Init_ECAT_Adapt_LED+0x78>)
 8025a24:	4c1d      	ldr	r4, [pc, #116]	; (8025a9c <Init_ECAT_Adapt_LED+0x7c>)
 8025a26:	4628      	mov	r0, r5
 8025a28:	210e      	movs	r1, #14
 8025a2a:	2280      	movs	r2, #128	; 0x80
 8025a2c:	f44f 4680 	mov.w	r6, #16384	; 0x4000
 8025a30:	f7fe ff8b 	bl	802494a <XMC_GPIO_SetMode>
 8025a34:	606e      	str	r6, [r5, #4]
 8025a36:	4620      	mov	r0, r4
 8025a38:	210e      	movs	r1, #14
 8025a3a:	2280      	movs	r2, #128	; 0x80
 8025a3c:	f7fe ff85 	bl	802494a <XMC_GPIO_SetMode>
 8025a40:	4628      	mov	r0, r5
 8025a42:	210f      	movs	r1, #15
 8025a44:	2280      	movs	r2, #128	; 0x80
 8025a46:	6066      	str	r6, [r4, #4]
 8025a48:	f7fe ff7f 	bl	802494a <XMC_GPIO_SetMode>
 8025a4c:	f44f 4300 	mov.w	r3, #32768	; 0x8000
 8025a50:	606b      	str	r3, [r5, #4]
 8025a52:	f505 7580 	add.w	r5, r5, #256	; 0x100
 8025a56:	4628      	mov	r0, r5
 8025a58:	2102      	movs	r1, #2
 8025a5a:	2280      	movs	r2, #128	; 0x80
 8025a5c:	f7fe ff75 	bl	802494a <XMC_GPIO_SetMode>
 8025a60:	2304      	movs	r3, #4
 8025a62:	606b      	str	r3, [r5, #4]
 8025a64:	4620      	mov	r0, r4
 8025a66:	210d      	movs	r1, #13
 8025a68:	2280      	movs	r2, #128	; 0x80
 8025a6a:	f7fe ff6e 	bl	802494a <XMC_GPIO_SetMode>
 8025a6e:	f505 6580 	add.w	r5, r5, #1024	; 0x400
 8025a72:	f44f 5300 	mov.w	r3, #8192	; 0x2000
 8025a76:	6063      	str	r3, [r4, #4]
 8025a78:	4628      	mov	r0, r5
 8025a7a:	2103      	movs	r1, #3
 8025a7c:	2280      	movs	r2, #128	; 0x80
 8025a7e:	f7fe ff64 	bl	802494a <XMC_GPIO_SetMode>
 8025a82:	2308      	movs	r3, #8
 8025a84:	606b      	str	r3, [r5, #4]
 8025a86:	4620      	mov	r0, r4
 8025a88:	210b      	movs	r1, #11
 8025a8a:	2280      	movs	r2, #128	; 0x80
 8025a8c:	f7fe ff5d 	bl	802494a <XMC_GPIO_SetMode>
 8025a90:	f44f 6300 	mov.w	r3, #2048	; 0x800
 8025a94:	6063      	str	r3, [r4, #4]
 8025a96:	bd70      	pop	{r4, r5, r6, pc}
 8025a98:	48028000 	.word	0x48028000
 8025a9c:	48028300 	.word	0x48028300

08025aa0 <main>:
 8025aa0:	b510      	push	{r4, lr}
 8025aa2:	f7ff ff4d 	bl	8025940 <DAVE_Init>
 8025aa6:	4604      	mov	r4, r0
 8025aa8:	f7ff ffba 	bl	8025a20 <Init_ECAT_Adapt_LED>
 8025aac:	f7ff ffa0 	bl	80259f0 <Init_Relax_Button>
 8025ab0:	2c01      	cmp	r4, #1
 8025ab2:	d100      	bne.n	8025ab6 <main+0x16>
 8025ab4:	e7fe      	b.n	8025ab4 <main+0x14>
 8025ab6:	f7fb f83f 	bl	8020b38 <MainLoop>
 8025aba:	e7fc      	b.n	8025ab6 <main+0x16>

08025abc <ERU1_0_IRQHandler>:
 8025abc:	f7fa bf22 	b.w	8020904 <Sync0_Isr>

08025ac0 <ERU1_3_IRQHandler>:
 8025ac0:	f7fa be80 	b.w	80207c4 <Sync1_Isr>

08025ac4 <ENABLE_ESC_INT_USER>:
 8025ac4:	4b0f      	ldr	r3, [pc, #60]	; (8025b04 <ENABLE_ESC_INT_USER+0x40>)
 8025ac6:	781a      	ldrb	r2, [r3, #0]
 8025ac8:	b253      	sxtb	r3, r2
 8025aca:	2b00      	cmp	r3, #0
 8025acc:	bfa1      	itttt	ge
 8025ace:	2101      	movge	r1, #1
 8025ad0:	f002 021f 	andge.w	r2, r2, #31
 8025ad4:	fa01 f202 	lslge.w	r2, r1, r2
 8025ad8:	095b      	lsrge	r3, r3, #5
 8025ada:	bfa4      	itt	ge
 8025adc:	490a      	ldrge	r1, [pc, #40]	; (8025b08 <ENABLE_ESC_INT_USER+0x44>)
 8025ade:	f841 2023 	strge.w	r2, [r1, r3, lsl #2]
 8025ae2:	4b0a      	ldr	r3, [pc, #40]	; (8025b0c <ENABLE_ESC_INT_USER+0x48>)
 8025ae4:	781a      	ldrb	r2, [r3, #0]
 8025ae6:	b253      	sxtb	r3, r2
 8025ae8:	2b00      	cmp	r3, #0
 8025aea:	bfa1      	itttt	ge
 8025aec:	2101      	movge	r1, #1
 8025aee:	f002 021f 	andge.w	r2, r2, #31
 8025af2:	fa01 f202 	lslge.w	r2, r1, r2
 8025af6:	095b      	lsrge	r3, r3, #5
 8025af8:	bfa4      	itt	ge
 8025afa:	4903      	ldrge	r1, [pc, #12]	; (8025b08 <ENABLE_ESC_INT_USER+0x44>)
 8025afc:	f841 2023 	strge.w	r2, [r1, r3, lsl #2]
 8025b00:	4770      	bx	lr
 8025b02:	bf00      	nop
 8025b04:	0802644c 	.word	0x0802644c
 8025b08:	e000e100 	.word	0xe000e100
 8025b0c:	08026450 	.word	0x08026450

08025b10 <DISABLE_ESC_INT_USER>:
 8025b10:	b508      	push	{r3, lr}
 8025b12:	4b06      	ldr	r3, [pc, #24]	; (8025b2c <DISABLE_ESC_INT_USER+0x1c>)
 8025b14:	f993 0000 	ldrsb.w	r0, [r3]
 8025b18:	f7ff ff58 	bl	80259cc <__NVIC_DisableIRQ>
 8025b1c:	4b04      	ldr	r3, [pc, #16]	; (8025b30 <DISABLE_ESC_INT_USER+0x20>)
 8025b1e:	f993 0000 	ldrsb.w	r0, [r3]
 8025b22:	e8bd 4008 	ldmia.w	sp!, {r3, lr}
 8025b26:	f7ff bf51 	b.w	80259cc <__NVIC_DisableIRQ>
 8025b2a:	bf00      	nop
 8025b2c:	0802644c 	.word	0x0802644c
 8025b30:	08026450 	.word	0x08026450

08025b34 <__errno>:
 8025b34:	4b01      	ldr	r3, [pc, #4]	; (8025b3c <__errno+0x8>)
 8025b36:	6818      	ldr	r0, [r3, #0]
 8025b38:	4770      	bx	lr
 8025b3a:	bf00      	nop
 8025b3c:	1ffe949c 	.word	0x1ffe949c

08025b40 <__libc_init_array>:
 8025b40:	b570      	push	{r4, r5, r6, lr}
 8025b42:	4b0e      	ldr	r3, [pc, #56]	; (8025b7c <__libc_init_array+0x3c>)
 8025b44:	4c0e      	ldr	r4, [pc, #56]	; (8025b80 <__libc_init_array+0x40>)
 8025b46:	1ae4      	subs	r4, r4, r3
 8025b48:	10a4      	asrs	r4, r4, #2
 8025b4a:	2500      	movs	r5, #0
 8025b4c:	461e      	mov	r6, r3
 8025b4e:	42a5      	cmp	r5, r4
 8025b50:	d004      	beq.n	8025b5c <__libc_init_array+0x1c>
 8025b52:	f856 3025 	ldr.w	r3, [r6, r5, lsl #2]
 8025b56:	4798      	blx	r3
 8025b58:	3501      	adds	r5, #1
 8025b5a:	e7f8      	b.n	8025b4e <__libc_init_array+0xe>
 8025b5c:	f7fe ff34 	bl	80249c8 <_init>
 8025b60:	4c08      	ldr	r4, [pc, #32]	; (8025b84 <__libc_init_array+0x44>)
 8025b62:	4b09      	ldr	r3, [pc, #36]	; (8025b88 <__libc_init_array+0x48>)
 8025b64:	1ae4      	subs	r4, r4, r3
 8025b66:	10a4      	asrs	r4, r4, #2
 8025b68:	2500      	movs	r5, #0
 8025b6a:	461e      	mov	r6, r3
 8025b6c:	42a5      	cmp	r5, r4
 8025b6e:	d004      	beq.n	8025b7a <__libc_init_array+0x3a>
 8025b70:	f856 3025 	ldr.w	r3, [r6, r5, lsl #2]
 8025b74:	4798      	blx	r3
 8025b76:	3501      	adds	r5, #1
 8025b78:	e7f8      	b.n	8025b6c <__libc_init_array+0x2c>
 8025b7a:	bd70      	pop	{r4, r5, r6, pc}
 8025b7c:	1ffe94a0 	.word	0x1ffe94a0
 8025b80:	1ffe94a0 	.word	0x1ffe94a0
 8025b84:	1ffe94a0 	.word	0x1ffe94a0
 8025b88:	1ffe94a0 	.word	0x1ffe94a0

08025b8c <malloc>:
 8025b8c:	4b02      	ldr	r3, [pc, #8]	; (8025b98 <malloc+0xc>)
 8025b8e:	4601      	mov	r1, r0
 8025b90:	6818      	ldr	r0, [r3, #0]
 8025b92:	f000 b873 	b.w	8025c7c <_malloc_r>
 8025b96:	bf00      	nop
 8025b98:	1ffe949c 	.word	0x1ffe949c

08025b9c <free>:
 8025b9c:	4b02      	ldr	r3, [pc, #8]	; (8025ba8 <free+0xc>)
 8025b9e:	4601      	mov	r1, r0
 8025ba0:	6818      	ldr	r0, [r3, #0]
 8025ba2:	f000 b827 	b.w	8025bf4 <_free_r>
 8025ba6:	bf00      	nop
 8025ba8:	1ffe949c 	.word	0x1ffe949c

08025bac <memcmp>:
 8025bac:	b510      	push	{r4, lr}
 8025bae:	440a      	add	r2, r1
 8025bb0:	1e44      	subs	r4, r0, #1
 8025bb2:	4291      	cmp	r1, r2
 8025bb4:	d008      	beq.n	8025bc8 <memcmp+0x1c>
 8025bb6:	f814 3f01 	ldrb.w	r3, [r4, #1]!
 8025bba:	7808      	ldrb	r0, [r1, #0]
 8025bbc:	4283      	cmp	r3, r0
 8025bbe:	d001      	beq.n	8025bc4 <memcmp+0x18>
 8025bc0:	1a18      	subs	r0, r3, r0
 8025bc2:	bd10      	pop	{r4, pc}
 8025bc4:	3101      	adds	r1, #1
 8025bc6:	e7f4      	b.n	8025bb2 <memcmp+0x6>
 8025bc8:	2000      	movs	r0, #0
 8025bca:	bd10      	pop	{r4, pc}

08025bcc <memcpy>:
 8025bcc:	b510      	push	{r4, lr}
 8025bce:	1e43      	subs	r3, r0, #1
 8025bd0:	440a      	add	r2, r1
 8025bd2:	4291      	cmp	r1, r2
 8025bd4:	d004      	beq.n	8025be0 <memcpy+0x14>
 8025bd6:	f811 4b01 	ldrb.w	r4, [r1], #1
 8025bda:	f803 4f01 	strb.w	r4, [r3, #1]!
 8025bde:	e7f8      	b.n	8025bd2 <memcpy+0x6>
 8025be0:	bd10      	pop	{r4, pc}

08025be2 <memset>:
 8025be2:	4402      	add	r2, r0
 8025be4:	4603      	mov	r3, r0
 8025be6:	4293      	cmp	r3, r2
 8025be8:	d002      	beq.n	8025bf0 <memset+0xe>
 8025bea:	f803 1b01 	strb.w	r1, [r3], #1
 8025bee:	e7fa      	b.n	8025be6 <memset+0x4>
 8025bf0:	4770      	bx	lr
	...

08025bf4 <_free_r>:
 8025bf4:	b530      	push	{r4, r5, lr}
 8025bf6:	2900      	cmp	r1, #0
 8025bf8:	d03d      	beq.n	8025c76 <_free_r+0x82>
 8025bfa:	f851 2c04 	ldr.w	r2, [r1, #-4]
 8025bfe:	1f0b      	subs	r3, r1, #4
 8025c00:	491d      	ldr	r1, [pc, #116]	; (8025c78 <_free_r+0x84>)
 8025c02:	2a00      	cmp	r2, #0
 8025c04:	bfb8      	it	lt
 8025c06:	189b      	addlt	r3, r3, r2
 8025c08:	680a      	ldr	r2, [r1, #0]
 8025c0a:	460c      	mov	r4, r1
 8025c0c:	b912      	cbnz	r2, 8025c14 <_free_r+0x20>
 8025c0e:	605a      	str	r2, [r3, #4]
 8025c10:	600b      	str	r3, [r1, #0]
 8025c12:	bd30      	pop	{r4, r5, pc}
 8025c14:	4293      	cmp	r3, r2
 8025c16:	d20d      	bcs.n	8025c34 <_free_r+0x40>
 8025c18:	6819      	ldr	r1, [r3, #0]
 8025c1a:	1858      	adds	r0, r3, r1
 8025c1c:	4290      	cmp	r0, r2
 8025c1e:	bf01      	itttt	eq
 8025c20:	585a      	ldreq	r2, [r3, r1]
 8025c22:	1852      	addeq	r2, r2, r1
 8025c24:	601a      	streq	r2, [r3, #0]
 8025c26:	6842      	ldreq	r2, [r0, #4]
 8025c28:	605a      	str	r2, [r3, #4]
 8025c2a:	6023      	str	r3, [r4, #0]
 8025c2c:	bd30      	pop	{r4, r5, pc}
 8025c2e:	4299      	cmp	r1, r3
 8025c30:	d803      	bhi.n	8025c3a <_free_r+0x46>
 8025c32:	460a      	mov	r2, r1
 8025c34:	6851      	ldr	r1, [r2, #4]
 8025c36:	2900      	cmp	r1, #0
 8025c38:	d1f9      	bne.n	8025c2e <_free_r+0x3a>
 8025c3a:	6814      	ldr	r4, [r2, #0]
 8025c3c:	1915      	adds	r5, r2, r4
 8025c3e:	429d      	cmp	r5, r3
 8025c40:	d10a      	bne.n	8025c58 <_free_r+0x64>
 8025c42:	681b      	ldr	r3, [r3, #0]
 8025c44:	4423      	add	r3, r4
 8025c46:	18d0      	adds	r0, r2, r3
 8025c48:	4288      	cmp	r0, r1
 8025c4a:	6013      	str	r3, [r2, #0]
 8025c4c:	d113      	bne.n	8025c76 <_free_r+0x82>
 8025c4e:	6808      	ldr	r0, [r1, #0]
 8025c50:	4403      	add	r3, r0
 8025c52:	6013      	str	r3, [r2, #0]
 8025c54:	684b      	ldr	r3, [r1, #4]
 8025c56:	e00d      	b.n	8025c74 <_free_r+0x80>
 8025c58:	d902      	bls.n	8025c60 <_free_r+0x6c>
 8025c5a:	230c      	movs	r3, #12
 8025c5c:	6003      	str	r3, [r0, #0]
 8025c5e:	bd30      	pop	{r4, r5, pc}
 8025c60:	681c      	ldr	r4, [r3, #0]
 8025c62:	1918      	adds	r0, r3, r4
 8025c64:	4288      	cmp	r0, r1
 8025c66:	bf04      	itt	eq
 8025c68:	6808      	ldreq	r0, [r1, #0]
 8025c6a:	6849      	ldreq	r1, [r1, #4]
 8025c6c:	6059      	str	r1, [r3, #4]
 8025c6e:	bf04      	itt	eq
 8025c70:	1900      	addeq	r0, r0, r4
 8025c72:	6018      	streq	r0, [r3, #0]
 8025c74:	6053      	str	r3, [r2, #4]
 8025c76:	bd30      	pop	{r4, r5, pc}
 8025c78:	1ffea4d8 	.word	0x1ffea4d8

08025c7c <_malloc_r>:
 8025c7c:	b570      	push	{r4, r5, r6, lr}
 8025c7e:	1ccc      	adds	r4, r1, #3
 8025c80:	f024 0403 	bic.w	r4, r4, #3
 8025c84:	3408      	adds	r4, #8
 8025c86:	2c0c      	cmp	r4, #12
 8025c88:	bf38      	it	cc
 8025c8a:	240c      	movcc	r4, #12
 8025c8c:	2c00      	cmp	r4, #0
 8025c8e:	4606      	mov	r6, r0
 8025c90:	da03      	bge.n	8025c9a <_malloc_r+0x1e>
 8025c92:	230c      	movs	r3, #12
 8025c94:	6033      	str	r3, [r6, #0]
 8025c96:	2000      	movs	r0, #0
 8025c98:	bd70      	pop	{r4, r5, r6, pc}
 8025c9a:	428c      	cmp	r4, r1
 8025c9c:	d3f9      	bcc.n	8025c92 <_malloc_r+0x16>
 8025c9e:	4a20      	ldr	r2, [pc, #128]	; (8025d20 <_malloc_r+0xa4>)
 8025ca0:	6813      	ldr	r3, [r2, #0]
 8025ca2:	4610      	mov	r0, r2
 8025ca4:	4619      	mov	r1, r3
 8025ca6:	b1a1      	cbz	r1, 8025cd2 <_malloc_r+0x56>
 8025ca8:	680a      	ldr	r2, [r1, #0]
 8025caa:	1b12      	subs	r2, r2, r4
 8025cac:	d40e      	bmi.n	8025ccc <_malloc_r+0x50>
 8025cae:	2a0b      	cmp	r2, #11
 8025cb0:	d903      	bls.n	8025cba <_malloc_r+0x3e>
 8025cb2:	600a      	str	r2, [r1, #0]
 8025cb4:	188b      	adds	r3, r1, r2
 8025cb6:	508c      	str	r4, [r1, r2]
 8025cb8:	e01f      	b.n	8025cfa <_malloc_r+0x7e>
 8025cba:	428b      	cmp	r3, r1
 8025cbc:	bf0d      	iteet	eq
 8025cbe:	685a      	ldreq	r2, [r3, #4]
 8025cc0:	684a      	ldrne	r2, [r1, #4]
 8025cc2:	605a      	strne	r2, [r3, #4]
 8025cc4:	6002      	streq	r2, [r0, #0]
 8025cc6:	bf18      	it	ne
 8025cc8:	460b      	movne	r3, r1
 8025cca:	e016      	b.n	8025cfa <_malloc_r+0x7e>
 8025ccc:	460b      	mov	r3, r1
 8025cce:	6849      	ldr	r1, [r1, #4]
 8025cd0:	e7e9      	b.n	8025ca6 <_malloc_r+0x2a>
 8025cd2:	4d14      	ldr	r5, [pc, #80]	; (8025d24 <_malloc_r+0xa8>)
 8025cd4:	682b      	ldr	r3, [r5, #0]
 8025cd6:	b91b      	cbnz	r3, 8025ce0 <_malloc_r+0x64>
 8025cd8:	4630      	mov	r0, r6
 8025cda:	f000 f825 	bl	8025d28 <_sbrk_r>
 8025cde:	6028      	str	r0, [r5, #0]
 8025ce0:	4630      	mov	r0, r6
 8025ce2:	4621      	mov	r1, r4
 8025ce4:	f000 f820 	bl	8025d28 <_sbrk_r>
 8025ce8:	1c42      	adds	r2, r0, #1
 8025cea:	4603      	mov	r3, r0
 8025cec:	d0d1      	beq.n	8025c92 <_malloc_r+0x16>
 8025cee:	1cc5      	adds	r5, r0, #3
 8025cf0:	f025 0503 	bic.w	r5, r5, #3
 8025cf4:	4285      	cmp	r5, r0
 8025cf6:	d10a      	bne.n	8025d0e <_malloc_r+0x92>
 8025cf8:	601c      	str	r4, [r3, #0]
 8025cfa:	f103 000b 	add.w	r0, r3, #11
 8025cfe:	1d1a      	adds	r2, r3, #4
 8025d00:	f020 0007 	bic.w	r0, r0, #7
 8025d04:	1a82      	subs	r2, r0, r2
 8025d06:	d00a      	beq.n	8025d1e <_malloc_r+0xa2>
 8025d08:	4251      	negs	r1, r2
 8025d0a:	5099      	str	r1, [r3, r2]
 8025d0c:	bd70      	pop	{r4, r5, r6, pc}
 8025d0e:	4630      	mov	r0, r6
 8025d10:	1ae9      	subs	r1, r5, r3
 8025d12:	f000 f809 	bl	8025d28 <_sbrk_r>
 8025d16:	3001      	adds	r0, #1
 8025d18:	d0bb      	beq.n	8025c92 <_malloc_r+0x16>
 8025d1a:	462b      	mov	r3, r5
 8025d1c:	e7ec      	b.n	8025cf8 <_malloc_r+0x7c>
 8025d1e:	bd70      	pop	{r4, r5, r6, pc}
 8025d20:	1ffea4d8 	.word	0x1ffea4d8
 8025d24:	1ffea4d4 	.word	0x1ffea4d4

08025d28 <_sbrk_r>:
 8025d28:	b538      	push	{r3, r4, r5, lr}
 8025d2a:	4c06      	ldr	r4, [pc, #24]	; (8025d44 <_sbrk_r+0x1c>)
 8025d2c:	2300      	movs	r3, #0
 8025d2e:	4605      	mov	r5, r0
 8025d30:	4608      	mov	r0, r1
 8025d32:	6023      	str	r3, [r4, #0]
 8025d34:	f7fe fe28 	bl	8024988 <_sbrk>
 8025d38:	1c43      	adds	r3, r0, #1
 8025d3a:	d102      	bne.n	8025d42 <_sbrk_r+0x1a>
 8025d3c:	6823      	ldr	r3, [r4, #0]
 8025d3e:	b103      	cbz	r3, 8025d42 <_sbrk_r+0x1a>
 8025d40:	602b      	str	r3, [r5, #0]
 8025d42:	bd38      	pop	{r3, r4, r5, pc}
 8025d44:	1ffea7bc 	.word	0x1ffea7bc

08025d48 <strlen>:
 8025d48:	4603      	mov	r3, r0
 8025d4a:	f813 2b01 	ldrb.w	r2, [r3], #1
 8025d4e:	2a00      	cmp	r2, #0
 8025d50:	d1fb      	bne.n	8025d4a <strlen+0x2>
 8025d52:	1a18      	subs	r0, r3, r0
 8025d54:	3801      	subs	r0, #1
 8025d56:	4770      	bx	lr

08025d58 <aName0x6000>:
 8025d58:	4e49 475f 4e45 5245 4349 4900 5f4e 4547     IN_GENERIC.IN_GE
 8025d68:	5f4e 4e49 3154 ff00 0000                    N_INT1....

08025d72 <sEntryDesc0x1009>:
 8025d72:	0009 0018 0007                              ......

08025d78 <aName0x1000>:
 8025d78:	6544 6976 6563 7420 7079 0065               Device type.

08025d84 <aName0x1001>:
 8025d84:	7245 6f72 2072 6572 6967 7473 7265 4900          Error register.

08025d93 <aName0x1A00>:
 8025d93:	4e49 475f 4e45 5245 4349 7020 6f72 6563     IN_GENERIC proce
 8025da3:	7373 6420 7461 2061 616d 7070 6e69 0067     ss data mapping.
 8025db3:	7553 4962 646e 7865 3020 3130 ff00 4400          SubIndex 001...

08025dc2 <aName0x1008>:
 8025dc2:	6544 6976 6563 6e20 6d61 0065               Device name.

08025dce <asEntryDesc0x10F1>:
 8025dce:	0005 0008 0007 0007 0020 0007 0006 0010     ........ .......
 8025dde:	003f                                        ?.

08025de0 <aName0x1C00>:
 8025de0:	7953 636e 6d20 6e61 6761 7265 7420 7079     Sync manager typ
 8025df0:	0065                                        e.

08025df2 <aName0x1018>:
 8025df2:	6449 6e65 6974 7974 4f20 6a62 6365 0074     Identity Object.
 8025e02:	6556 646e 726f 4920 0044 7250 646f 6375     Vendor ID.Produc
 8025e12:	2074 6f43 6564 5200 7665 7369 6f69 206e     t Code.Revision 
 8025e22:	754e 626d 7265 5300 7265 6169 206c 754e     Number.Serial Nu
 8025e32:	626d 7265 ff00 0000                         mber....

08025e3a <asEntryDesc0x1018>:
 8025e3a:	0005 0008 0007 0007 0020 0007 0007 0020     ........ ..... .
 8025e4a:	0007 0007 0020 0007 0007 0020 0007          .... ..... ...

08025e58 <aName0x100A>:
 8025e58:	614d 756e 6166 7463 7275 7265 5320 666f     Manufacturer Sof
 8025e68:	7774 7261 2065 6576 7372 6f69 006e          tware version.

08025e76 <aName0x10F8>:
 8025e76:	6954 656d 7473 6d61 2070 624f 656a 7463     Timestamp Object
 8025e86:	ff00 5300                                        ...

08025e89 <aName0x1C13>:
 8025e89:	7953 636e 614d 616e 6567 2072 2033 7361     SyncManager 3 as
 8025e99:	6973 6e67 656d 746e ff00 0500                    signment...

08025ea4 <sEntryDesc0x1001>:
 8025ea4:	0005 0008 0007                              ......

08025eaa <asEntryDesc0x7000>:
 8025eaa:	0005 0008 0007 0006 0010 003f               ..........?.

08025eb6 <sEntryDesc0x100A>:
 8025eb6:	0009 0020 0007                              .. ...

08025ebc <sEntryDesc0x10F8>:
 8025ebc:	001b 0040 00bf                              ..@...

08025ec2 <aName0x1C12>:
 8025ec2:	7953 636e 614d 616e 6567 2072 2032 7361     SyncManager 2 as
 8025ed2:	6973 6e67 656d 746e ff00 0000               signment....

08025ede <asEntryDesc0x1A00>:
 8025ede:	0005 0008 0007 0007 0020 0007               ........ ...

08025eea <aName0x7000>:
 8025eea:	554f 5f54 4547 454e 4952 0043 554f 5f54     OUT_GENERIC.OUT_
 8025efa:	4547 5f4e 4955 544e 0031 00ff               GEN_UINT1...

08025f06 <asEntryDesc0x1600>:
 8025f06:	0005 0008 0007 0007 0020 0007               ........ ...

08025f12 <aName0x1C32>:
 8025f12:	4d53 6f20 7475 7570 2074 6170 6172 656d     SM output parame
 8025f22:	6574 0072 7953 636e 7268 6e6f 7a69 7461     ter.Synchronizat
 8025f32:	6f69 206e 7954 6570 4300 6379 656c 5420     ion Type.Cycle T
 8025f42:	6d69 0065 5300 6e79 6863 6f72 696e 617a     ime..Synchroniza
 8025f52:	6974 6e6f 5420 7079 7365 7320 7075 6f70     tion Types suppo
 8025f62:	7472 6465 4d00 6e69 6d69 6d75 4320 6379     rted.Minimum Cyc
 8025f72:	656c 5420 6d69 0065 6143 636c 6120 646e     le Time.Calc and
 8025f82:	4320 706f 2079 6954 656d 0000 6547 2074      Copy Time..Get 
 8025f92:	7943 6c63 2065 6954 656d 4400 6c65 7961     Cycle Time.Delay
 8025fa2:	5420 6d69 0065 7953 636e 2030 7943 6c63      Time.Sync0 Cycl
 8025fb2:	2065 6954 656d 5300 2d4d 7645 6e65 2074     e Time.SM-Event 
 8025fc2:	694d 7373 6465 4300 6379 656c 5420 6d69     Missed.Cycle Tim
 8025fd2:	2065 6f54 206f 6d53 6c61 006c 6853 6669     e Too Small.Shif
 8025fe2:	2074 6954 656d 5420 6f6f 5320 6f68 7472     t Time Too Short
 8025ff2:	4320 756f 746e 7265 0000 0000 0000 0000      Counter........
	...
 802600a:	0000 5300 6e79 2063 7245 6f72 0072 00ff     ...Sync Error...

0802601a <aName0x1C33>:
 802601a:	4d53 6920 706e 7475 7020 7261 6d61 7465     SM input paramet
 802602a:	7265 5300 6e79 6863 6f72 696e 617a 6974     er.Synchronizati
 802603a:	6e6f 5420 7079 0065 7943 6c63 2065 6954     on Type.Cycle Ti
 802604a:	656d 0000 7953 636e 7268 6e6f 7a69 7461     me..Synchronizat
 802605a:	6f69 206e 7954 6570 2073 7573 7070 726f     ion Types suppor
 802606a:	6574 0064 694d 696e 756d 206d 7943 6c63     ted.Minimum Cycl
 802607a:	2065 6954 656d 4300 6c61 2063 6e61 2064     e Time.Calc and 
 802608a:	6f43 7970 5420 6d69 0065 4700 7465 4320     Copy Time..Get C
 802609a:	6379 656c 5420 6d69 0065 6544 616c 2079     ycle Time.Delay 
 80260aa:	6954 656d 5300 6e79 3063 4320 6379 656c     Time.Sync0 Cycle
 80260ba:	5420 6d69 0065 4d53 452d 6576 746e 4d20      Time.SM-Event M
 80260ca:	7369 6573 0064 7943 6c63 2065 6954 656d     issed.Cycle Time
 80260da:	5420 6f6f 5320 616d 6c6c 5300 6968 7466      Too Small.Shift
 80260ea:	5420 6d69 2065 6f54 206f 6853 726f 2074      Time Too Short 
 80260fa:	6f43 6e75 6574 0072 0000 0000 0000 0000     Counter.........
	...
 8026112:	0000 7953 636e 4520 7272 726f ff00 0000     ..Sync Error....

08026122 <sEntryDesc0x1008>:
 8026122:	0009 0038 0007                              ..8...

08026128 <asEntryDesc0x1C12>:
 8026128:	0005 0008 0007 0006 0010 0007               ............

08026134 <aName0x1600>:
 8026134:	554f 5f54 4547 454e 4952 2043 7270 636f     OUT_GENERIC proc
 8026144:	7365 2073 6164 6174 6d20 7061 6970 676e     ess data mapping
 8026154:	5300 6275 6e49 6564 2078 3030 0031 00ff     .SubIndex 001...

08026164 <aName0x10F1>:
 8026164:	7245 6f72 2072 6553 7474 6e69 7367 4c00     Error Settings.L
 8026174:	636f 6c61 4520 7272 726f 5220 6165 7463     ocal Error React
 8026184:	6f69 006e 7953 636e 4520 7272 726f 4320     ion.Sync Error C
 8026194:	756f 746e 7265 4c20 6d69 7469 ff00 0000     ounter Limit....

080261a4 <asEntryDesc0x1C3x>:
 80261a4:	0005 0008 0007 0006 0010 000f 0007 0020     .............. .
 80261b4:	0007 0000 0020 0000 0006 0010 0007 0007     .... ...........
 80261c4:	0020 0007 0007 0020 0007 0000 0020 0000      ..... ..... ...
 80261d4:	0006 0010 003f 0007 0020 0007 0007 0020     ....?... ..... .
 80261e4:	003f 0006 0010 0007 0006 0010 0007 0006     ?...............
 80261f4:	0010 0007 0000 0010 0000 0000 0020 0000     ............ ...
 8026204:	0000 0020 0000 0000 0020 0000 0000 0020     .. ..... ..... .
	...
 8026264:	0001 0001 0007                              ......

0802626a <asEntryDesc0x6000>:
 802626a:	0005 0008 0007 0006 0010 0007               ............

08026276 <sEntryDesc0x1000>:
 8026276:	0007 0020 0007                              .. ...

0802627c <asEntryDesc0x1C00>:
 802627c:	0005 0008 0007 0005 0008 0007               ............

08026288 <asEntryDesc0x1C13>:
 8026288:	0005 0008 0007 0006 0010 0007               ............

08026294 <aName0x1009>:
 8026294:	614d 756e 6166 7463 7275 7265 4820 7261     Manufacturer Har
 80262a4:	7764 7261 2065 6576 7372 6f69 006e          dware version.

080262b2 <cBitMask>:
 80262b2:	0000 0001 0003 0007 000f 001f 003f 007f     ............?...
 80262c2:	00ff 01ff 03ff 07ff 0fff 1fff 3fff 7fff     .............?..
	...

080262d4 <cAbortCode>:
 80262d4:	0000 0000 0000 0503 0000 0504 0001 0504     ................
 80262e4:	0005 0504 0000 0601 0001 0601 0002 0601     ................
 80262f4:	0000 0602 0041 0604 0042 0604 0043 0604     ....A...B...C...
 8026304:	0047 0604 0000 0606 0010 0607 0012 0607     G...............
 8026314:	0013 0607 0011 0609 0030 0609 0031 0609     ........0...1...
 8026324:	0032 0609 0033 0609 0036 0609 0000 0800     2...3...6.......
 8026334:	0020 0800 0021 0800 0022 0800 0023 0800      ...!..."...#...
 8026344:	0003 0601 0004 0601                         ........

0802634c <CSWTCH.37>:
 802634c:	0000 0202 0c0c 0c0c 0a08                    ..........

08026356 <CSWTCH.38>:
 8026356:	0003 0003 000c 000c 3000 3000 3000 3000     .........0.0.0.0
 8026366:	0300 0c00                                   ....

0802636a <CSWTCH.43>:
 802636a:	0003 0003 000c 000c 0030 0030 3000 3000     ........0.0..0.0
 802637a:	0300 0c00                                   ....

0802637e <CSWTCH.44>:
 802637e:	0000 0202 0404 0c0c 0a08                    ..........

08026388 <PWM_CCU8_0_event1_config>:
 8026388:	0000 0001                                   ....

0802638c <PWM_CCU8_0_timer_handle>:
	...
 8026394:	0014 0000 0003 0000                         ........

0802639c <PWM_CCU8_0_event2_config>:
 802639c:	0000 0001                                   ....

080263a0 <PWM_CCU8_0_ch1_out1_config>:
 80263a0:	0098 0000 0000 0001 0004 0000               ............

080263ac <PWM_CCU8_0_config_handle>:
 80263ac:	0001 8c9f 4650 463e 0000 0000 0000 0000     ....PF>F........
	...
 80263c8:	6448 0802 6388 0802 639c 0802 0000 0000     Hd...c...c......
	...
 80263e4:	0001 0000 0000 0400 643c 0802 0001 0000     ........<d......
 80263f4:	638c 0802 0000 0000 0000 0000 0000 0000     .c..............
 8026404:	0000 0000 0001 0000 8500 4802 0008 0000     ...........H....
 8026414:	63a0 0802 0000 0000 0000 0000 0000 0000     .c..............
	...
 8026438:	93cc 1ffe                                   ....

0802643c <PWM_CCU8_0_dt_config>:
	...

08026448 <PWM_CCU8_0_event0_config>:
 8026448:	0000 0001                                   ....

0802644c <INT_SYNC0>:
 802644c:	1e05 0100                                   ....

08026450 <INT_SYNC1>:
 8026450:	1e08 0100                                   ....

08026454 <INTERRUPT_0>:
 8026454:	1e39 0100                                   9...

08026458 <e_eeprom_xmc4_fce>:
 8026458:	0020 5002 0700 0000 0000 0000                ..P........

08026464 <EG_SYNC0_OGU_Config>:
 8026464:	0010 0000                                   ....

08026468 <EG_SYNC1_OGU_Config>:
 8026468:	0010 0000                                   ....

0802646c <ED_SYNC1_ETL_Config>:
 802646c:	0003 0000 0135 0000                         ....5...

08026474 <ED_SYNC0_ETL_Config>:
 8026474:	000c 0000 0005 0000                         ........

0802647c <ECAT_SSC_0>:
 802647c:	a4c8 1ffe 9368 1ffe 6454 0802               ....h...Td..

08026488 <DIGITAL_IO_0>:
 8026488:	8100 4802 0080 0000 0000 0001 0000 0000     ...H............
 8026498:	000e 0000 0230 0101 0000 0001 0000 0000     ....0...........
 80264a8:	0000 0001 0102 0101 0043 0000               ........C...
