   1              	 .syntax unified
   2              	 .cpu cortex-m4
   3              	 .eabi_attribute 27,3
   4              	 .fpu fpv4-sp-d16
   5              	 .eabi_attribute 20,1
   6              	 .eabi_attribute 21,1
   7              	 .eabi_attribute 23,3
   8              	 .eabi_attribute 24,1
   9              	 .eabi_attribute 25,1
  10              	 .eabi_attribute 26,1
  11              	 .eabi_attribute 30,4
  12              	 .eabi_attribute 34,1
  13              	 .eabi_attribute 18,4
  14              	 .thumb
  15              	 .file "xmc_can.c"
  16              	 .section .text.XMC_CAN_NODE_NominalBitTimeConfigureEx,"ax",%progbits
  17              	 .align 1
  18              	 .global XMC_CAN_NODE_NominalBitTimeConfigureEx
  19              	 .thumb
  20              	 .thumb_func
  22              	XMC_CAN_NODE_NominalBitTimeConfigureEx:
  23              	 
  24              	 
  25 0000 91E80C00 	 ldmia r1,{r2,r3}
  26 0004 F0B5     	 push {r4,r5,r6,r7,lr}
  27 0006 B2FBF3FE 	 udiv lr,r2,r3
  28 000a 03FB1E23 	 mls r3,r3,lr,r2
  29 000e 1BBB     	 cbnz r3,.L8
  30 0010 1927     	 movs r7,#25
  31              	.L7:
  32 0012 BEFBF7F2 	 udiv r2,lr,r7
  33 0016 07FB12E5 	 mls r5,r7,r2,lr
  34 001a D5B9     	 cbnz r5,.L3
  35 001c 531E     	 subs r3,r2,#1
  36 001e B3F5007F 	 cmp r3,#512
  37 0022 16D2     	 bcs .L3
  38 0024 3F2A     	 cmp r2,#63
  39 0026 02D9     	 bls .L4
  40 0028 5307     	 lsls r3,r2,#29
  41 002a 13D1     	 bne .L5
  42 002c 0125     	 movs r5,#1
  43              	.L4:
  44 002e 0C89     	 ldrh r4,[r1,#8]
  45 0030 7B1E     	 subs r3,r7,#1
  46 0032 6343     	 muls r3,r4,r3
  47 0034 42F21074 	 movw r4,#10000
  48 0038 B3FBF4F3 	 udiv r3,r3,r4
  49 003c DC1E     	 subs r4,r3,#3
  50 003e 0C2C     	 cmp r4,#12
  51 0040 07D8     	 bhi .L3
  52 0042 FE1A     	 subs r6,r7,r3
  53 0044 F41E     	 subs r4,r6,#3
  54 0046 042C     	 cmp r4,#4
  55 0048 03D8     	 bhi .L3
  56 004a 4C89     	 ldrh r4,[r1,#10]
  57 004c 013E     	 subs r6,r6,#1
  58 004e A642     	 cmp r6,r4
  59 0050 04D2     	 bcs .L6
  60              	.L3:
  61 0052 013F     	 subs r7,r7,#1
  62              	.L5:
  63 0054 072F     	 cmp r7,#7
  64 0056 DCD8     	 bhi .L7
  65              	.L8:
  66 0058 0120     	 movs r0,#1
  67 005a F0BD     	 pop {r4,r5,r6,r7,pc}
  68              	.L6:
  69 005c 0168     	 ldr r1,[r0]
  70 005e 41F04001 	 orr r1,r1,#64
  71 0062 0160     	 str r1,[r0]
  72 0064 013C     	 subs r4,r4,#1
  73 0066 711E     	 subs r1,r6,#1
  74 0068 0903     	 lsls r1,r1,#12
  75 006a A401     	 lsls r4,r4,#6
  76 006c E4B2     	 uxtb r4,r4
  77 006e 01F4E041 	 and r1,r1,#28672
  78 0072 2143     	 orrs r1,r1,r4
  79 0074 41EAC531 	 orr r1,r1,r5,lsl#15
  80 0078 013B     	 subs r3,r3,#1
  81 007a 05EB4505 	 add r5,r5,r5,lsl#1
  82 007e EA40     	 lsrs r2,r2,r5
  83 0080 1B02     	 lsls r3,r3,#8
  84 0082 03F47063 	 and r3,r3,#3840
  85 0086 013A     	 subs r2,r2,#1
  86 0088 1943     	 orrs r1,r1,r3
  87 008a 02F03F02 	 and r2,r2,#63
  88 008e 41EA0203 	 orr r3,r1,r2
  89 0092 0361     	 str r3,[r0,#16]
  90 0094 0368     	 ldr r3,[r0]
  91 0096 23F04003 	 bic r3,r3,#64
  92 009a 0360     	 str r3,[r0]
  93 009c 0020     	 movs r0,#0
  94 009e F0BD     	 pop {r4,r5,r6,r7,pc}
  96              	 .section .text.XMC_CAN_NODE_NominalBitTimeConfigure,"ax",%progbits
  97              	 .align 1
  98              	 .global XMC_CAN_NODE_NominalBitTimeConfigure
  99              	 .thumb
 100              	 .thumb_func
 102              	XMC_CAN_NODE_NominalBitTimeConfigure:
 103              	 
 104              	 
 105 0000 0B68     	 ldr r3,[r1]
 106 0002 2DE9F043 	 push {r4,r5,r6,r7,r8,r9,lr}
 107 0006 4FF00A08 	 mov r8,#10
 108 000a 08FB03F8 	 mul r8,r8,r3
 109 000e D1F804E0 	 ldr lr,[r1,#4]
 110 0012 0023     	 movs r3,#0
 111 0014 42F21079 	 movw r9,#10000
 112 0018 1E46     	 mov r6,r3
 113 001a 0127     	 movs r7,#1
 114              	.L22:
 115 001c 0A22     	 movs r2,#10
 116 001e B8FBF7F4 	 udiv r4,r8,r7
 117 0022 B4FBFEFC 	 udiv ip,r4,lr
 118 0026 BCFBF2F5 	 udiv r5,ip,r2
 119 002a 02FB15CC 	 mls ip,r2,r5,ip
 120 002e BCF1050F 	 cmp ip,#5
 121 0032 9446     	 mov ip,r2
 122 0034 01D9     	 bls .L14
 123 0036 0135     	 adds r5,r5,#1
 124 0038 00E0     	 b .L15
 125              	.L14:
 126 003a 25B1     	 cbz r5,.L16
 127              	.L15:
 128 003c 0CFB05F2 	 mul r2,ip,r5
 129 0040 B4FBF2F2 	 udiv r2,r4,r2
 130 0044 02E0     	 b .L17
 131              	.L16:
 132 0046 0125     	 movs r5,#1
 133 0048 B4FBF2F2 	 udiv r2,r4,r2
 134              	.L17:
 135 004c 7245     	 cmp r2,lr
 136 004e 2CBF     	 ite cs
 137 0050 CEEB0202 	 rsbcs r2,lr,r2
 138 0054 C2EB0E02 	 rsbcc r2,r2,lr
 139 0058 142D     	 cmp r5,#20
 140 005a 07D8     	 bhi .L20
 141 005c 9145     	 cmp r9,r2
 142 005e 05D9     	 bls .L20
 143 0060 B2F57A7F 	 cmp r2,#1000
 144 0064 06D3     	 bcc .L27
 145 0066 9146     	 mov r9,r2
 146 0068 2B46     	 mov r3,r5
 147 006a 3E46     	 mov r6,r7
 148              	.L20:
 149 006c 0137     	 adds r7,r7,#1
 150 006e 412F     	 cmp r7,#65
 151 0070 D4D1     	 bne .L22
 152 0072 01E0     	 b .L21
 153              	.L27:
 154 0074 2B46     	 mov r3,r5
 155 0076 3E46     	 mov r6,r7
 156              	.L21:
 157 0078 0F89     	 ldrh r7,[r1,#8]
 158 007a 42F2107E 	 movw lr,#10000
 159 007e 0124     	 movs r4,#1
 160 0080 4025     	 movs r5,#64
 161              	.L26:
 162 0082 42F21072 	 movw r2,#10000
 163 0086 05FB0222 	 mla r2,r5,r2,r2
 164 008a B2FBF3F2 	 udiv r2,r2,r3
 165 008e BA42     	 cmp r2,r7
 166 0090 05D3     	 bcc .L23
 167 0092 D21B     	 subs r2,r2,r7
 168 0094 9645     	 cmp lr,r2
 169 0096 07D9     	 bls .L24
 170 0098 9646     	 mov lr,r2
 171 009a 2C46     	 mov r4,r5
 172 009c 04E0     	 b .L24
 173              	.L23:
 174 009e BA1A     	 subs r2,r7,r2
 175 00a0 9645     	 cmp lr,r2
 176 00a2 88BF     	 it hi
 177 00a4 2C46     	 movhi r4,r5
 178 00a6 02E0     	 b .L25
 179              	.L24:
 180 00a8 013D     	 subs r5,r5,#1
 181 00aa 022D     	 cmp r5,#2
 182 00ac E9D1     	 bne .L26
 183              	.L25:
 184 00ae 0268     	 ldr r2,[r0]
 185 00b0 42F04002 	 orr r2,r2,#64
 186 00b4 0260     	 str r2,[r0]
 187 00b6 4A89     	 ldrh r2,[r1,#10]
 188 00b8 013A     	 subs r2,r2,#1
 189 00ba 013E     	 subs r6,r6,#1
 190 00bc 9201     	 lsls r2,r2,#6
 191 00be 611E     	 subs r1,r4,#1
 192 00c0 06F03F06 	 and r6,r6,#63
 193 00c4 D2B2     	 uxtb r2,r2
 194 00c6 0902     	 lsls r1,r1,#8
 195 00c8 3243     	 orrs r2,r2,r6
 196 00ca 01F47061 	 and r1,r1,#3840
 197 00ce 1143     	 orrs r1,r1,r2
 198 00d0 9A1E     	 subs r2,r3,#2
 199 00d2 131B     	 subs r3,r2,r4
 200 00d4 1B03     	 lsls r3,r3,#12
 201 00d6 03F4E043 	 and r3,r3,#28672
 202 00da 0B43     	 orrs r3,r3,r1
 203 00dc 0361     	 str r3,[r0,#16]
 204 00de 0368     	 ldr r3,[r0]
 205 00e0 23F04003 	 bic r3,r3,#64
 206 00e4 0360     	 str r3,[r0]
 207 00e6 BDE8F083 	 pop {r4,r5,r6,r7,r8,r9,pc}
 209              	 .section .text.XMC_CAN_AllocateMOtoNodeList,"ax",%progbits
 210              	 .align 1
 211              	 .global XMC_CAN_AllocateMOtoNodeList
 212              	 .thumb
 213              	 .thumb_func
 215              	XMC_CAN_AllocateMOtoNodeList:
 216              	 
 217              	 
 218              	 
 219              	.L32:
 220 0000 D0F8C431 	 ldr r3,[r0,#452]
 221 0004 13F4407F 	 tst r3,#768
 222 0008 FAD1     	 bne .L32
 223 000a 1204     	 lsls r2,r2,#16
 224 000c 42F00202 	 orr r2,r2,#2
 225 0010 0131     	 adds r1,r1,#1
 226 0012 42EA0161 	 orr r1,r2,r1,lsl#24
 227 0016 C0F8C411 	 str r1,[r0,#452]
 228 001a 7047     	 bx lr
 230              	 .section .text.XMC_CAN_Disable,"ax",%progbits
 231              	 .align 1
 232              	 .global XMC_CAN_Disable
 233              	 .thumb
 234              	 .thumb_func
 236              	XMC_CAN_Disable:
 237              	 
 238              	 
 239 0000 10B5     	 push {r4,lr}
 240 0002 054C     	 ldr r4,.L35
 241 0004 0123     	 movs r3,#1
 242 0006 0360     	 str r3,[r0]
 243 0008 2046     	 mov r0,r4
 244 000a FFF7FEFF 	 bl XMC_SCU_RESET_AssertPeripheralReset
 245 000e 2046     	 mov r0,r4
 246 0010 BDE81040 	 pop {r4,lr}
 247 0014 FFF7FEBF 	 b XMC_SCU_CLOCK_GatePeripheralClock
 248              	.L36:
 249              	 .align 2
 250              	.L35:
 251 0018 10000010 	 .word 268435472
 253              	 .section .text.XMC_CAN_Enable,"ax",%progbits
 254              	 .align 1
 255              	 .global XMC_CAN_Enable
 256              	 .thumb
 257              	 .thumb_func
 259              	XMC_CAN_Enable:
 260              	 
 261              	 
 262 0000 10B5     	 push {r4,lr}
 263 0002 0446     	 mov r4,r0
 264 0004 0648     	 ldr r0,.L40
 265 0006 FFF7FEFF 	 bl XMC_SCU_CLOCK_UngatePeripheralClock
 266 000a 0548     	 ldr r0,.L40
 267 000c FFF7FEFF 	 bl XMC_SCU_RESET_DeassertPeripheralReset
 268 0010 2368     	 ldr r3,[r4]
 269 0012 23F00103 	 bic r3,r3,#1
 270 0016 2360     	 str r3,[r4]
 271              	.L38:
 272 0018 2368     	 ldr r3,[r4]
 273 001a 9B07     	 lsls r3,r3,#30
 274 001c FCD4     	 bmi .L38
 275 001e 10BD     	 pop {r4,pc}
 276              	.L41:
 277              	 .align 2
 278              	.L40:
 279 0020 10000010 	 .word 268435472
 281              	 .section .text.XMC_CAN_SetBaudrateClockSource,"ax",%progbits
 282              	 .align 1
 283              	 .global XMC_CAN_SetBaudrateClockSource
 284              	 .thumb
 285              	 .thumb_func
 287              	XMC_CAN_SetBaudrateClockSource:
 288              	 
 289              	 
 290              	 
 291 0000 D0F8C831 	 ldr r3,[r0,#456]
 292 0004 23F00F03 	 bic r3,r3,#15
 293 0008 1943     	 orrs r1,r1,r3
 294 000a C0F8C811 	 str r1,[r0,#456]
 295 000e 7047     	 bx lr
 297              	 .section .text.XMC_CAN_GetBaudrateClockSource,"ax",%progbits
 298              	 .align 1
 299              	 .global XMC_CAN_GetBaudrateClockSource
 300              	 .thumb
 301              	 .thumb_func
 303              	XMC_CAN_GetBaudrateClockSource:
 304              	 
 305              	 
 306              	 
 307 0000 D0F8C801 	 ldr r0,[r0,#456]
 308 0004 00F00F00 	 and r0,r0,#15
 309 0008 7047     	 bx lr
 311              	 .section .text.XMC_CAN_GetBaudrateClockFrequency,"ax",%progbits
 312              	 .align 1
 313              	 .global XMC_CAN_GetBaudrateClockFrequency
 314              	 .thumb
 315              	 .thumb_func
 317              	XMC_CAN_GetBaudrateClockFrequency:
 318              	 
 319              	 
 320              	 
 321 0000 D0F8C831 	 ldr r3,[r0,#456]
 322 0004 03F00F03 	 and r3,r3,#15
 323 0008 012B     	 cmp r3,#1
 324 000a 03D0     	 beq .L46
 325 000c 022B     	 cmp r3,#2
 326 000e 03D1     	 bne .L49
 327 0010 FFF7FEBF 	 b OSCHP_GetFrequency
 328              	.L46:
 329 0014 FFF7FEBF 	 b XMC_SCU_CLOCK_GetPeripheralClockFrequency
 330              	.L49:
 331 0018 0020     	 movs r0,#0
 332 001a 7047     	 bx lr
 334              	 .section .text.XMC_CAN_Init,"ax",%progbits
 335              	 .align 1
 336              	 .global XMC_CAN_Init
 337              	 .thumb
 338              	 .thumb_func
 340              	XMC_CAN_Init:
 341              	 
 342              	 
 343 0000 70B5     	 push {r4,r5,r6,lr}
 344 0002 0446     	 mov r4,r0
 345 0004 1546     	 mov r5,r2
 346 0006 0E46     	 mov r6,r1
 347 0008 FFF7FEFF 	 bl XMC_CAN_Enable
 348 000c D4F8C831 	 ldr r3,[r4,#456]
 349 0010 23F00F03 	 bic r3,r3,#15
 350 0014 46EA0301 	 orr r1,r6,r3
 351 0018 C4F8C811 	 str r1,[r4,#456]
 352 001c 2046     	 mov r0,r4
 353 001e FFF7FEFF 	 bl XMC_CAN_GetBaudrateClockFrequency
 354 0022 B0FBF5F1 	 udiv r1,r0,r5
 355 0026 C1F58061 	 rsb r1,r1,#1024
 356 002a 0029     	 cmp r1,#0
 357 002c 38BF     	 it cc
 358 002e 0021     	 movcc r1,#0
 359 0030 40F2FF36 	 movw r6,#1023
 360 0034 B142     	 cmp r1,r6
 361 0036 4FEA9513 	 lsr r3,r5,#6
 362 003a 28BF     	 it cs
 363 003c 3146     	 movcs r1,r6
 364 003e 8209     	 lsrs r2,r0,#6
 365 0040 9B02     	 lsls r3,r3,#10
 366 0042 B3FBF2F3 	 udiv r3,r3,r2
 367 0046 B342     	 cmp r3,r6
 368 0048 28BF     	 it cs
 369 004a 3346     	 movcs r3,r6
 370 004c 5A43     	 muls r2,r3,r2
 371 004e 920A     	 lsrs r2,r2,#10
 372 0050 C1F58066 	 rsb r6,r1,#1024
 373 0054 B0FBF6F0 	 udiv r0,r0,r6
 374 0058 281A     	 subs r0,r5,r0
 375 005a A5EB8215 	 sub r5,r5,r2,lsl#6
 376 005e E268     	 ldr r2,[r4,#12]
 377 0060 22F44342 	 bic r2,r2,#49920
 378 0064 22F0FF02 	 bic r2,r2,#255
 379 0068 E260     	 str r2,[r4,#12]
 380 006a A842     	 cmp r0,r5
 381 006c E268     	 ldr r2,[r4,#12]
 382 006e 96BF     	 itet ls
 383 0070 0B46     	 movls r3,r1
 384 0072 0221     	 movhi r1,#2
 385 0074 0121     	 movls r1,#1
 386 0076 1343     	 orrs r3,r3,r2
 387 0078 43EA8133 	 orr r3,r3,r1,lsl#14
 388 007c E360     	 str r3,[r4,#12]
 389 007e 70BD     	 pop {r4,r5,r6,pc}
 391              	 .section .text.XMC_CAN_InitEx,"ax",%progbits
 392              	 .align 1
 393              	 .global XMC_CAN_InitEx
 394              	 .thumb
 395              	 .thumb_func
 397              	XMC_CAN_InitEx:
 398              	 
 399              	 
 400 0000 F8B5     	 push {r3,r4,r5,r6,r7,lr}
 401 0002 0546     	 mov r5,r0
 402 0004 0F46     	 mov r7,r1
 403 0006 1446     	 mov r4,r2
 404 0008 FFF7FEFF 	 bl XMC_CAN_GetBaudrateClockFrequency
 405 000c 0646     	 mov r6,r0
 406 000e 2846     	 mov r0,r5
 407 0010 FFF7FEFF 	 bl XMC_CAN_Enable
 408 0014 B6FBF4F0 	 udiv r0,r6,r4
 409 0018 D5F8C831 	 ldr r3,[r5,#456]
 410 001c C0F58060 	 rsb r0,r0,#1024
 411 0020 0028     	 cmp r0,#0
 412 0022 23F00F03 	 bic r3,r3,#15
 413 0026 38BF     	 it cc
 414 0028 0020     	 movcc r0,#0
 415 002a 47EA0301 	 orr r1,r7,r3
 416 002e 40F2FF33 	 movw r3,#1023
 417 0032 C5F8C811 	 str r1,[r5,#456]
 418 0036 9842     	 cmp r0,r3
 419 0038 28BF     	 it cs
 420 003a 1846     	 movcs r0,r3
 421 003c EB68     	 ldr r3,[r5,#12]
 422 003e 23F44343 	 bic r3,r3,#49920
 423 0042 23F0FF03 	 bic r3,r3,#255
 424 0046 EB60     	 str r3,[r5,#12]
 425 0048 EB68     	 ldr r3,[r5,#12]
 426 004a 43F48043 	 orr r3,r3,#16384
 427 004e 0343     	 orrs r3,r3,r0
 428 0050 EB60     	 str r3,[r5,#12]
 429 0052 C0F58060 	 rsb r0,r0,#1024
 430 0056 B6FBF0F0 	 udiv r0,r6,r0
 431 005a F8BD     	 pop {r3,r4,r5,r6,r7,pc}
 433              	 .section .text.XMC_CAN_MO_SetIdentifier,"ax",%progbits
 434              	 .align 1
 435              	 .global XMC_CAN_MO_SetIdentifier
 436              	 .thumb
 437              	 .thumb_func
 439              	XMC_CAN_MO_SetIdentifier:
 440              	 
 441              	 
 442 0000 0368     	 ldr r3,[r0]
 443 0002 9A69     	 ldr r2,[r3,#24]
 444 0004 9200     	 lsls r2,r2,#2
 445 0006 10B5     	 push {r4,lr}
 446 0008 57BF     	 itett pl
 447 000a 9A69     	 ldrpl r2,[r3,#24]
 448 000c 9C69     	 ldrmi r4,[r3,#24]
 449 000e 8C04     	 lslpl r4,r1,#18
 450 0010 24F06044 	 bicpl r4,r4,#-536870912
 451 0014 52BF     	 itee pl
 452 0016 02F06042 	 andpl r2,r2,#-536870912
 453 001a 21F06042 	 bicmi r2,r1,#-536870912
 454 001e 04F06044 	 andmi r4,r4,#-536870912
 455 0022 2243     	 orrs r2,r2,r4
 456 0024 9A61     	 str r2,[r3,#24]
 457 0026 4368     	 ldr r3,[r0,#4]
 458 0028 61F31C03 	 bfi r3,r1,#0,#29
 459 002c 4360     	 str r3,[r0,#4]
 460 002e 10BD     	 pop {r4,pc}
 462              	 .section .text.XMC_CAN_MO_GetIdentifier,"ax",%progbits
 463              	 .align 1
 464              	 .global XMC_CAN_MO_GetIdentifier
 465              	 .thumb
 466              	 .thumb_func
 468              	XMC_CAN_MO_GetIdentifier:
 469              	 
 470              	 
 471              	 
 472 0000 0368     	 ldr r3,[r0]
 473 0002 9A69     	 ldr r2,[r3,#24]
 474 0004 9869     	 ldr r0,[r3,#24]
 475 0006 9300     	 lsls r3,r2,#2
 476 0008 54BF     	 ite pl
 477 000a C0F38A40 	 ubfxpl r0,r0,#18,#11
 478 000e 20F06040 	 bicmi r0,r0,#-536870912
 479 0012 7047     	 bx lr
 481              	 .section .text.XMC_CAN_MO_GetAcceptanceMask,"ax",%progbits
 482              	 .align 1
 483              	 .global XMC_CAN_MO_GetAcceptanceMask
 484              	 .thumb
 485              	 .thumb_func
 487              	XMC_CAN_MO_GetAcceptanceMask:
 488              	 
 489              	 
 490              	 
 491 0000 0368     	 ldr r3,[r0]
 492 0002 DA68     	 ldr r2,[r3,#12]
 493 0004 9100     	 lsls r1,r2,#2
 494 0006 06D4     	 bmi .L62
 495 0008 9A69     	 ldr r2,[r3,#24]
 496 000a 9200     	 lsls r2,r2,#2
 497 000c 03D4     	 bmi .L62
 498 000e D868     	 ldr r0,[r3,#12]
 499 0010 C0F38A40 	 ubfx r0,r0,#18,#11
 500 0014 7047     	 bx lr
 501              	.L62:
 502 0016 D868     	 ldr r0,[r3,#12]
 503 0018 20F06040 	 bic r0,r0,#-536870912
 504 001c 7047     	 bx lr
 506              	 .section .text.XMC_CAN_MO_SetAcceptanceMask,"ax",%progbits
 507              	 .align 1
 508              	 .global XMC_CAN_MO_SetAcceptanceMask
 509              	 .thumb
 510              	 .thumb_func
 512              	XMC_CAN_MO_SetAcceptanceMask:
 513              	 
 514              	 
 515 0000 0368     	 ldr r3,[r0]
 516 0002 DA68     	 ldr r2,[r3,#12]
 517 0004 10B5     	 push {r4,lr}
 518 0006 9400     	 lsls r4,r2,#2
 519 0008 08D4     	 bmi .L65
 520 000a 9A69     	 ldr r2,[r3,#24]
 521 000c 9200     	 lsls r2,r2,#2
 522 000e 05D4     	 bmi .L65
 523 0010 DA68     	 ldr r2,[r3,#12]
 524 0012 02F06042 	 and r2,r2,#-536870912
 525 0016 42EA8142 	 orr r2,r2,r1,lsl#18
 526 001a 05E0     	 b .L67
 527              	.L65:
 528 001c DC68     	 ldr r4,[r3,#12]
 529 001e 21F06042 	 bic r2,r1,#-536870912
 530 0022 04F06044 	 and r4,r4,#-536870912
 531 0026 2243     	 orrs r2,r2,r4
 532              	.L67:
 533 0028 DA60     	 str r2,[r3,#12]
 534 002a 8368     	 ldr r3,[r0,#8]
 535 002c 61F31C03 	 bfi r3,r1,#0,#29
 536 0030 8360     	 str r3,[r0,#8]
 537 0032 10BD     	 pop {r4,pc}
 539              	 .section .text.XMC_CAN_MO_UpdateData,"ax",%progbits
 540              	 .align 1
 541              	 .global XMC_CAN_MO_UpdateData
 542              	 .thumb
 543              	 .thumb_func
 545              	XMC_CAN_MO_UpdateData:
 546              	 
 547              	 
 548              	 
 549 0000 037E     	 ldrb r3,[r0,#24]
 550 0002 012B     	 cmp r3,#1
 551 0004 14D1     	 bne .L70
 552 0006 0368     	 ldr r3,[r0]
 553 0008 2022     	 movs r2,#32
 554 000a DA61     	 str r2,[r3,#28]
 555 000c 0368     	 ldr r3,[r0]
 556 000e 017B     	 ldrb r1,[r0,#12]
 557 0010 1A68     	 ldr r2,[r3]
 558 0012 0906     	 lsls r1,r1,#24
 559 0014 01F07061 	 and r1,r1,#251658240
 560 0018 22F07062 	 bic r2,r2,#251658240
 561 001c 0A43     	 orrs r2,r2,r1
 562 001e 1A60     	 str r2,[r3]
 563 0020 0269     	 ldr r2,[r0,#16]
 564 0022 1A61     	 str r2,[r3,#16]
 565 0024 4269     	 ldr r2,[r0,#20]
 566 0026 5A61     	 str r2,[r3,#20]
 567 0028 024A     	 ldr r2,.L71
 568 002a DA61     	 str r2,[r3,#28]
 569 002c 0020     	 movs r0,#0
 570 002e 7047     	 bx lr
 571              	.L70:
 572 0030 0320     	 movs r0,#3
 573 0032 7047     	 bx lr
 574              	.L72:
 575              	 .align 2
 576              	.L71:
 577 0034 40002800 	 .word 2621504
 579              	 .section .text.XMC_CAN_MO_Config,"ax",%progbits
 580              	 .align 1
 581              	 .global XMC_CAN_MO_Config
 582              	 .thumb
 583              	 .thumb_func
 585              	XMC_CAN_MO_Config:
 586              	 
 587              	 
 588 0000 0268     	 ldr r2,[r0]
 589 0002 9168     	 ldr r1,[r2,#8]
 590 0004 02F13843 	 add r3,r2,#-1207959552
 591 0008 21F47F41 	 bic r1,r1,#65280
 592 000c 10B5     	 push {r4,lr}
 593 000e A3F5A833 	 sub r3,r3,#86016
 594 0012 9160     	 str r1,[r2,#8]
 595 0014 9168     	 ldr r1,[r2,#8]
 596 0016 DB00     	 lsls r3,r3,#3
 597 0018 23F0FF03 	 bic r3,r3,#255
 598 001c 0B43     	 orrs r3,r3,r1
 599 001e 9360     	 str r3,[r2,#8]
 600 0020 037E     	 ldrb r3,[r0,#24]
 601 0022 012B     	 cmp r3,#1
 602 0024 0446     	 mov r4,r0
 603 0026 28D8     	 bhi .L73
 604 0028 2023     	 movs r3,#32
 605 002a D361     	 str r3,[r2,#28]
 606 002c C379     	 ldrb r3,[r0,#7]
 607 002e 4268     	 ldr r2,[r0,#4]
 608 0030 13F0200F 	 tst r3,#32
 609 0034 08BF     	 it eq
 610 0036 02F06041 	 andeq r1,r2,#-536870912
 611 003a 0368     	 ldr r3,[r0]
 612 003c 03BF     	 ittte eq
 613 003e 41EA8242 	 orreq r2,r1,r2,lsl#18
 614 0042 9A61     	 streq r2,[r3,#24]
 615 0044 8168     	 ldreq r1,[r0,#8]
 616 0046 9A61     	 strne r2,[r3,#24]
 617 0048 06BF     	 itte eq
 618 004a 01F06042 	 andeq r2,r1,#-536870912
 619 004e 42EA8142 	 orreq r2,r2,r1,lsl#18
 620 0052 8268     	 ldrne r2,[r0,#8]
 621 0054 DA60     	 str r2,[r3,#12]
 622 0056 027E     	 ldrb r2,[r0,#24]
 623 0058 012A     	 cmp r2,#1
 624 005a 08D1     	 bne .L77
 625 005c FFF7FEFF 	 bl XMC_CAN_MO_UpdateData
 626 0060 2368     	 ldr r3,[r4]
 627 0062 4FF00062 	 mov r2,#134217728
 628 0066 DA61     	 str r2,[r3,#28]
 629 0068 2368     	 ldr r3,[r4]
 630 006a 044A     	 ldr r2,.L80
 631 006c 04E0     	 b .L79
 632              	.L77:
 633 006e 4FF40062 	 mov r2,#2048
 634 0072 DA61     	 str r2,[r3,#28]
 635 0074 0368     	 ldr r3,[r0]
 636 0076 024A     	 ldr r2,.L80+4
 637              	.L79:
 638 0078 DA61     	 str r2,[r3,#28]
 639              	.L73:
 640 007a 10BD     	 pop {r4,pc}
 641              	.L81:
 642              	 .align 2
 643              	.L80:
 644 007c C0002006 	 .word 102760640
 645 0080 4006A000 	 .word 10487360
 647              	 .section .text.XMC_CAN_MO_Transmit,"ax",%progbits
 648              	 .align 1
 649              	 .global XMC_CAN_MO_Transmit
 650              	 .thumb
 651              	 .thumb_func
 653              	XMC_CAN_MO_Transmit:
 654              	 
 655              	 
 656              	 
 657 0000 0368     	 ldr r3,[r0]
 658 0002 D969     	 ldr r1,[r3,#28]
 659 0004 DA69     	 ldr r2,[r3,#28]
 660 0006 8906     	 lsls r1,r1,#26
 661 0008 06D5     	 bpl .L84
 662 000a D205     	 lsls r2,r2,#23
 663 000c 06D4     	 bmi .L85
 664 000e 4FF0E062 	 mov r2,#117440512
 665 0012 DA61     	 str r2,[r3,#28]
 666 0014 0020     	 movs r0,#0
 667 0016 7047     	 bx lr
 668              	.L84:
 669 0018 0420     	 movs r0,#4
 670 001a 7047     	 bx lr
 671              	.L85:
 672 001c 0220     	 movs r0,#2
 673 001e 7047     	 bx lr
 675              	 .section .text.XMC_CAN_MO_ReceiveData,"ax",%progbits
 676              	 .align 1
 677              	 .global XMC_CAN_MO_ReceiveData
 678              	 .thumb
 679              	 .thumb_func
 681              	XMC_CAN_MO_ReceiveData:
 682              	 
 683              	 
 684              	 
 685 0000 0268     	 ldr r2,[r0]
 686 0002 D169     	 ldr r1,[r2,#28]
 687 0004 D369     	 ldr r3,[r2,#28]
 688 0006 0905     	 lsls r1,r1,#20
 689 0008 10D4     	 bmi .L89
 690 000a 5B07     	 lsls r3,r3,#29
 691 000c 10D4     	 bmi .L90
 692              	.L92:
 693 000e 1369     	 ldr r3,[r2,#16]
 694 0010 0361     	 str r3,[r0,#16]
 695 0012 5369     	 ldr r3,[r2,#20]
 696 0014 4361     	 str r3,[r0,#20]
 697 0016 D369     	 ldr r3,[r2,#28]
 698 0018 D169     	 ldr r1,[r2,#28]
 699 001a C3F38003 	 ubfx r3,r3,#2,#1
 700 001e C1F3C001 	 ubfx r1,r1,#3,#1
 701 0022 3BB1     	 cbz r3,.L91
 702 0024 0029     	 cmp r1,#0
 703 0026 F2D1     	 bne .L92
 704 0028 0846     	 mov r0,r1
 705 002a 7047     	 bx lr
 706              	.L89:
 707 002c 0320     	 movs r0,#3
 708 002e 7047     	 bx lr
 709              	.L90:
 710 0030 0220     	 movs r0,#2
 711 0032 7047     	 bx lr
 712              	.L91:
 713 0034 1846     	 mov r0,r3
 714 0036 7047     	 bx lr
 716              	 .section .text.XMC_CAN_MO_Receive,"ax",%progbits
 717              	 .align 1
 718              	 .global XMC_CAN_MO_Receive
 719              	 .thumb
 720              	 .thumb_func
 722              	XMC_CAN_MO_Receive:
 723              	 
 724              	 
 725              	 
 726 0000 0368     	 ldr r3,[r0]
 727 0002 DA69     	 ldr r2,[r3,#28]
 728 0004 DB69     	 ldr r3,[r3,#28]
 729 0006 1205     	 lsls r2,r2,#20
 730 0008 4ED4     	 bmi .L101
 731 000a 5907     	 lsls r1,r3,#29
 732 000c 4ED4     	 bmi .L102
 733              	.L105:
 734 000e 0368     	 ldr r3,[r0]
 735 0010 0822     	 movs r2,#8
 736 0012 DA61     	 str r2,[r3,#28]
 737 0014 0368     	 ldr r3,[r0]
 738 0016 C279     	 ldrb r2,[r0,#7]
 739 0018 9969     	 ldr r1,[r3,#24]
 740 001a C1F34071 	 ubfx r1,r1,#29,#1
 741 001e D9B9     	 cbnz r1,.L96
 742 0020 61F34512 	 bfi r2,r1,#5,#1
 743 0024 C271     	 strb r2,[r0,#7]
 744 0026 9A69     	 ldr r2,[r3,#24]
 745 0028 4168     	 ldr r1,[r0,#4]
 746 002a C2F38A42 	 ubfx r2,r2,#18,#11
 747 002e 62F31C01 	 bfi r1,r2,#0,#29
 748 0032 4160     	 str r1,[r0,#4]
 749 0034 D968     	 ldr r1,[r3,#12]
 750 0036 C27A     	 ldrb r2,[r0,#11]
 751 0038 C1F34071 	 ubfx r1,r1,#29,#1
 752 003c 61F34512 	 bfi r2,r1,#5,#1
 753 0040 C272     	 strb r2,[r0,#11]
 754 0042 D968     	 ldr r1,[r3,#12]
 755 0044 12F0200F 	 tst r2,#32
 756 0048 8268     	 ldr r2,[r0,#8]
 757 004a 18BF     	 it ne
 758 004c C1F38A41 	 ubfxne r1,r1,#18,#11
 759 0050 61F31C02 	 bfi r2,r1,#0,#29
 760 0054 8260     	 str r2,[r0,#8]
 761 0056 13E0     	 b .L98
 762              	.L96:
 763 0058 42F02002 	 orr r2,r2,#32
 764 005c C271     	 strb r2,[r0,#7]
 765 005e 9969     	 ldr r1,[r3,#24]
 766 0060 4268     	 ldr r2,[r0,#4]
 767 0062 61F31C02 	 bfi r2,r1,#0,#29
 768 0066 4260     	 str r2,[r0,#4]
 769 0068 D968     	 ldr r1,[r3,#12]
 770 006a 8268     	 ldr r2,[r0,#8]
 771 006c 61F31C02 	 bfi r2,r1,#0,#29
 772 0070 8260     	 str r2,[r0,#8]
 773 0072 DA68     	 ldr r2,[r3,#12]
 774 0074 C17A     	 ldrb r1,[r0,#11]
 775 0076 C2F34072 	 ubfx r2,r2,#29,#1
 776 007a 62F34511 	 bfi r1,r2,#5,#1
 777 007e C172     	 strb r1,[r0,#11]
 778              	.L98:
 779 0080 1A68     	 ldr r2,[r3]
 780 0082 C2F30362 	 ubfx r2,r2,#24,#4
 781 0086 0273     	 strb r2,[r0,#12]
 782 0088 1A69     	 ldr r2,[r3,#16]
 783 008a 0261     	 str r2,[r0,#16]
 784 008c 5A69     	 ldr r2,[r3,#20]
 785 008e 4261     	 str r2,[r0,#20]
 786 0090 DA69     	 ldr r2,[r3,#28]
 787 0092 DB69     	 ldr r3,[r3,#28]
 788 0094 5207     	 lsls r2,r2,#29
 789 0096 C3F3C003 	 ubfx r3,r3,#3,#1
 790 009a 01D5     	 bpl .L99
 791 009c 002B     	 cmp r3,#0
 792 009e B6D1     	 bne .L105
 793              	.L99:
 794 00a0 0023     	 movs r3,#0
 795 00a2 0376     	 strb r3,[r0,#24]
 796 00a4 1846     	 mov r0,r3
 797 00a6 7047     	 bx lr
 798              	.L101:
 799 00a8 0320     	 movs r0,#3
 800 00aa 7047     	 bx lr
 801              	.L102:
 802 00ac 0220     	 movs r0,#2
 803 00ae 7047     	 bx lr
 805              	 .section .text.XMC_CAN_NODE_EnableEvent,"ax",%progbits
 806              	 .align 1
 807              	 .global XMC_CAN_NODE_EnableEvent
 808              	 .thumb
 809              	 .thumb_func
 811              	XMC_CAN_NODE_EnableEvent:
 812              	 
 813              	 
 814              	 
 815 0000 B1F5800F 	 cmp r1,#4194304
 816 0004 15BF     	 itete ne
 817 0006 0368     	 ldrne r3,[r0]
 818 0008 8369     	 ldreq r3,[r0,#24]
 819 000a 1943     	 orrne r1,r1,r3
 820 000c 43F48003 	 orreq r3,r3,#4194304
 821 0010 14BF     	 ite ne
 822 0012 0160     	 strne r1,[r0]
 823 0014 8361     	 streq r3,[r0,#24]
 824 0016 7047     	 bx lr
 826              	 .section .text.XMC_CAN_NODE_DisableEvent,"ax",%progbits
 827              	 .align 1
 828              	 .global XMC_CAN_NODE_DisableEvent
 829              	 .thumb
 830              	 .thumb_func
 832              	XMC_CAN_NODE_DisableEvent:
 833              	 
 834              	 
 835              	 
 836 0000 B1F5800F 	 cmp r1,#4194304
 837 0004 15BF     	 itete ne
 838 0006 0368     	 ldrne r3,[r0]
 839 0008 8369     	 ldreq r3,[r0,#24]
 840 000a 23EA0101 	 bicne r1,r3,r1
 841 000e 23F48003 	 biceq r3,r3,#4194304
 842 0012 14BF     	 ite ne
 843 0014 0160     	 strne r1,[r0]
 844 0016 8361     	 streq r3,[r0,#24]
 845 0018 7047     	 bx lr
 847              	 .section .text.XMC_CAN_TXFIFO_Transmit,"ax",%progbits
 848              	 .align 1
 849              	 .global XMC_CAN_TXFIFO_Transmit
 850              	 .thumb
 851              	 .thumb_func
 853              	XMC_CAN_TXFIFO_Transmit:
 854              	 
 855              	 
 856              	 
 857 0000 0368     	 ldr r3,[r0]
 858 0002 D969     	 ldr r1,[r3,#28]
 859 0004 DA69     	 ldr r2,[r3,#28]
 860 0006 5B68     	 ldr r3,[r3,#4]
 861 0008 8906     	 lsls r1,r1,#26
 862 000a 0DD5     	 bpl .L116
 863 000c D205     	 lsls r2,r2,#23
 864 000e 0DD4     	 bmi .L117
 865 0010 C3F30743 	 ubfx r3,r3,#16,#8
 866 0014 03F11073 	 add r3,r3,#37748736
 867 0018 03F52863 	 add r3,r3,#2688
 868 001c 5B01     	 lsls r3,r3,#5
 869 001e 4FF0E062 	 mov r2,#117440512
 870 0022 DA61     	 str r2,[r3,#28]
 871 0024 0020     	 movs r0,#0
 872 0026 7047     	 bx lr
 873              	.L116:
 874 0028 0420     	 movs r0,#4
 875 002a 7047     	 bx lr
 876              	.L117:
 877 002c 0220     	 movs r0,#2
 878 002e 7047     	 bx lr
 880              	 .section .text.XMC_CAN_TXFIFO_ConfigMOBaseObject,"ax",%progbits
 881              	 .align 1
 882              	 .global XMC_CAN_TXFIFO_ConfigMOBaseObject
 883              	 .thumb
 884              	 .thumb_func
 886              	XMC_CAN_TXFIFO_ConfigMOBaseObject:
 887              	 
 888              	 
 889              	 
 890 0000 82B0     	 sub sp,sp,#8
 891 0002 0268     	 ldr r2,[r0]
 892 0004 0191     	 str r1,[sp,#4]
 893 0006 1368     	 ldr r3,[r2]
 894 0008 9DF80410 	 ldrb r1,[sp,#4]
 895 000c 23F00F03 	 bic r3,r3,#15
 896 0010 43F00203 	 orr r3,r3,#2
 897 0014 1360     	 str r3,[r2]
 898 0016 5368     	 ldr r3,[r2,#4]
 899 0018 03F07F43 	 and r3,r3,#-16777216
 900 001c 0B43     	 orrs r3,r3,r1
 901 001e 9DF80510 	 ldrb r1,[sp,#5]
 902 0022 43EA0123 	 orr r3,r3,r1,lsl#8
 903 0026 9DF80610 	 ldrb r1,[sp,#6]
 904 002a 43EA0143 	 orr r3,r3,r1,lsl#16
 905 002e 5360     	 str r3,[r2,#4]
 906 0030 02B0     	 add sp,sp,#8
 907              	 
 908 0032 7047     	 bx lr
 910              	 .section .text.XMC_CAN_RXFIFO_ConfigMOBaseObject,"ax",%progbits
 911              	 .align 1
 912              	 .global XMC_CAN_RXFIFO_ConfigMOBaseObject
 913              	 .thumb
 914              	 .thumb_func
 916              	XMC_CAN_RXFIFO_ConfigMOBaseObject:
 917              	 
 918              	 
 919              	 
 920 0000 82B0     	 sub sp,sp,#8
 921 0002 0268     	 ldr r2,[r0]
 922 0004 0191     	 str r1,[sp,#4]
 923 0006 1368     	 ldr r3,[r2]
 924 0008 9DF80410 	 ldrb r1,[sp,#4]
 925 000c 23F00F03 	 bic r3,r3,#15
 926 0010 43F00103 	 orr r3,r3,#1
 927 0014 1360     	 str r3,[r2]
 928 0016 5368     	 ldr r3,[r2,#4]
 929 0018 03F07F43 	 and r3,r3,#-16777216
 930 001c 0B43     	 orrs r3,r3,r1
 931 001e 9DF80510 	 ldrb r1,[sp,#5]
 932 0022 43EA0123 	 orr r3,r3,r1,lsl#8
 933 0026 9DF80610 	 ldrb r1,[sp,#6]
 934 002a 43EA0143 	 orr r3,r3,r1,lsl#16
 935 002e 5360     	 str r3,[r2,#4]
 936 0030 02B0     	 add sp,sp,#8
 937              	 
 938 0032 7047     	 bx lr
 940              	 .section .text.XMC_CAN_TXFIFO_ConfigMOSlaveObject,"ax",%progbits
 941              	 .align 1
 942              	 .global XMC_CAN_TXFIFO_ConfigMOSlaveObject
 943              	 .thumb
 944              	 .thumb_func
 946              	XMC_CAN_TXFIFO_ConfigMOSlaveObject:
 947              	 
 948              	 
 949              	 
 950 0000 82B0     	 sub sp,sp,#8
 951 0002 0368     	 ldr r3,[r0]
 952 0004 0191     	 str r1,[sp,#4]
 953 0006 1A68     	 ldr r2,[r3]
 954 0008 9DF80610 	 ldrb r1,[sp,#6]
 955 000c 22F00F02 	 bic r2,r2,#15
 956 0010 42F00302 	 orr r2,r2,#3
 957 0014 1A60     	 str r2,[r3]
 958 0016 5A68     	 ldr r2,[r3,#4]
 959 0018 22F47F02 	 bic r2,r2,#16711680
 960 001c 42EA0142 	 orr r2,r2,r1,lsl#16
 961 0020 5A60     	 str r2,[r3,#4]
 962 0022 024A     	 ldr r2,.L121
 963 0024 DA61     	 str r2,[r3,#28]
 964 0026 02B0     	 add sp,sp,#8
 965              	 
 966 0028 7047     	 bx lr
 967              	.L122:
 968 002a 00BF     	 .align 2
 969              	.L121:
 970 002c 00040002 	 .word 33555456
 972              	 .section .text.XMC_CAN_GATEWAY_InitSourceObject,"ax",%progbits
 973              	 .align 1
 974              	 .global XMC_CAN_GATEWAY_InitSourceObject
 975              	 .thumb
 976              	 .thumb_func
 978              	XMC_CAN_GATEWAY_InitSourceObject:
 979              	 
 980              	 
 981              	 
 982 0000 82B0     	 sub sp,sp,#8
 983 0002 02AB     	 add r3,sp,#8
 984 0004 03E90600 	 stmdb r3,{r1,r2}
 985 0008 9DF80330 	 ldrb r3,[sp,#3]
 986 000c 0168     	 ldr r1,[r0]
 987 000e 1B02     	 lsls r3,r3,#8
 988 0010 03F48072 	 and r2,r3,#256
 989 0014 9DF80530 	 ldrb r3,[sp,#5]
 990 0018 9B02     	 lsls r3,r3,#10
 991 001a 03F48063 	 and r3,r3,#1024
 992 001e 1343     	 orrs r3,r3,r2
 993 0020 9DF80420 	 ldrb r2,[sp,#4]
 994 0024 5202     	 lsls r2,r2,#9
 995 0026 02F40072 	 and r2,r2,#512
 996 002a 43F00403 	 orr r3,r3,#4
 997 002e 1343     	 orrs r3,r3,r2
 998 0030 9DF80620 	 ldrb r2,[sp,#6]
 999 0034 D202     	 lsls r2,r2,#11
 1000 0036 02F40062 	 and r2,r2,#2048
 1001 003a 1343     	 orrs r3,r3,r2
 1002 003c 0B60     	 str r3,[r1]
 1003 003e 9DF80120 	 ldrb r2,[sp,#1]
 1004 0042 9DF80030 	 ldrb r3,[sp]
 1005 0046 43EA0223 	 orr r3,r3,r2,lsl#8
 1006 004a 9DF80220 	 ldrb r2,[sp,#2]
 1007 004e 43EA0243 	 orr r3,r3,r2,lsl#16
 1008 0052 4B60     	 str r3,[r1,#4]
 1009 0054 02B0     	 add sp,sp,#8
 1010              	 
 1011 0056 7047     	 bx lr
 1013              	 .ident "GCC: (GNU Tools for ARM Embedded Processors) 4.9.3 20141119 (release) [ARM/embedded-4_9-branch revision 218278]"
DEFINED SYMBOLS
                            *ABS*:00000000 xmc_can.c
    {standard input}:17     .text.XMC_CAN_NODE_NominalBitTimeConfigureEx:00000000 $t
    {standard input}:22     .text.XMC_CAN_NODE_NominalBitTimeConfigureEx:00000000 XMC_CAN_NODE_NominalBitTimeConfigureEx
    {standard input}:97     .text.XMC_CAN_NODE_NominalBitTimeConfigure:00000000 $t
    {standard input}:102    .text.XMC_CAN_NODE_NominalBitTimeConfigure:00000000 XMC_CAN_NODE_NominalBitTimeConfigure
    {standard input}:210    .text.XMC_CAN_AllocateMOtoNodeList:00000000 $t
    {standard input}:215    .text.XMC_CAN_AllocateMOtoNodeList:00000000 XMC_CAN_AllocateMOtoNodeList
    {standard input}:231    .text.XMC_CAN_Disable:00000000 $t
    {standard input}:236    .text.XMC_CAN_Disable:00000000 XMC_CAN_Disable
    {standard input}:251    .text.XMC_CAN_Disable:00000018 $d
    {standard input}:254    .text.XMC_CAN_Enable:00000000 $t
    {standard input}:259    .text.XMC_CAN_Enable:00000000 XMC_CAN_Enable
    {standard input}:279    .text.XMC_CAN_Enable:00000020 $d
    {standard input}:282    .text.XMC_CAN_SetBaudrateClockSource:00000000 $t
    {standard input}:287    .text.XMC_CAN_SetBaudrateClockSource:00000000 XMC_CAN_SetBaudrateClockSource
    {standard input}:298    .text.XMC_CAN_GetBaudrateClockSource:00000000 $t
    {standard input}:303    .text.XMC_CAN_GetBaudrateClockSource:00000000 XMC_CAN_GetBaudrateClockSource
    {standard input}:312    .text.XMC_CAN_GetBaudrateClockFrequency:00000000 $t
    {standard input}:317    .text.XMC_CAN_GetBaudrateClockFrequency:00000000 XMC_CAN_GetBaudrateClockFrequency
    {standard input}:335    .text.XMC_CAN_Init:00000000 $t
    {standard input}:340    .text.XMC_CAN_Init:00000000 XMC_CAN_Init
    {standard input}:392    .text.XMC_CAN_InitEx:00000000 $t
    {standard input}:397    .text.XMC_CAN_InitEx:00000000 XMC_CAN_InitEx
    {standard input}:434    .text.XMC_CAN_MO_SetIdentifier:00000000 $t
    {standard input}:439    .text.XMC_CAN_MO_SetIdentifier:00000000 XMC_CAN_MO_SetIdentifier
    {standard input}:463    .text.XMC_CAN_MO_GetIdentifier:00000000 $t
    {standard input}:468    .text.XMC_CAN_MO_GetIdentifier:00000000 XMC_CAN_MO_GetIdentifier
    {standard input}:482    .text.XMC_CAN_MO_GetAcceptanceMask:00000000 $t
    {standard input}:487    .text.XMC_CAN_MO_GetAcceptanceMask:00000000 XMC_CAN_MO_GetAcceptanceMask
    {standard input}:507    .text.XMC_CAN_MO_SetAcceptanceMask:00000000 $t
    {standard input}:512    .text.XMC_CAN_MO_SetAcceptanceMask:00000000 XMC_CAN_MO_SetAcceptanceMask
    {standard input}:540    .text.XMC_CAN_MO_UpdateData:00000000 $t
    {standard input}:545    .text.XMC_CAN_MO_UpdateData:00000000 XMC_CAN_MO_UpdateData
    {standard input}:577    .text.XMC_CAN_MO_UpdateData:00000034 $d
    {standard input}:580    .text.XMC_CAN_MO_Config:00000000 $t
    {standard input}:585    .text.XMC_CAN_MO_Config:00000000 XMC_CAN_MO_Config
    {standard input}:644    .text.XMC_CAN_MO_Config:0000007c $d
    {standard input}:648    .text.XMC_CAN_MO_Transmit:00000000 $t
    {standard input}:653    .text.XMC_CAN_MO_Transmit:00000000 XMC_CAN_MO_Transmit
    {standard input}:676    .text.XMC_CAN_MO_ReceiveData:00000000 $t
    {standard input}:681    .text.XMC_CAN_MO_ReceiveData:00000000 XMC_CAN_MO_ReceiveData
    {standard input}:717    .text.XMC_CAN_MO_Receive:00000000 $t
    {standard input}:722    .text.XMC_CAN_MO_Receive:00000000 XMC_CAN_MO_Receive
    {standard input}:806    .text.XMC_CAN_NODE_EnableEvent:00000000 $t
    {standard input}:811    .text.XMC_CAN_NODE_EnableEvent:00000000 XMC_CAN_NODE_EnableEvent
    {standard input}:827    .text.XMC_CAN_NODE_DisableEvent:00000000 $t
    {standard input}:832    .text.XMC_CAN_NODE_DisableEvent:00000000 XMC_CAN_NODE_DisableEvent
    {standard input}:848    .text.XMC_CAN_TXFIFO_Transmit:00000000 $t
    {standard input}:853    .text.XMC_CAN_TXFIFO_Transmit:00000000 XMC_CAN_TXFIFO_Transmit
    {standard input}:881    .text.XMC_CAN_TXFIFO_ConfigMOBaseObject:00000000 $t
    {standard input}:886    .text.XMC_CAN_TXFIFO_ConfigMOBaseObject:00000000 XMC_CAN_TXFIFO_ConfigMOBaseObject
    {standard input}:911    .text.XMC_CAN_RXFIFO_ConfigMOBaseObject:00000000 $t
    {standard input}:916    .text.XMC_CAN_RXFIFO_ConfigMOBaseObject:00000000 XMC_CAN_RXFIFO_ConfigMOBaseObject
    {standard input}:941    .text.XMC_CAN_TXFIFO_ConfigMOSlaveObject:00000000 $t
    {standard input}:946    .text.XMC_CAN_TXFIFO_ConfigMOSlaveObject:00000000 XMC_CAN_TXFIFO_ConfigMOSlaveObject
    {standard input}:970    .text.XMC_CAN_TXFIFO_ConfigMOSlaveObject:0000002c $d
    {standard input}:973    .text.XMC_CAN_GATEWAY_InitSourceObject:00000000 $t
    {standard input}:978    .text.XMC_CAN_GATEWAY_InitSourceObject:00000000 XMC_CAN_GATEWAY_InitSourceObject

UNDEFINED SYMBOLS
XMC_SCU_RESET_AssertPeripheralReset
XMC_SCU_CLOCK_GatePeripheralClock
XMC_SCU_CLOCK_UngatePeripheralClock
XMC_SCU_RESET_DeassertPeripheralReset
OSCHP_GetFrequency
XMC_SCU_CLOCK_GetPeripheralClockFrequency
